Certificate:
    Data:
        Version: 3 (0x2)
        Serial Number:
            91:f8:d9:2a:b4:79:ea:f1
    Signature Algorithm: sha512WithRSAEncryption
        Issuer: C=CH, ST=Zug, L=Zug, O=Perfect Privacy, CN=Perfect Privacy/emailAddress=admin@perfect-privacy.com
        Validity
            Not Before: Aug  2 00:00:00 2023 GMT
            Not After : Mar 29 00:00:00 2025 GMT
        Subject: C=CH, ST=Zug, O=Perfect Privacy, CN=Client_amsterdam.perfect-privacy.com/emailAddress=admin@perfect-privacy.com
        Subject Public Key Info:
            Public Key Algorithm: rsaEncryption
                Public-Key: (4096 bit)
                Modulus:
                    00:c3:de:93:89:5e:c6:97:93:71:c7:90:97:df:e3:
                    f4:10:c4:e7:ec:14:a7:4d:0c:34:b7:08:b3:61:c1:
                    98:9b:91:84:74:b2:ef:55:06:02:d0:61:7d:9c:64:
                    59:d0:61:b3:16:10:dd:3d:04:2d:b6:36:2e:4b:de:
                    c9:cc:d3:e4:7d:83:50:83:18:42:4b:27:4e:d5:87:
                    8c:65:b0:6b:f7:ef:b3:40:82:4a:50:77:a0:b4:23:
                    77:92:d0:09:8f:86:e4:87:02:26:f9:fb:bc:9d:57:
                    cc:15:b6:96:b8:43:4f:8d:dd:1e:c9:c2:bf:3b:af:
                    a9:50:a2:a7:4c:4f:e1:37:ea:4f:6d:fe:05:4e:c0:
                    df:67:6e:28:9c:6b:c8:0f:cd:1b:29:4f:a6:35:3e:
                    95:69:1e:fc:57:a1:38:18:4a:9d:b5:f2:55:dc:2c:
                    ee:d9:63:3f:d6:f7:8b:ee:5f:3d:e0:ee:c7:4c:4b:
                    33:2b:33:a6:17:ed:24:a5:78:85:95:90:54:73:1d:
                    c9:15:ae:46:6e:29:71:07:8e:d0:fd:0e:bf:17:36:
                    1a:52:89:0e:f0:e8:e5:c5:6e:42:63:be:ba:5a:bb:
                    44:7f:54:50:66:d6:96:fb:b5:c7:38:2e:71:01:7a:
                    74:cf:0a:95:dd:86:9d:63:ca:6c:0d:49:bc:3b:45:
                    9f:81:85:68:eb:67:b2:95:7d:38:9f:21:2c:1a:b2:
                    e1:c9:8a:16:79:2e:db:a2:80:57:ec:20:0f:87:2c:
                    e0:3a:a7:9b:7d:e5:e4:3a:c5:aa:38:4e:b3:51:17:
                    58:cb:30:e3:59:7b:70:af:6c:0b:f3:c8:ff:c6:c3:
                    c4:04:46:b7:bd:67:d4:f7:82:43:8f:c4:64:30:c3:
                    16:d5:65:bd:54:9c:b7:78:1e:65:76:3e:de:1f:23:
                    40:38:7d:a9:c5:cd:86:aa:f1:75:bb:69:e8:a8:c3:
                    d7:ec:07:8b:4e:47:43:16:4b:2a:a4:c9:03:38:29:
                    0e:2f:75:45:b7:8d:f9:b1:8d:50:e0:04:15:33:a8:
                    99:a3:59:0f:02:b5:0f:0f:09:fd:9a:5b:59:4c:28:
                    7c:74:99:bd:ec:77:84:5f:62:ce:28:10:34:fa:03:
                    b2:09:c4:68:90:45:02:83:50:14:b9:55:35:81:1e:
                    55:91:eb:43:72:15:75:6a:70:f4:8a:12:ea:c7:66:
                    b5:c7:9c:f4:d8:29:f9:a1:b7:e7:90:3e:aa:98:97:
                    05:c3:b7:76:bb:ec:12:19:40:df:6f:59:65:90:a3:
                    84:fc:aa:85:46:7c:4f:0d:56:5b:e2:d6:40:e5:44:
                    ce:63:db:a7:92:6d:96:53:ee:cb:da:b4:e7:53:9e:
                    f6:bf:35
                Exponent: 65537 (0x10001)
        X509v3 extensions:
            X509v3 Basic Constraints: 
                CA:FALSE
            Netscape Comment: 
                VPN User Certificate
            Netscape Cert Type: 
                SSL Client
            X509v3 Key Usage: 
                Digital Signature
            X509v3 Extended Key Usage: 
                TLS Web Client Authentication
            X509v3 Subject Key Identifier: 
                DF:C1:B6:E5:50:C3:B3:C4:A0:B9:57:16:08:08:09:6C:C0:3A:39:79
            X509v3 Authority Key Identifier: 
                keyid:86:4F:B8:6D:18:2A:1B:3C:8F:27:34:29:F0:81:9F:BA:6E:61:0E:E1
                DirName:/C=CH/ST=Zug/L=Zug/O=Perfect Privacy/CN=Perfect Privacy/emailAddress=admin@perfect-privacy.com
                serial:FA:11:B5:C4:AA:69:AF:69

    Signature Algorithm: sha512WithRSAEncryption
         8a:19:19:31:15:01:55:69:ab:ae:ae:b5:d6:1f:56:8c:81:d3:
         be:32:66:fd:5e:1c:ab:4c:51:b7:9b:97:c9:93:a8:b9:bf:bb:
         63:a9:86:5b:60:ad:23:0f:bf:cf:8e:71:b6:03:f9:a2:b6:df:
         81:2c:ad:b4:fb:2e:a5:c4:fc:de:31:13:a7:f9:85:ea:be:6b:
         f0:9f:91:fd:72:81:be:09:fc:ce:57:0b:5b:13:15:ce:4e:f4:
         f3:99:5a:64:54:b6:1b:eb:5a:3b:46:06:00:3a:b0:13:8a:97:
         76:c1:8b:62:1c:e1:f8:2c:f0:f8:0c:cc:68:ba:f4:f6:65:ea:
         79:c7:53:32:01:27:4b:a8:a9:6a:89:0e:ab:05:ad:0a:64:02:
         91:9c:8d:2f:b8:3a:89:04:41:c3:3d:9b:2a:e8:a3:ec:79:72:
         7f:42:20:b4:32:9a:26:18:b2:0e:8e:e0:04:e7:b3:2b:87:fa:
         65:1d:c3:b9:33:f2:55:9d:b9:94:eb:db:6c:17:53:41:e2:b9:
         59:49:be:5a:66:ba:d0:13:35:fd:d7:4b:f1:a6:b0:94:a4:e0:
         d0:b4:b0:c9:02:08:10:b6:c3:e6:17:27:29:2e:1e:bf:57:7d:
         14:e6:35:e6:80:77:91:5a:fd:4a:67:39:14:2b:d5:9d:6e:b4:
         f6:3a:8d:98:5d:14:f1:e3:21:0e:5f:2d:48:e9:43:7c:93:e9:
         10:fa:5a:70:1a:26:25:fb:c4:a1:aa:26:41:88:ab:fe:3d:50:
         82:6d:19:60:b0:86:96:0e:3f:0d:88:22:43:86:f9:f9:57:7d:
         ef:3d:1a:36:49:6b:e9:04:a3:7c:85:50:f4:d6:0e:0a:a8:9c:
         ff:4a:80:23:93:b6:c0:d3:bf:66:e5:1f:8c:6a:89:fc:5e:9a:
         bf:7a:30:b1:42:fb:4f:18:6c:24:5f:29:7a:3d:0c:88:e5:84:
         10:ea:5e:63:dd:9e:10:1c:6d:81:84:23:f4:bc:3b:0f:bd:3d:
         a1:b7:8e:23:34:02:50:17:57:ae:b4:ec:d8:b7:8e:e3:a8:4b:
         b7:b4:2c:d5:03:87:fb:b2:04:ba:fc:38:50:26:3d:52:e6:1c:
         71:1d:c2:95:60:94:7a:50:cc:e4:e1:a8:57:a2:d4:b8:59:aa:
         48:cb:ab:9d:84:a9:77:c9:09:5a:47:6f:aa:43:e1:6c:90:5f:
         36:1e:d3:f5:de:c8:22:a4:41:09:fe:2a:ee:54:85:94:8d:cd:
         11:38:dd:57:4d:43:09:ee:28:5e:f5:7a:90:88:d2:6c:7e:96:
         42:4f:c5:09:7f:e4:b2:21:b5:bc:7e:dc:e2:81:99:45:02:53:
         50:64:e3:af:a1:75:52:f8
-----BEGIN CERTIFICATE-----
MIIG4zCCBMugAwIBAgIJAJH42Sq0eerxMA0GCSqGSIb3DQEBDQUAMIGHMQswCQYD
VQQGEwJDSDEMMAoGA1UECBMDWnVnMQwwCgYDVQQHEwNadWcxGDAWBgNVBAoTD1Bl
cmZlY3QgUHJpdmFjeTEYMBYGA1UEAxMPUGVyZmVjdCBQcml2YWN5MSgwJgYJKoZI
hvcNAQkBFhlhZG1pbkBwZXJmZWN0LXByaXZhY3kuY29tMB4XDTIzMDgwMjAwMDAw
MFoXDTI1MDMyOTAwMDAwMFowgY4xCzAJBgNVBAYTAkNIMQwwCgYDVQQIEwNadWcx
GDAWBgNVBAoTD1BlcmZlY3QgUHJpdmFjeTEtMCsGA1UEAxQkQ2xpZW50X2Ftc3Rl
cmRhbS5wZXJmZWN0LXByaXZhY3kuY29tMSgwJgYJKoZIhvcNAQkBFhlhZG1pbkBw
ZXJmZWN0LXByaXZhY3kuY29tMIICIjANBgkqhkiG9w0BAQEFAAOCAg8AMIICCgKC
AgEAw96TiV7Gl5Nxx5CX3+P0EMTn7BSnTQw0twizYcGYm5GEdLLvVQYC0GF9nGRZ
0GGzFhDdPQQttjYuS97JzNPkfYNQgxhCSydO1YeMZbBr9++zQIJKUHegtCN3ktAJ
j4bkhwIm+fu8nVfMFbaWuENPjd0eycK/O6+pUKKnTE/hN+pPbf4FTsDfZ24onGvI
D80bKU+mNT6VaR78V6E4GEqdtfJV3Czu2WM/1veL7l894O7HTEszKzOmF+0kpXiF
lZBUcx3JFa5GbilxB47Q/Q6/FzYaUokO8OjlxW5CY766WrtEf1RQZtaW+7XHOC5x
AXp0zwqV3YadY8psDUm8O0WfgYVo62eylX04nyEsGrLhyYoWeS7booBX7CAPhyzg
OqebfeXkOsWqOE6zURdYyzDjWXtwr2wL88j/xsPEBEa3vWfU94JDj8RkMMMW1WW9
VJy3eB5ldj7eHyNAOH2pxc2GqvF1u2noqMPX7AeLTkdDFksqpMkDOCkOL3VFt435
sY1Q4AQVM6iZo1kPArUPDwn9mltZTCh8dJm97HeEX2LOKBA0+gOyCcRokEUCg1AU
uVU1gR5VketDchV1anD0ihLqx2a1x5z02Cn5obfnkD6qmJcFw7d2u+wSGUDfb1ll
kKOE/KqFRnxPDVZb4tZA5UTOY9unkm2WU+7L2rTnU572vzUCAwEAAaOCAUcwggFD
MAkGA1UdEwQCMAAwIwYJYIZIAYb4QgENBBYWFFZQTiBVc2VyIENlcnRpZmljYXRl
MBEGCWCGSAGG+EIBAQQEAwIHgDALBgNVHQ8EBAMCB4AwEwYDVR0lBAwwCgYIKwYB
BQUHAwIwHQYDVR0OBBYEFN/BtuVQw7PEoLlXFggICWzAOjl5MIG8BgNVHSMEgbQw
gbGAFIZPuG0YKhs8jyc0KfCBn7puYQ7hoYGNpIGKMIGHMQswCQYDVQQGEwJDSDEM
MAoGA1UECBMDWnVnMQwwCgYDVQQHEwNadWcxGDAWBgNVBAoTD1BlcmZlY3QgUHJp
dmFjeTEYMBYGA1UEAxMPUGVyZmVjdCBQcml2YWN5MSgwJgYJKoZIhvcNAQkBFhlh
ZG1pbkBwZXJmZWN0LXByaXZhY3kuY29tggkA+hG1xKppr2kwDQYJKoZIhvcNAQEN
BQADggIBAIoZGTEVAVVpq66utdYfVoyB074yZv1eHKtMUbebl8mTqLm/u2Ophltg
rSMPv8+OcbYD+aK234EsrbT7LqXE/N4xE6f5heq+a/Cfkf1ygb4J/M5XC1sTFc5O
9POZWmRUthvrWjtGBgA6sBOKl3bBi2Ic4fgs8PgMzGi69PZl6nnHUzIBJ0uoqWqJ
DqsFrQpkApGcjS+4OokEQcM9myroo+x5cn9CILQymiYYsg6O4ATnsyuH+mUdw7kz
8lWduZTr22wXU0HiuVlJvlpmutATNf3XS/GmsJSk4NC0sMkCCBC2w+YXJykuHr9X
fRTmNeaAd5Fa/UpnORQr1Z1utPY6jZhdFPHjIQ5fLUjpQ3yT6RD6WnAaJiX7xKGq
JkGIq/49UIJtGWCwhpYOPw2IIkOG+flXfe89GjZJa+kEo3yFUPTWDgqonP9KgCOT
tsDTv2blH4xqifxemr96MLFC+08YbCRfKXo9DIjlhBDqXmPdnhAcbYGEI/S8Ow+9
PaG3jiM0AlAXV6607Ni3juOoS7e0LNUDh/uyBLr8OFAmPVLmHHEdwpVglHpQzOTh
qFei1LhZqkjLq52EqXfJCVpHb6pD4WyQXzYe0/XeyCKkQQn+Ku5UhZSNzRE43VdN
QwnuKF71epCI0mx+lkJPxQl/5LIhtbx+3OKBmUUCU1Bk46+hdVL4
-----END CERTIFICATE-----
