Certificate:
    Data:
        Version: 3 (0x2)
        Serial Number: 5436585491840011582 (0x4b72a1b3582a8d3e)
    Signature Algorithm: sha512WithRSAEncryption
        Issuer: C=CH, ST=Zug, L=Zug, O=Perfect Privacy, CN=Perfect Privacy/emailAddress=admin@perfect-privacy.com
        Validity
            Not Before: May 26 00:00:00 2024 GMT
            Not After : Jan 21 00:00:00 2026 GMT
        Subject: C=CH, ST=Zug, O=Perfect Privacy, CN=Client_amsterdam.perfect-privacy.com/emailAddress=admin@perfect-privacy.com
        Subject Public Key Info:
            Public Key Algorithm: rsaEncryption
                Public-Key: (4096 bit)
                Modulus:
                    00:c3:f5:94:56:03:3c:a6:38:e9:3e:8f:ea:45:4e:
                    38:10:2f:99:80:1d:77:14:a2:f7:fb:a0:47:ae:5d:
                    d7:32:4a:fc:8c:94:c1:6f:ac:4d:2f:b7:cf:6d:5e:
                    9b:14:bc:ad:3a:76:83:9f:53:dd:0e:03:78:1f:8c:
                    3e:90:b4:0f:b6:c9:43:35:e5:11:db:c9:33:be:f6:
                    46:21:5d:8e:bc:58:94:c8:c5:e7:bd:60:88:11:36:
                    0e:90:b6:de:a8:d5:69:f3:06:73:8a:c3:72:8d:83:
                    35:64:8d:58:81:14:69:15:f6:ab:67:43:b9:dd:94:
                    e4:8c:3f:82:23:94:bf:a7:bc:08:bb:55:49:38:7e:
                    85:9f:45:8e:0f:2f:b8:2a:d5:81:20:65:59:f6:f0:
                    87:97:95:c7:11:e1:56:11:08:8e:9a:30:78:95:51:
                    8d:8d:e0:f5:3f:5b:34:65:42:ca:ca:c8:21:62:2b:
                    0b:12:8a:64:d3:79:fd:cc:cd:13:e0:31:73:29:9c:
                    83:6b:25:44:d2:e2:62:54:7e:8f:4a:00:18:6a:3f:
                    09:d8:d7:bb:99:09:29:04:1c:a7:a6:4a:25:28:4e:
                    62:ee:1d:ef:8d:7d:8d:24:5f:df:c3:e3:bd:ce:07:
                    87:c0:a2:4f:9c:49:07:4c:b4:05:83:9b:f5:6a:a1:
                    a2:92:61:7f:f7:74:c1:91:01:09:d0:b8:f4:3f:df:
                    09:4c:79:ff:5e:b5:82:c5:9f:f2:43:3b:48:f9:4c:
                    c7:47:72:d7:6b:de:ff:7e:84:1c:4a:d7:86:67:7d:
                    34:ab:19:34:02:39:da:37:7b:fe:41:c5:5f:91:1c:
                    a6:bb:53:5a:68:3d:d1:3c:95:b9:75:16:d4:b3:cc:
                    86:63:88:06:01:d3:23:45:3a:84:d8:2d:76:37:44:
                    c5:bc:83:2f:fd:48:a9:dd:49:f2:be:72:f8:e6:53:
                    6d:5d:26:89:06:51:17:b4:92:9d:67:53:7c:4d:08:
                    06:7a:b2:b8:ad:f3:17:66:56:90:1d:6c:72:87:9a:
                    53:ae:f0:e2:2d:f9:52:da:86:20:aa:f9:5e:7a:8f:
                    5d:e6:d0:01:e9:d0:db:a0:aa:20:6e:95:b4:49:7c:
                    30:09:16:e4:83:8b:fb:50:33:50:46:45:7e:96:cc:
                    8a:80:1a:8f:0a:94:de:ab:14:67:ff:e7:eb:dd:03:
                    c4:17:48:7c:ce:ad:44:44:ac:e4:99:2c:89:19:30:
                    97:e6:87:2a:f2:58:61:97:3c:fb:72:ba:93:33:35:
                    c6:4b:c1:16:d6:6f:84:97:57:ae:6f:49:00:74:62:
                    3b:1f:54:22:13:d6:01:43:44:0d:e2:13:5e:0c:5f:
                    8a:b0:c1
                Exponent: 65537 (0x10001)
        X509v3 extensions:
            X509v3 Basic Constraints: 
                CA:FALSE
            Netscape Comment: 
                VPN User Certificate
            Netscape Cert Type: 
                SSL Client
            X509v3 Key Usage: 
                Digital Signature
            X509v3 Extended Key Usage: 
                TLS Web Client Authentication
            X509v3 Subject Key Identifier: 
                D1:6D:23:3A:8D:95:A7:60:AE:BB:2F:EA:AC:AB:FF:4B:B1:2D:05:31
            X509v3 Authority Key Identifier: 
                keyid:86:4F:B8:6D:18:2A:1B:3C:8F:27:34:29:F0:81:9F:BA:6E:61:0E:E1
                DirName:/C=CH/ST=Zug/L=Zug/O=Perfect Privacy/CN=Perfect Privacy/emailAddress=admin@perfect-privacy.com
                serial:FA:11:B5:C4:AA:69:AF:69

    Signature Algorithm: sha512WithRSAEncryption
         07:6b:1d:00:d4:6c:ee:2e:d1:5e:df:de:de:1a:96:06:21:64:
         55:e5:16:33:cd:65:9d:b3:da:12:ed:47:b5:7a:2c:a7:12:9a:
         af:ab:50:1d:9e:ec:a5:f5:17:11:2a:fd:f1:01:7d:98:ff:7f:
         e9:21:cc:94:52:d0:f0:b4:c7:b8:d9:36:d3:00:69:93:4e:7e:
         93:5a:52:8a:c9:2f:b5:1a:b1:6f:cf:21:89:78:17:6a:2c:f1:
         29:af:54:5a:31:77:12:a3:9f:da:d0:38:1d:55:af:8d:1a:52:
         fe:20:b9:30:6f:62:9b:4a:e0:71:a0:6c:91:df:fc:3b:e6:5f:
         b2:23:d8:62:79:81:3f:76:c6:39:62:b3:d6:65:0d:2c:cd:5f:
         d3:81:36:38:fb:72:73:12:13:83:4b:f6:51:7a:f2:a6:bc:8b:
         49:b4:7f:b3:55:b9:4d:43:57:b2:a2:69:5a:0a:77:30:3d:47:
         79:d3:51:d8:7a:eb:7c:4a:26:53:7b:6c:87:90:8b:6f:1a:32:
         6e:a7:1e:b4:e4:76:c0:46:ac:80:24:80:a4:68:33:25:50:6b:
         98:ff:5d:2d:cc:b3:29:f1:f7:ad:55:45:99:23:1a:a6:c1:9d:
         34:11:48:84:66:7b:49:28:63:c1:3e:2d:05:98:bd:9c:87:61:
         53:b3:cb:fd:cf:cc:10:39:11:26:01:29:44:4b:8c:47:4a:71:
         f1:ae:17:06:83:77:fe:4b:46:ff:e4:03:8e:2b:94:06:99:a2:
         f6:ae:c2:aa:25:4d:5b:a0:91:c3:e0:80:c8:f7:e9:59:85:2d:
         20:28:92:9f:f4:72:09:78:f1:ac:c8:17:68:00:71:f8:69:d2:
         6c:a6:ed:4c:10:d4:d0:09:d6:96:a9:42:d4:e9:65:e9:ff:67:
         bd:1e:b0:8b:6f:43:5f:f7:7e:a7:a9:89:c9:85:41:f3:24:01:
         a2:a1:59:a3:a1:6b:1a:52:87:25:d9:32:3f:5f:80:23:cd:fe:
         d0:88:08:17:72:a6:e8:e2:7d:98:cf:27:3c:b6:66:a8:41:58:
         93:7f:36:9d:50:76:e2:f3:55:e9:d7:d5:90:a0:a0:8f:f0:86:
         8b:bb:b2:e6:db:b4:85:1d:7d:a6:36:dc:f7:02:5b:c4:2b:a9:
         d9:ac:8d:e8:18:03:65:60:f2:66:6b:04:6d:2c:4e:2f:c3:ce:
         ad:0f:a8:e3:09:e0:d1:d7:0a:35:f0:93:89:87:0d:17:2c:bf:
         c9:fd:48:e1:5e:ce:3f:8d:38:5e:3d:81:76:1f:f2:f8:bb:2e:
         1e:ca:0d:54:30:6c:a1:c6:4b:be:5b:da:34:6f:97:12:07:cc:
         d1:a0:34:e0:3c:91:28:ea
-----BEGIN CERTIFICATE-----
MIIG4jCCBMqgAwIBAgIIS3Khs1gqjT4wDQYJKoZIhvcNAQENBQAwgYcxCzAJBgNV
BAYTAkNIMQwwCgYDVQQIEwNadWcxDDAKBgNVBAcTA1p1ZzEYMBYGA1UEChMPUGVy
ZmVjdCBQcml2YWN5MRgwFgYDVQQDEw9QZXJmZWN0IFByaXZhY3kxKDAmBgkqhkiG
9w0BCQEWGWFkbWluQHBlcmZlY3QtcHJpdmFjeS5jb20wHhcNMjQwNTI2MDAwMDAw
WhcNMjYwMTIxMDAwMDAwWjCBjjELMAkGA1UEBhMCQ0gxDDAKBgNVBAgTA1p1ZzEY
MBYGA1UEChMPUGVyZmVjdCBQcml2YWN5MS0wKwYDVQQDFCRDbGllbnRfYW1zdGVy
ZGFtLnBlcmZlY3QtcHJpdmFjeS5jb20xKDAmBgkqhkiG9w0BCQEWGWFkbWluQHBl
cmZlY3QtcHJpdmFjeS5jb20wggIiMA0GCSqGSIb3DQEBAQUAA4ICDwAwggIKAoIC
AQDD9ZRWAzymOOk+j+pFTjgQL5mAHXcUovf7oEeuXdcySvyMlMFvrE0vt89tXpsU
vK06doOfU90OA3gfjD6QtA+2yUM15RHbyTO+9kYhXY68WJTIxee9YIgRNg6Qtt6o
1WnzBnOKw3KNgzVkjViBFGkV9qtnQ7ndlOSMP4IjlL+nvAi7VUk4foWfRY4PL7gq
1YEgZVn28IeXlccR4VYRCI6aMHiVUY2N4PU/WzRlQsrKyCFiKwsSimTTef3MzRPg
MXMpnINrJUTS4mJUfo9KABhqPwnY17uZCSkEHKemSiUoTmLuHe+NfY0kX9/D473O
B4fAok+cSQdMtAWDm/VqoaKSYX/3dMGRAQnQuPQ/3wlMef9etYLFn/JDO0j5TMdH
ctdr3v9+hBxK14ZnfTSrGTQCOdo3e/5BxV+RHKa7U1poPdE8lbl1FtSzzIZjiAYB
0yNFOoTYLXY3RMW8gy/9SKndSfK+cvjmU21dJokGURe0kp1nU3xNCAZ6srit8xdm
VpAdbHKHmlOu8OIt+VLahiCq+V56j13m0AHp0NugqiBulbRJfDAJFuSDi/tQM1BG
RX6WzIqAGo8KlN6rFGf/5+vdA8QXSHzOrURErOSZLIkZMJfmhyryWGGXPPtyupMz
NcZLwRbWb4SXV65vSQB0YjsfVCIT1gFDRA3iE14MX4qwwQIDAQABo4IBRzCCAUMw
CQYDVR0TBAIwADAjBglghkgBhvhCAQ0EFhYUVlBOIFVzZXIgQ2VydGlmaWNhdGUw
EQYJYIZIAYb4QgEBBAQDAgeAMAsGA1UdDwQEAwIHgDATBgNVHSUEDDAKBggrBgEF
BQcDAjAdBgNVHQ4EFgQU0W0jOo2Vp2Cuuy/qrKv/S7EtBTEwgbwGA1UdIwSBtDCB
sYAUhk+4bRgqGzyPJzQp8IGfum5hDuGhgY2kgYowgYcxCzAJBgNVBAYTAkNIMQww
CgYDVQQIEwNadWcxDDAKBgNVBAcTA1p1ZzEYMBYGA1UEChMPUGVyZmVjdCBQcml2
YWN5MRgwFgYDVQQDEw9QZXJmZWN0IFByaXZhY3kxKDAmBgkqhkiG9w0BCQEWGWFk
bWluQHBlcmZlY3QtcHJpdmFjeS5jb22CCQD6EbXEqmmvaTANBgkqhkiG9w0BAQ0F
AAOCAgEAB2sdANRs7i7RXt/e3hqWBiFkVeUWM81lnbPaEu1HtXospxKar6tQHZ7s
pfUXESr98QF9mP9/6SHMlFLQ8LTHuNk20wBpk05+k1pSiskvtRqxb88hiXgXaizx
Ka9UWjF3EqOf2tA4HVWvjRpS/iC5MG9im0rgcaBskd/8O+ZfsiPYYnmBP3bGOWKz
1mUNLM1f04E2OPtycxITg0v2UXrypryLSbR/s1W5TUNXsqJpWgp3MD1HedNR2Hrr
fEomU3tsh5CLbxoybqcetOR2wEasgCSApGgzJVBrmP9dLcyzKfH3rVVFmSMapsGd
NBFIhGZ7SShjwT4tBZi9nIdhU7PL/c/MEDkRJgEpREuMR0px8a4XBoN3/ktG/+QD
jiuUBpmi9q7CqiVNW6CRw+CAyPfpWYUtICiSn/RyCXjxrMgXaABx+GnSbKbtTBDU
0AnWlqlC1Oll6f9nvR6wi29DX/d+p6mJyYVB8yQBoqFZo6FrGlKHJdkyP1+AI83+
0IgIF3Km6OJ9mM8nPLZmqEFYk382nVB24vNV6dfVkKCgj/CGi7uy5tu0hR19pjbc
9wJbxCup2ayN6BgDZWDyZmsEbSxOL8POrQ+o4wng0dcKNfCTiYcNFyy/yf1I4V7O
P404Xj2Bdh/y+LsuHsoNVDBsocZLvlvaNG+XEgfM0aA04DyRKOo=
-----END CERTIFICATE-----
