Certificate:
    Data:
        Version: 3 (0x2)
        Serial Number:
            85:7b:8a:e6:a5:0e:b1:c7
    Signature Algorithm: sha512WithRSAEncryption
        Issuer: C=CH, ST=Zug, L=Zug, O=Perfect Privacy, CN=Perfect Privacy/emailAddress=admin@perfect-privacy.com
        Validity
            Not Before: Dec 18 00:00:00 2022 GMT
            Not After : Aug 14 00:00:00 2024 GMT
        Subject: C=CH, ST=Zug, O=Perfect Privacy, CN=Client_amsterdam.perfect-privacy.com/emailAddress=admin@perfect-privacy.com
        Subject Public Key Info:
            Public Key Algorithm: rsaEncryption
                Public-Key: (4096 bit)
                Modulus:
                    00:d8:4c:a2:bd:77:0e:d7:41:51:d7:e7:12:58:e2:
                    85:f7:b1:56:da:c4:90:c2:19:29:71:c7:97:3b:f2:
                    ef:8d:98:b7:3f:63:93:e0:d5:85:ab:87:9a:ff:2b:
                    85:a7:ce:20:c8:25:5b:b7:24:7e:bb:23:77:00:7c:
                    98:2a:66:24:9a:a8:35:61:db:4c:7f:33:68:cf:65:
                    fb:b0:17:26:96:d0:30:d8:ac:0a:d3:04:82:c0:a2:
                    50:23:20:a4:16:4c:1f:0a:3e:d6:c7:e6:77:4e:c9:
                    d0:8b:5e:a8:e7:83:8e:01:2c:3d:4c:ab:ee:61:db:
                    b5:61:69:8a:25:cb:d1:c6:ef:c6:b1:57:ad:13:19:
                    cc:1d:86:38:f0:d0:11:92:d5:9c:4e:fa:9b:46:67:
                    13:58:e8:c9:1c:97:65:ec:3f:a1:ee:1a:73:a5:fe:
                    a1:82:1d:e0:25:4d:ab:23:7d:6b:65:55:6a:d2:8d:
                    88:ed:c9:9e:94:e3:15:e1:36:fb:5f:35:7d:e7:77:
                    df:d5:9b:51:8b:b6:77:56:c3:67:af:5a:fb:5c:7f:
                    e8:3d:c4:a6:2a:73:e8:46:5e:b2:58:e4:cf:9d:50:
                    a5:df:ad:56:3d:f9:60:b1:a4:cb:ce:5c:4d:9f:6b:
                    94:b5:db:f1:da:4c:8b:90:15:d8:1b:4a:4e:ea:5d:
                    a8:07:a3:68:ea:66:e7:06:28:eb:c9:76:fe:87:24:
                    d2:73:74:1d:5b:5f:fe:c6:3e:e2:a8:c0:e0:ce:f9:
                    69:de:47:08:6c:f1:25:10:fc:3a:45:62:8d:73:a4:
                    c5:5b:0e:ba:60:86:09:09:8b:82:ff:01:6d:90:3f:
                    57:59:ad:e3:00:1c:7e:94:be:6a:4a:9f:cf:9e:86:
                    e6:ae:44:cd:df:d7:28:0e:8f:15:46:b6:64:36:e7:
                    7e:81:ee:22:08:9e:de:c3:48:ff:df:97:a7:21:00:
                    4d:8d:60:e0:32:62:13:c8:e3:db:a4:8b:eb:fa:92:
                    73:a8:64:bd:14:35:11:eb:cd:be:09:cd:5c:d2:33:
                    c6:a3:83:eb:37:bd:29:0a:9d:c7:db:4b:d1:97:4f:
                    8e:34:62:32:07:7b:e8:a9:d5:2d:c5:65:e4:e0:48:
                    22:ef:51:1d:12:78:b1:78:e3:73:eb:60:8a:47:e4:
                    0e:8d:05:fa:28:28:25:16:9d:39:3d:a2:46:40:5e:
                    f5:79:2e:dc:0d:fd:37:d7:74:1a:60:b7:bf:1c:50:
                    e6:ec:78:0e:ac:77:ef:86:4d:29:83:46:97:2d:19:
                    89:5b:45:5f:94:2d:79:22:4f:df:f6:3c:70:75:d9:
                    46:cb:40:b2:f9:8e:af:fb:ac:89:74:2d:b3:d2:76:
                    cc:a2:c9
                Exponent: 65537 (0x10001)
        X509v3 extensions:
            X509v3 Basic Constraints: 
                CA:FALSE
            Netscape Comment: 
                VPN User Certificate
            Netscape Cert Type: 
                SSL Client
            X509v3 Key Usage: 
                Digital Signature
            X509v3 Extended Key Usage: 
                TLS Web Client Authentication
            X509v3 Subject Key Identifier: 
                D7:D9:E0:D6:6A:0F:32:0C:4E:83:0B:BF:36:0A:39:8C:06:DF:CF:29
            X509v3 Authority Key Identifier: 
                keyid:86:4F:B8:6D:18:2A:1B:3C:8F:27:34:29:F0:81:9F:BA:6E:61:0E:E1
                DirName:/C=CH/ST=Zug/L=Zug/O=Perfect Privacy/CN=Perfect Privacy/emailAddress=admin@perfect-privacy.com
                serial:FA:11:B5:C4:AA:69:AF:69

    Signature Algorithm: sha512WithRSAEncryption
         28:df:b5:b2:b5:f6:d6:35:42:ff:4c:d3:ab:5f:aa:9f:db:e8:
         98:c2:bc:c5:ec:fd:71:04:90:fe:3c:e6:b9:12:0e:ae:c9:29:
         ba:b6:6a:c0:81:fe:86:6c:2e:f7:38:61:61:62:3e:11:46:a0:
         2f:18:f3:f7:e0:02:7f:54:98:d3:55:68:f1:fb:7e:37:ea:ce:
         a2:f9:35:b6:65:f9:dc:2d:74:1a:48:34:91:e4:12:30:7e:9a:
         20:99:2d:d2:63:a2:51:a6:07:df:89:d0:23:e0:42:a1:01:c9:
         ec:f2:10:d1:dc:f6:22:8d:0b:cc:00:8e:fa:98:bb:42:b5:3b:
         8b:c9:2a:e7:9d:ce:11:27:80:bf:1f:fc:1a:d2:ed:61:23:6b:
         9b:7b:22:4f:25:2e:9f:4d:d7:87:ed:87:c7:2d:74:94:f6:28:
         0b:2f:43:21:dc:6e:8e:e7:79:1d:ea:ad:2a:2a:ee:69:f9:a9:
         2f:61:3f:30:9e:8f:32:59:7b:95:2e:23:70:3d:b1:fd:68:4c:
         80:3d:e8:24:27:dc:f3:7e:4e:f4:9f:08:31:b9:08:ec:3c:a2:
         2b:13:e5:bb:5d:7e:ed:44:d6:ed:64:88:3f:67:3d:1d:35:6b:
         27:0a:12:ea:ea:ec:99:02:0c:62:f4:d6:1d:6f:51:24:8c:40:
         de:74:66:f6:7b:20:3c:ef:a0:70:d3:7d:3f:fa:dc:d3:93:8f:
         0c:af:69:86:8a:ce:f4:63:9b:a6:09:96:0e:d3:cd:d8:a9:2e:
         f6:9d:19:96:32:b3:49:c2:4a:a0:e5:0d:f1:a0:1b:6a:45:fb:
         35:4f:20:b8:8e:75:3f:14:98:11:6b:b2:40:a0:91:1d:fd:50:
         03:ed:d3:f7:d9:9b:66:8d:a1:34:93:43:96:11:c5:be:59:0d:
         89:91:b5:69:34:b5:6c:2d:cf:a5:30:8b:7c:49:44:a9:7e:2a:
         69:71:de:7b:93:38:52:d6:9a:e0:95:11:99:15:85:18:56:a2:
         cc:6c:fa:bd:79:82:b4:b9:b5:58:c0:08:8e:d7:f1:db:6e:ac:
         81:0f:9f:a5:d2:a6:0e:34:91:94:73:06:8c:a1:c9:55:fe:4d:
         56:b7:45:17:6b:ee:6b:6c:e8:d3:ea:fd:93:69:04:85:d1:5f:
         fe:ba:29:a9:f7:8c:d8:42:2f:cc:b5:fd:34:d9:ed:cc:59:99:
         78:d5:3a:2c:1c:21:86:9c:c5:cf:37:1f:70:e8:b6:98:c5:ab:
         6a:5a:cf:44:76:a6:23:16:1c:ad:31:d0:07:61:0c:a1:8c:ad:
         7a:37:3c:71:18:41:1f:b3:89:f3:ea:1c:03:c9:49:83:86:b2:
         6b:85:b0:87:3e:4b:54:9a
-----BEGIN CERTIFICATE-----
MIIG4zCCBMugAwIBAgIJAIV7iualDrHHMA0GCSqGSIb3DQEBDQUAMIGHMQswCQYD
VQQGEwJDSDEMMAoGA1UECBMDWnVnMQwwCgYDVQQHEwNadWcxGDAWBgNVBAoTD1Bl
cmZlY3QgUHJpdmFjeTEYMBYGA1UEAxMPUGVyZmVjdCBQcml2YWN5MSgwJgYJKoZI
hvcNAQkBFhlhZG1pbkBwZXJmZWN0LXByaXZhY3kuY29tMB4XDTIyMTIxODAwMDAw
MFoXDTI0MDgxNDAwMDAwMFowgY4xCzAJBgNVBAYTAkNIMQwwCgYDVQQIEwNadWcx
GDAWBgNVBAoTD1BlcmZlY3QgUHJpdmFjeTEtMCsGA1UEAxQkQ2xpZW50X2Ftc3Rl
cmRhbS5wZXJmZWN0LXByaXZhY3kuY29tMSgwJgYJKoZIhvcNAQkBFhlhZG1pbkBw
ZXJmZWN0LXByaXZhY3kuY29tMIICIjANBgkqhkiG9w0BAQEFAAOCAg8AMIICCgKC
AgEA2EyivXcO10FR1+cSWOKF97FW2sSQwhkpcceXO/LvjZi3P2OT4NWFq4ea/yuF
p84gyCVbtyR+uyN3AHyYKmYkmqg1YdtMfzNoz2X7sBcmltAw2KwK0wSCwKJQIyCk
FkwfCj7Wx+Z3TsnQi16o54OOASw9TKvuYdu1YWmKJcvRxu/GsVetExnMHYY48NAR
ktWcTvqbRmcTWOjJHJdl7D+h7hpzpf6hgh3gJU2rI31rZVVq0o2I7cmelOMV4Tb7
XzV953ff1ZtRi7Z3VsNnr1r7XH/oPcSmKnPoRl6yWOTPnVCl361WPflgsaTLzlxN
n2uUtdvx2kyLkBXYG0pO6l2oB6No6mbnBijryXb+hyTSc3QdW1/+xj7iqMDgzvlp
3kcIbPElEPw6RWKNc6TFWw66YIYJCYuC/wFtkD9XWa3jABx+lL5qSp/PnobmrkTN
39coDo8VRrZkNud+ge4iCJ7ew0j/35enIQBNjWDgMmITyOPbpIvr+pJzqGS9FDUR
682+Cc1c0jPGo4PrN70pCp3H20vRl0+ONGIyB3voqdUtxWXk4Egi71EdEnixeONz
62CKR+QOjQX6KCglFp05PaJGQF71eS7cDf0313QaYLe/HFDm7HgOrHfvhk0pg0aX
LRmJW0VflC15Ik/f9jxwddlGy0Cy+Y6v+6yJdC2z0nbMoskCAwEAAaOCAUcwggFD
MAkGA1UdEwQCMAAwIwYJYIZIAYb4QgENBBYWFFZQTiBVc2VyIENlcnRpZmljYXRl
MBEGCWCGSAGG+EIBAQQEAwIHgDALBgNVHQ8EBAMCB4AwEwYDVR0lBAwwCgYIKwYB
BQUHAwIwHQYDVR0OBBYEFNfZ4NZqDzIMToMLvzYKOYwG388pMIG8BgNVHSMEgbQw
gbGAFIZPuG0YKhs8jyc0KfCBn7puYQ7hoYGNpIGKMIGHMQswCQYDVQQGEwJDSDEM
MAoGA1UECBMDWnVnMQwwCgYDVQQHEwNadWcxGDAWBgNVBAoTD1BlcmZlY3QgUHJp
dmFjeTEYMBYGA1UEAxMPUGVyZmVjdCBQcml2YWN5MSgwJgYJKoZIhvcNAQkBFhlh
ZG1pbkBwZXJmZWN0LXByaXZhY3kuY29tggkA+hG1xKppr2kwDQYJKoZIhvcNAQEN
BQADggIBACjftbK19tY1Qv9M06tfqp/b6JjCvMXs/XEEkP485rkSDq7JKbq2asCB
/oZsLvc4YWFiPhFGoC8Y8/fgAn9UmNNVaPH7fjfqzqL5NbZl+dwtdBpINJHkEjB+
miCZLdJjolGmB9+J0CPgQqEByezyENHc9iKNC8wAjvqYu0K1O4vJKuedzhEngL8f
/BrS7WEja5t7Ik8lLp9N14fth8ctdJT2KAsvQyHcbo7neR3qrSoq7mn5qS9hPzCe
jzJZe5UuI3A9sf1oTIA96CQn3PN+TvSfCDG5COw8oisT5btdfu1E1u1kiD9nPR01
aycKEurq7JkCDGL01h1vUSSMQN50ZvZ7IDzvoHDTfT/63NOTjwyvaYaKzvRjm6YJ
lg7TzdipLvadGZYys0nCSqDlDfGgG2pF+zVPILiOdT8UmBFrskCgkR39UAPt0/fZ
m2aNoTSTQ5YRxb5ZDYmRtWk0tWwtz6Uwi3xJRKl+Kmlx3nuTOFLWmuCVEZkVhRhW
osxs+r15grS5tVjACI7X8dturIEPn6XSpg40kZRzBoyhyVX+TVa3RRdr7mts6NPq
/ZNpBIXRX/66Kan3jNhCL8y1/TTZ7cxZmXjVOiwcIYacxc83H3DotpjFq2paz0R2
piMWHK0x0AdhDKGMrXo3PHEYQR+zifPqHAPJSYOGsmuFsIc+S1Sa
-----END CERTIFICATE-----
