Certificate:
    Data:
        Version: 3 (0x2)
        Serial Number: 3092488097819811581 (0x2aeab98a4eac5efd)
    Signature Algorithm: sha512WithRSAEncryption
        Issuer: C=CH, ST=Zug, L=Zug, O=Perfect Privacy, CN=Perfect Privacy/emailAddress=admin@perfect-privacy.com
        Validity
            Not Before: Feb 13 00:00:00 2023 GMT
            Not After : Oct 10 00:00:00 2024 GMT
        Subject: C=CH, ST=Zug, O=Perfect Privacy, CN=Client_amsterdam.perfect-privacy.com/emailAddress=admin@perfect-privacy.com
        Subject Public Key Info:
            Public Key Algorithm: rsaEncryption
                Public-Key: (4096 bit)
                Modulus:
                    00:da:a8:04:e1:25:fe:be:7e:72:ee:7b:eb:8f:c5:
                    3a:15:7b:bc:64:0b:d6:c3:ae:2c:dd:87:28:ab:ef:
                    08:f4:42:4d:ff:64:da:ec:2a:44:8f:f4:73:29:10:
                    20:79:72:22:28:42:85:bf:19:1f:1b:76:a3:2d:87:
                    ee:38:b2:fa:b2:4c:ce:90:cc:88:f2:08:7b:95:94:
                    98:b1:9e:e7:dd:b1:fe:0c:71:d7:16:22:8d:33:ed:
                    ee:2b:77:91:72:65:68:71:d5:ea:94:71:71:02:9b:
                    16:88:87:cd:4d:cc:2f:f8:01:22:41:10:13:7a:49:
                    51:09:c8:04:b5:49:d4:fe:3c:d7:a1:33:82:5e:c5:
                    cd:6f:73:54:3c:55:92:6f:32:5e:59:28:13:4c:d1:
                    53:3f:d1:94:8d:01:b7:d1:8a:57:c3:17:8f:bd:2c:
                    5a:fd:52:f2:94:ab:47:1b:f9:af:a6:c2:01:f0:c9:
                    71:55:59:20:51:b1:1e:c6:7c:ae:01:dd:65:4c:7f:
                    d1:25:1b:1a:65:c1:00:da:34:7e:92:0e:c9:40:3d:
                    70:d5:34:3a:cd:9d:63:84:9e:1b:ae:a6:32:d3:85:
                    6a:ae:d5:85:ff:03:cc:0f:ab:cd:06:af:3b:68:50:
                    ca:fd:83:07:9a:49:1c:f4:9c:4a:51:cf:70:03:3d:
                    73:52:8c:71:8a:e5:51:28:17:f7:c5:38:c4:1c:a4:
                    a1:c4:ec:2a:13:4f:db:ff:19:dc:e4:bc:ce:65:cb:
                    b9:15:36:30:90:f7:c1:a7:80:d1:9b:f6:5b:2d:06:
                    4a:e5:72:c1:1b:67:f5:7e:9b:7f:83:82:8c:94:b0:
                    8b:04:6a:95:74:b3:4b:f2:e8:6d:ff:0c:1d:00:76:
                    49:94:08:2e:72:05:c1:c6:77:34:15:1d:f4:56:40:
                    43:1a:3e:b8:a4:54:e2:db:9c:71:99:d4:2c:1a:4f:
                    4a:c7:a9:d1:e9:d1:56:70:dd:55:1f:e1:d8:68:bc:
                    3e:61:e0:07:d2:a2:62:93:53:cc:d6:b3:01:04:46:
                    f0:a7:7b:18:04:8a:6c:a6:1e:a7:67:b1:5d:8b:32:
                    e0:a7:53:d0:57:af:af:77:d2:98:5d:57:2b:40:7f:
                    2e:c8:4d:e8:c8:16:a8:9b:e0:aa:e5:89:33:03:75:
                    18:20:37:be:03:c4:23:51:aa:67:6c:f5:d4:c9:48:
                    f0:32:10:ef:02:86:b5:9f:d0:cf:af:ba:e0:1b:3c:
                    89:0d:bd:0d:65:fc:09:37:89:30:38:93:21:6b:e3:
                    37:4b:16:9e:a2:8a:a2:f1:13:40:5e:9d:79:ac:b8:
                    29:5e:d9:0e:d4:59:6c:47:b3:8c:ee:60:33:00:2e:
                    27:d1:45
                Exponent: 65537 (0x10001)
        X509v3 extensions:
            X509v3 Basic Constraints: 
                CA:FALSE
            Netscape Comment: 
                VPN User Certificate
            Netscape Cert Type: 
                SSL Client
            X509v3 Key Usage: 
                Digital Signature
            X509v3 Extended Key Usage: 
                TLS Web Client Authentication
            X509v3 Subject Key Identifier: 
                99:5E:7A:50:1D:E2:F7:C2:21:20:1C:BB:B5:06:21:F8:16:D7:BA:A8
            X509v3 Authority Key Identifier: 
                keyid:86:4F:B8:6D:18:2A:1B:3C:8F:27:34:29:F0:81:9F:BA:6E:61:0E:E1
                DirName:/C=CH/ST=Zug/L=Zug/O=Perfect Privacy/CN=Perfect Privacy/emailAddress=admin@perfect-privacy.com
                serial:FA:11:B5:C4:AA:69:AF:69

    Signature Algorithm: sha512WithRSAEncryption
         67:d1:88:14:a9:e6:21:bb:06:c6:70:29:66:ca:21:d0:3f:79:
         e9:5f:31:26:57:79:76:b3:66:ed:d3:f9:ea:e6:bb:a9:b5:e3:
         a2:b9:1f:ed:e1:3b:61:32:dd:1b:39:f0:51:ac:e1:15:60:cc:
         89:5d:5d:25:66:4b:21:48:c4:ea:41:00:3d:b6:25:b4:7c:86:
         f1:d7:a8:76:a3:2b:d8:2c:bd:35:2c:d9:ef:1c:04:d0:db:55:
         9d:b0:32:cf:7a:0c:bd:ad:fe:7a:03:92:41:95:c4:d2:3d:61:
         98:8d:ba:ac:b6:ae:ec:a4:80:01:88:39:b5:38:76:a5:e6:7d:
         1b:95:80:c0:c5:89:a3:e3:3b:44:3b:ac:55:4a:d6:43:6a:85:
         03:a4:60:6c:90:3d:56:f5:bf:80:93:3d:34:57:79:bc:34:28:
         5a:85:6f:fc:77:2b:27:9e:04:48:66:e3:c6:2f:0c:58:36:e9:
         13:0d:cd:62:fc:16:a3:45:57:8f:f8:6a:26:04:bf:3a:fb:65:
         72:9f:26:7b:f6:69:90:91:be:d6:95:82:df:45:71:a7:66:a0:
         a0:f5:d2:5a:bc:62:cf:ea:2f:e2:bd:9d:9c:69:8f:1f:5a:51:
         72:94:e6:cc:c9:86:b1:c7:b0:06:73:f1:97:ae:ab:ee:d5:12:
         cf:08:1a:5c:f0:81:a3:a2:ec:1f:4a:fd:7b:5b:1a:b0:24:ad:
         29:1d:a2:15:be:15:d3:ac:76:01:db:1f:ba:5c:67:a1:c8:05:
         77:6b:e0:8a:2d:24:d2:ff:c9:ef:33:e3:03:b1:87:24:53:c8:
         3b:91:21:99:fe:ae:75:c9:17:37:f1:a4:75:d7:fe:93:37:ed:
         d1:95:37:68:57:58:a9:32:de:5b:30:7a:8e:55:e0:d5:1a:c8:
         5e:6b:30:70:ca:7a:41:c4:62:40:dc:f0:87:22:e9:20:6e:56:
         1d:ae:cd:ca:8c:bd:d1:0b:59:81:ff:12:83:90:24:32:85:c0:
         71:cb:b0:83:3f:6b:89:6d:3f:2a:37:28:12:1b:56:be:9e:6d:
         d3:42:fb:0c:79:a3:7f:0b:92:8a:4f:7b:e0:d6:d0:dc:05:70:
         4a:90:40:4c:97:5b:7e:38:97:39:c1:80:da:8a:5b:56:8b:95:
         7a:3e:60:80:74:04:50:dd:cb:fe:0a:04:d6:b9:7b:3f:3c:0c:
         19:17:9b:67:a0:0e:4e:ae:e6:ee:7a:6d:ff:37:a0:51:3e:1e:
         21:b9:fd:c8:8f:04:68:b3:7d:34:03:7f:04:c1:60:b7:9f:54:
         ac:f9:74:3f:b5:93:e8:de:f1:a6:59:7e:d5:6d:bf:dd:e2:e8:
         1b:cf:2e:f2:0c:f4:3d:e5
-----BEGIN CERTIFICATE-----
MIIG4jCCBMqgAwIBAgIIKuq5ik6sXv0wDQYJKoZIhvcNAQENBQAwgYcxCzAJBgNV
BAYTAkNIMQwwCgYDVQQIEwNadWcxDDAKBgNVBAcTA1p1ZzEYMBYGA1UEChMPUGVy
ZmVjdCBQcml2YWN5MRgwFgYDVQQDEw9QZXJmZWN0IFByaXZhY3kxKDAmBgkqhkiG
9w0BCQEWGWFkbWluQHBlcmZlY3QtcHJpdmFjeS5jb20wHhcNMjMwMjEzMDAwMDAw
WhcNMjQxMDEwMDAwMDAwWjCBjjELMAkGA1UEBhMCQ0gxDDAKBgNVBAgTA1p1ZzEY
MBYGA1UEChMPUGVyZmVjdCBQcml2YWN5MS0wKwYDVQQDFCRDbGllbnRfYW1zdGVy
ZGFtLnBlcmZlY3QtcHJpdmFjeS5jb20xKDAmBgkqhkiG9w0BCQEWGWFkbWluQHBl
cmZlY3QtcHJpdmFjeS5jb20wggIiMA0GCSqGSIb3DQEBAQUAA4ICDwAwggIKAoIC
AQDaqAThJf6+fnLue+uPxToVe7xkC9bDrizdhyir7wj0Qk3/ZNrsKkSP9HMpECB5
ciIoQoW/GR8bdqMth+44svqyTM6QzIjyCHuVlJixnufdsf4McdcWIo0z7e4rd5Fy
ZWhx1eqUcXECmxaIh81NzC/4ASJBEBN6SVEJyAS1SdT+PNehM4Jexc1vc1Q8VZJv
Ml5ZKBNM0VM/0ZSNAbfRilfDF4+9LFr9UvKUq0cb+a+mwgHwyXFVWSBRsR7GfK4B
3WVMf9ElGxplwQDaNH6SDslAPXDVNDrNnWOEnhuupjLThWqu1YX/A8wPq80Grzto
UMr9gweaSRz0nEpRz3ADPXNSjHGK5VEoF/fFOMQcpKHE7CoTT9v/GdzkvM5ly7kV
NjCQ98GngNGb9lstBkrlcsEbZ/V+m3+DgoyUsIsEapV0s0vy6G3/DB0AdkmUCC5y
BcHGdzQVHfRWQEMaPrikVOLbnHGZ1CwaT0rHqdHp0VZw3VUf4dhovD5h4AfSomKT
U8zWswEERvCnexgEimymHqdnsV2LMuCnU9BXr6930phdVytAfy7ITejIFqib4Krl
iTMDdRggN74DxCNRqmds9dTJSPAyEO8ChrWf0M+vuuAbPIkNvQ1l/Ak3iTA4kyFr
4zdLFp6iiqLxE0BenXmsuCle2Q7UWWxHs4zuYDMALifRRQIDAQABo4IBRzCCAUMw
CQYDVR0TBAIwADAjBglghkgBhvhCAQ0EFhYUVlBOIFVzZXIgQ2VydGlmaWNhdGUw
EQYJYIZIAYb4QgEBBAQDAgeAMAsGA1UdDwQEAwIHgDATBgNVHSUEDDAKBggrBgEF
BQcDAjAdBgNVHQ4EFgQUmV56UB3i98IhIBy7tQYh+BbXuqgwgbwGA1UdIwSBtDCB
sYAUhk+4bRgqGzyPJzQp8IGfum5hDuGhgY2kgYowgYcxCzAJBgNVBAYTAkNIMQww
CgYDVQQIEwNadWcxDDAKBgNVBAcTA1p1ZzEYMBYGA1UEChMPUGVyZmVjdCBQcml2
YWN5MRgwFgYDVQQDEw9QZXJmZWN0IFByaXZhY3kxKDAmBgkqhkiG9w0BCQEWGWFk
bWluQHBlcmZlY3QtcHJpdmFjeS5jb22CCQD6EbXEqmmvaTANBgkqhkiG9w0BAQ0F
AAOCAgEAZ9GIFKnmIbsGxnApZsoh0D956V8xJld5drNm7dP56ua7qbXjorkf7eE7
YTLdGznwUazhFWDMiV1dJWZLIUjE6kEAPbYltHyG8deodqMr2Cy9NSzZ7xwE0NtV
nbAyz3oMva3+egOSQZXE0j1hmI26rLau7KSAAYg5tTh2peZ9G5WAwMWJo+M7RDus
VUrWQ2qFA6RgbJA9VvW/gJM9NFd5vDQoWoVv/HcrJ54ESGbjxi8MWDbpEw3NYvwW
o0VXj/hqJgS/Ovtlcp8me/ZpkJG+1pWC30Vxp2agoPXSWrxiz+ov4r2dnGmPH1pR
cpTmzMmGscewBnPxl66r7tUSzwgaXPCBo6LsH0r9e1sasCStKR2iFb4V06x2Adsf
ulxnocgFd2vgii0k0v/J7zPjA7GHJFPIO5Ehmf6udckXN/Gkddf+kzft0ZU3aFdY
qTLeWzB6jlXg1RrIXmswcMp6QcRiQNzwhyLpIG5WHa7Nyoy90QtZgf8Sg5AkMoXA
ccuwgz9riW0/KjcoEhtWvp5t00L7DHmjfwuSik974NbQ3AVwSpBATJdbfjiXOcGA
2opbVouVej5ggHQEUN3L/goE1rl7PzwMGRebZ6AOTq7m7npt/zegUT4eIbn9yI8E
aLN9NAN/BMFgt59UrPl0P7WT6N7xpll+1W2/3eLoG88u8gz0PeU=
-----END CERTIFICATE-----
