Certificate:
    Data:
        Version: 3 (0x2)
        Serial Number:
            c0:3f:b4:ad:b7:fe:46:3f
    Signature Algorithm: sha512WithRSAEncryption
        Issuer: C=CH, ST=Zug, L=Zug, O=Perfect Privacy, CN=Perfect Privacy/emailAddress=admin@perfect-privacy.com
        Validity
            Not Before: May 10 00:00:00 2024 GMT
            Not After : Jan  5 00:00:00 2026 GMT
        Subject: C=CH, ST=Zug, O=Perfect Privacy, CN=Client_basel.perfect-privacy.com/emailAddress=admin@perfect-privacy.com
        Subject Public Key Info:
            Public Key Algorithm: rsaEncryption
                Public-Key: (4096 bit)
                Modulus:
                    00:a2:22:d9:96:8e:a4:81:2e:80:22:0e:9a:b7:7b:
                    c4:ee:8e:78:c5:e9:ba:e1:32:c7:c4:d6:3b:4e:c5:
                    27:00:9c:68:ab:d9:8a:93:4f:3c:ee:72:92:3f:df:
                    81:0a:51:ba:4d:ca:57:b5:9b:32:e1:d8:44:19:db:
                    04:0a:ec:b4:e3:de:8c:0c:29:35:c3:2a:9c:16:dc:
                    44:d2:b1:66:af:87:60:0e:4e:a7:1f:f5:6a:73:d7:
                    3c:2d:4e:41:e4:d1:4a:bb:8b:ca:bb:1d:17:74:17:
                    82:e3:ba:c1:93:e9:e6:2a:5f:29:d4:82:84:e6:20:
                    4e:df:87:45:b0:e1:6c:84:b1:7f:c7:8a:0d:e3:c0:
                    c3:35:87:2e:27:5d:47:aa:92:f7:6d:7c:92:41:6f:
                    26:48:53:62:21:c2:d4:39:d5:e7:86:db:c0:03:87:
                    37:d9:1e:4f:ca:16:20:48:26:75:f1:a5:07:1e:34:
                    06:53:2f:00:8d:b6:df:f4:2b:ef:db:96:c0:88:5e:
                    ed:da:3d:2a:e2:52:f2:a2:13:64:72:3a:58:b4:49:
                    c3:a2:85:9f:05:4b:6e:b7:f7:09:1a:b5:12:eb:d5:
                    fb:ca:42:2a:f2:97:57:77:78:38:ea:6a:36:d4:29:
                    4d:78:2b:9a:eb:ff:1d:5b:74:89:7b:3a:26:c1:99:
                    d7:b3:72:0d:61:ca:50:f0:ec:86:0e:25:93:14:4f:
                    d8:95:b1:41:f8:20:fb:43:15:70:cb:5c:d1:5b:97:
                    95:21:91:11:1c:28:65:4c:93:d4:6d:0c:82:84:63:
                    ab:2f:53:61:32:1b:63:cf:ce:83:7a:6a:42:5b:f4:
                    e1:5b:de:2c:ff:ee:ca:6e:bc:9f:7e:fe:55:d8:b7:
                    fe:5a:41:d2:89:5e:43:85:61:46:04:8e:03:17:9d:
                    e1:d2:13:62:4e:bd:47:91:c3:86:5d:78:05:c3:27:
                    d1:e3:a2:30:28:07:08:a8:95:73:5c:d5:46:5a:3a:
                    f3:02:93:84:c5:b1:f9:57:e8:01:5f:0e:d7:0e:3d:
                    e7:46:57:ad:63:31:40:79:d6:2c:67:54:a2:69:3f:
                    e5:d1:0b:01:2e:3b:0f:d9:2b:5d:87:ef:57:28:53:
                    0d:71:8d:05:9b:f8:67:e0:1a:ca:80:8d:28:f7:c4:
                    79:06:7f:07:e0:9e:ea:ac:ca:48:d4:12:43:95:ed:
                    8a:02:28:71:0c:a3:82:a1:20:54:5b:49:5f:63:11:
                    6b:30:70:66:7e:10:b1:c6:f9:10:c3:b7:70:1f:7d:
                    1e:4a:2a:69:b3:ec:94:b4:b8:c5:2e:d3:d9:1b:71:
                    ac:a9:14:94:85:fd:85:38:c8:e6:7a:a8:05:44:cf:
                    a7:6c:5d
                Exponent: 65537 (0x10001)
        X509v3 extensions:
            X509v3 Basic Constraints: 
                CA:FALSE
            Netscape Comment: 
                VPN User Certificate
            Netscape Cert Type: 
                SSL Client
            X509v3 Key Usage: 
                Digital Signature
            X509v3 Extended Key Usage: 
                TLS Web Client Authentication
            X509v3 Subject Key Identifier: 
                8D:6E:7A:8B:99:69:68:5C:14:81:AB:A4:F9:E9:9E:6D:A5:7D:82:6E
            X509v3 Authority Key Identifier: 
                keyid:86:4F:B8:6D:18:2A:1B:3C:8F:27:34:29:F0:81:9F:BA:6E:61:0E:E1
                DirName:/C=CH/ST=Zug/L=Zug/O=Perfect Privacy/CN=Perfect Privacy/emailAddress=admin@perfect-privacy.com
                serial:FA:11:B5:C4:AA:69:AF:69

    Signature Algorithm: sha512WithRSAEncryption
         75:0e:94:d4:a5:53:bd:3d:60:2f:34:f9:c6:bd:63:4b:c9:32:
         38:c5:a5:18:81:eb:69:b2:29:11:0f:d5:4b:6d:5a:3e:d8:30:
         a3:2a:64:55:37:21:ec:b3:cf:a5:b4:a2:3b:e2:f1:4f:73:c7:
         f6:67:df:3c:10:47:68:15:92:38:39:50:b2:7e:49:6b:48:dc:
         41:9b:3a:70:3e:db:d4:66:0d:91:1b:42:92:a5:38:d6:7a:6e:
         ac:cd:92:55:d6:aa:d7:fe:68:2c:20:67:81:78:02:54:22:c5:
         f3:f4:df:d0:dd:42:20:5f:46:e0:9a:f4:45:24:5c:db:34:ee:
         71:48:0e:2a:6a:3a:f8:98:cf:15:d2:54:01:59:c7:ec:08:af:
         56:4d:29:6f:bc:e6:d3:49:7a:d4:e6:72:d6:76:fb:ea:76:a4:
         59:7b:bb:4e:44:cf:85:f5:c9:d1:3b:ae:21:9c:41:9a:64:f6:
         f6:60:40:f9:5a:13:0e:0f:c3:66:d6:12:b6:b7:7d:42:fd:45:
         e8:5e:45:04:bd:b9:b0:05:46:81:51:32:49:87:35:fc:7a:1f:
         73:ba:a2:92:32:43:bc:51:16:c1:2e:06:21:d7:33:3c:3a:74:
         b7:ed:fb:4c:ae:19:ad:bf:87:3c:01:aa:3d:e1:6b:9b:12:6b:
         f1:5a:6a:c3:33:e0:b6:15:d6:7b:d9:ef:a6:6e:cd:bb:0e:94:
         2d:d7:d2:47:6f:7d:ca:5e:5b:5e:d3:71:60:8d:6a:d1:c7:a2:
         57:76:1f:f1:2a:26:92:20:52:c0:89:cd:a6:39:8f:b8:eb:e1:
         36:fe:69:dd:20:c8:60:13:5a:37:de:42:44:af:6d:db:02:3c:
         f3:0c:04:87:c5:6f:1f:f4:04:b9:0f:cb:08:05:6c:c9:4f:4c:
         92:4e:26:44:30:a9:a2:15:09:27:b8:a5:f6:84:af:79:32:57:
         c4:c3:d4:79:65:f6:3d:03:d5:ee:2c:f3:43:41:d8:7d:6e:ad:
         0e:0e:1b:00:3b:3e:dd:d4:d7:4a:af:8f:db:fb:26:83:44:ac:
         de:1d:80:83:80:5d:2a:9a:40:50:fb:e5:bd:51:5e:3f:e3:7e:
         67:a1:ea:f6:0c:5d:9a:3e:a7:e6:8a:0f:bb:26:52:f2:0a:20:
         4f:3e:e1:d7:01:2f:3a:b1:e5:0e:17:fa:2b:5b:25:73:9c:af:
         32:70:9d:6b:b2:f5:91:ac:96:b8:fd:6b:1a:b6:88:c5:4f:f4:
         8a:87:62:f5:a6:ad:63:bd:82:6a:50:84:4d:ae:cd:d2:0e:2e:
         80:9f:49:0d:ad:88:1f:f3:2c:f3:33:c7:98:c1:5f:7c:65:b1:
         88:19:db:e9:87:54:5c:a8
-----BEGIN CERTIFICATE-----
MIIG3zCCBMegAwIBAgIJAMA/tK23/kY/MA0GCSqGSIb3DQEBDQUAMIGHMQswCQYD
VQQGEwJDSDEMMAoGA1UECBMDWnVnMQwwCgYDVQQHEwNadWcxGDAWBgNVBAoTD1Bl
cmZlY3QgUHJpdmFjeTEYMBYGA1UEAxMPUGVyZmVjdCBQcml2YWN5MSgwJgYJKoZI
hvcNAQkBFhlhZG1pbkBwZXJmZWN0LXByaXZhY3kuY29tMB4XDTI0MDUxMDAwMDAw
MFoXDTI2MDEwNTAwMDAwMFowgYoxCzAJBgNVBAYTAkNIMQwwCgYDVQQIEwNadWcx
GDAWBgNVBAoTD1BlcmZlY3QgUHJpdmFjeTEpMCcGA1UEAxQgQ2xpZW50X2Jhc2Vs
LnBlcmZlY3QtcHJpdmFjeS5jb20xKDAmBgkqhkiG9w0BCQEWGWFkbWluQHBlcmZl
Y3QtcHJpdmFjeS5jb20wggIiMA0GCSqGSIb3DQEBAQUAA4ICDwAwggIKAoICAQCi
ItmWjqSBLoAiDpq3e8TujnjF6brhMsfE1jtOxScAnGir2YqTTzzucpI/34EKUbpN
yle1mzLh2EQZ2wQK7LTj3owMKTXDKpwW3ETSsWavh2AOTqcf9Wpz1zwtTkHk0Uq7
i8q7HRd0F4LjusGT6eYqXynUgoTmIE7fh0Ww4WyEsX/Hig3jwMM1hy4nXUeqkvdt
fJJBbyZIU2IhwtQ51eeG28ADhzfZHk/KFiBIJnXxpQceNAZTLwCNtt/0K+/blsCI
Xu3aPSriUvKiE2RyOli0ScOihZ8FS2639wkatRLr1fvKQiryl1d3eDjqajbUKU14
K5rr/x1bdIl7OibBmdezcg1hylDw7IYOJZMUT9iVsUH4IPtDFXDLXNFbl5UhkREc
KGVMk9RtDIKEY6svU2EyG2PPzoN6akJb9OFb3iz/7spuvJ9+/lXYt/5aQdKJXkOF
YUYEjgMXneHSE2JOvUeRw4ZdeAXDJ9HjojAoBwiolXNc1UZaOvMCk4TFsflX6AFf
DtcOPedGV61jMUB51ixnVKJpP+XRCwEuOw/ZK12H71coUw1xjQWb+GfgGsqAjSj3
xHkGfwfgnuqsykjUEkOV7YoCKHEMo4KhIFRbSV9jEWswcGZ+ELHG+RDDt3AffR5K
Kmmz7JS0uMUu09kbcaypFJSF/YU4yOZ6qAVEz6dsXQIDAQABo4IBRzCCAUMwCQYD
VR0TBAIwADAjBglghkgBhvhCAQ0EFhYUVlBOIFVzZXIgQ2VydGlmaWNhdGUwEQYJ
YIZIAYb4QgEBBAQDAgeAMAsGA1UdDwQEAwIHgDATBgNVHSUEDDAKBggrBgEFBQcD
AjAdBgNVHQ4EFgQUjW56i5lpaFwUgauk+emebaV9gm4wgbwGA1UdIwSBtDCBsYAU
hk+4bRgqGzyPJzQp8IGfum5hDuGhgY2kgYowgYcxCzAJBgNVBAYTAkNIMQwwCgYD
VQQIEwNadWcxDDAKBgNVBAcTA1p1ZzEYMBYGA1UEChMPUGVyZmVjdCBQcml2YWN5
MRgwFgYDVQQDEw9QZXJmZWN0IFByaXZhY3kxKDAmBgkqhkiG9w0BCQEWGWFkbWlu
QHBlcmZlY3QtcHJpdmFjeS5jb22CCQD6EbXEqmmvaTANBgkqhkiG9w0BAQ0FAAOC
AgEAdQ6U1KVTvT1gLzT5xr1jS8kyOMWlGIHrabIpEQ/VS21aPtgwoypkVTch7LPP
pbSiO+LxT3PH9mffPBBHaBWSODlQsn5Ja0jcQZs6cD7b1GYNkRtCkqU41npurM2S
Vdaq1/5oLCBngXgCVCLF8/Tf0N1CIF9G4Jr0RSRc2zTucUgOKmo6+JjPFdJUAVnH
7AivVk0pb7zm00l61OZy1nb76nakWXu7TkTPhfXJ0TuuIZxBmmT29mBA+VoTDg/D
ZtYStrd9Qv1F6F5FBL25sAVGgVEySYc1/Hofc7qikjJDvFEWwS4GIdczPDp0t+37
TK4Zrb+HPAGqPeFrmxJr8VpqwzPgthXWe9nvpm7Nuw6ULdfSR299yl5bXtNxYI1q
0ceiV3Yf8SomkiBSwInNpjmPuOvhNv5p3SDIYBNaN95CRK9t2wI88wwEh8VvH/QE
uQ/LCAVsyU9Mkk4mRDCpohUJJ7il9oSveTJXxMPUeWX2PQPV7izzQ0HYfW6tDg4b
ADs+3dTXSq+P2/smg0Ss3h2Ag4BdKppAUPvlvVFeP+N+Z6Hq9gxdmj6n5ooPuyZS
8gogTz7h1wEvOrHlDhf6K1slc5yvMnCda7L1kayWuP1rGraIxU/0iodi9aatY72C
alCETa7N0g4ugJ9JDa2IH/Ms8zPHmMFffGWxiBnb6YdUXKg=
-----END CERTIFICATE-----
