Certificate:
    Data:
        Version: 3 (0x2)
        Serial Number:
            fc:7e:ff:ed:93:80:cf:66
    Signature Algorithm: sha512WithRSAEncryption
        Issuer: C=CH, ST=Zug, L=Zug, O=Perfect Privacy, CN=Perfect Privacy/emailAddress=admin@perfect-privacy.com
        Validity
            Not Before: Jun 23 00:00:00 2023 GMT
            Not After : Feb 17 00:00:00 2025 GMT
        Subject: C=CH, ST=Zug, O=Perfect Privacy, CN=Client_basel.perfect-privacy.com/emailAddress=admin@perfect-privacy.com
        Subject Public Key Info:
            Public Key Algorithm: rsaEncryption
                Public-Key: (4096 bit)
                Modulus:
                    00:ee:f0:33:9d:f9:09:36:9a:6a:d1:98:f1:f9:82:
                    7c:58:61:ef:33:e7:91:94:b5:e3:be:05:67:3f:0f:
                    fd:6c:fd:39:43:be:a9:2d:3d:67:cf:57:7b:ac:15:
                    11:bd:3c:58:9e:8b:c5:b8:37:ed:b8:7e:0e:52:bd:
                    4e:34:90:54:ca:ef:da:1f:37:ac:ba:00:23:b6:ac:
                    ee:f0:12:61:56:f6:f8:06:3d:49:ae:dc:42:6d:dd:
                    97:4d:69:70:19:ca:4a:a1:f0:0d:19:bc:53:b1:2d:
                    b7:83:8e:1a:e4:d5:3a:ba:c4:73:7c:6e:2f:25:60:
                    97:61:37:b6:3e:19:e0:7e:5d:f0:8a:18:14:9d:15:
                    92:a9:33:58:db:25:4f:ea:93:d9:f7:6f:dc:3c:77:
                    7c:41:97:d0:74:b0:4c:e7:7e:c5:26:f8:16:71:96:
                    c2:79:03:65:81:84:2d:d7:29:c6:8e:b2:30:20:f1:
                    43:da:7f:6a:3c:b7:8d:35:78:12:09:8e:2e:84:f2:
                    4d:61:96:7e:d0:7b:77:84:b3:6c:af:ae:83:6f:10:
                    3d:0a:f6:12:c3:ec:c6:50:6a:c2:e1:56:e2:c2:c6:
                    73:40:46:46:74:0d:a0:06:cf:64:f9:72:fa:1e:55:
                    7e:ba:a5:e2:79:9e:0a:ff:aa:58:2a:86:af:df:20:
                    9d:5e:c5:80:df:df:e9:42:f3:cb:d1:51:c5:fa:ac:
                    e4:ac:de:83:c5:fb:df:08:a8:36:ab:0a:31:1c:e1:
                    4f:7b:10:58:a0:be:e3:38:b8:bd:66:20:2a:16:41:
                    1b:a6:86:df:ea:47:96:b4:ac:26:73:08:cb:2b:06:
                    b3:83:f8:2f:2f:5a:ad:98:a7:7c:86:e5:6c:8c:6e:
                    dd:60:00:d4:48:dc:95:65:73:14:a1:a2:41:02:ac:
                    40:4f:77:41:d9:e4:f3:ca:0a:7f:52:5d:b2:9c:4a:
                    6f:20:59:76:a8:a9:83:28:80:78:c8:94:64:56:11:
                    1b:d4:e0:3a:28:2e:6b:33:36:39:1c:e5:f5:09:c0:
                    a3:ef:74:21:2f:09:0e:45:b4:73:b6:02:53:64:eb:
                    0a:a0:c8:fa:5c:c1:44:c6:f0:77:2d:50:1e:21:85:
                    f1:49:2e:cd:60:b8:0d:53:42:b9:ac:04:73:0f:9d:
                    cd:44:60:01:c1:87:a7:1c:cd:be:7b:1d:2b:47:df:
                    fc:98:3b:73:e3:9d:d5:51:41:88:50:3f:12:9e:67:
                    22:6c:f1:0c:2f:d0:33:12:d0:39:61:4e:73:e2:c5:
                    7b:6a:93:15:66:7f:38:14:67:9f:28:d8:6a:68:8c:
                    6b:0c:5c:de:a2:5c:ba:e5:b9:31:2d:d0:2c:96:bd:
                    02:99:73
                Exponent: 65537 (0x10001)
        X509v3 extensions:
            X509v3 Basic Constraints: 
                CA:FALSE
            Netscape Comment: 
                VPN User Certificate
            Netscape Cert Type: 
                SSL Client
            X509v3 Key Usage: 
                Digital Signature
            X509v3 Extended Key Usage: 
                TLS Web Client Authentication
            X509v3 Subject Key Identifier: 
                DC:07:21:AE:58:6F:65:61:47:56:86:6C:14:AD:4D:F0:98:DC:B6:7C
            X509v3 Authority Key Identifier: 
                keyid:86:4F:B8:6D:18:2A:1B:3C:8F:27:34:29:F0:81:9F:BA:6E:61:0E:E1
                DirName:/C=CH/ST=Zug/L=Zug/O=Perfect Privacy/CN=Perfect Privacy/emailAddress=admin@perfect-privacy.com
                serial:FA:11:B5:C4:AA:69:AF:69

    Signature Algorithm: sha512WithRSAEncryption
         80:5f:8d:b8:c9:87:bf:ba:b4:71:72:7b:48:cf:76:a2:c3:6a:
         f1:ac:f8:f8:7c:3a:e7:06:0d:a4:29:19:7c:a5:20:08:40:18:
         97:0f:71:85:4b:77:a6:e0:c1:2b:ac:6b:26:a7:f4:2b:d8:fb:
         dd:1e:30:fd:49:75:1d:35:2c:6f:e1:ec:50:59:20:74:aa:0c:
         f3:18:a0:14:c3:4d:59:09:fe:08:3e:4c:47:e7:24:a7:76:63:
         aa:27:69:28:66:c7:09:e3:52:f5:17:0f:01:71:1f:18:69:2e:
         0c:03:1d:39:29:23:18:ed:97:a9:c1:e7:77:27:a1:1e:9d:3e:
         ad:03:b1:73:f8:b3:f9:30:d9:19:58:c3:fc:4b:e9:5a:39:dd:
         3b:23:7b:e4:36:4c:28:18:2b:c6:42:ea:67:c7:42:32:7b:5d:
         e8:48:b4:3b:31:36:18:f4:32:1d:53:ae:28:e3:5e:ae:db:6a:
         ce:7f:17:21:79:29:75:08:9d:a8:fc:1c:fa:c4:de:19:54:6f:
         53:ff:a5:ac:d5:3f:de:97:6f:f7:cc:8e:86:c5:00:e9:45:59:
         74:80:9b:71:fa:de:71:32:0a:e0:1c:6b:f4:23:8f:a9:4c:63:
         b1:82:f9:d8:cd:5b:75:62:03:ca:3e:f5:b7:55:3a:99:79:b1:
         b2:61:e6:bf:a9:81:0b:29:7f:2e:ad:a7:f7:07:7d:0a:75:af:
         96:e3:23:3f:3c:80:3f:40:3c:72:9f:f6:64:41:8c:ca:6b:63:
         9f:c6:93:16:57:d3:a1:3d:65:41:ad:87:43:a4:35:50:71:0a:
         cc:28:1c:74:45:99:f1:26:ea:91:c5:84:28:bc:50:d6:64:c2:
         f6:5a:88:63:ce:eb:e3:77:dc:ff:cd:34:f1:7f:6d:97:28:8e:
         a0:ea:90:38:34:97:f4:07:5e:24:f1:76:6d:a2:49:8d:b4:e9:
         96:52:05:b8:a3:22:7b:23:27:2b:a7:80:a4:b4:f0:2b:63:c0:
         f8:30:14:8b:23:17:e4:48:d0:91:a1:b1:31:02:57:40:44:9f:
         a8:d3:99:34:31:f8:37:ca:49:4f:aa:9f:7d:84:ab:8c:64:9a:
         16:71:22:88:45:1a:5d:6b:ab:b0:2a:9b:4e:11:9f:c1:13:f8:
         03:5d:fb:22:63:fe:02:fb:d5:14:71:51:ff:1e:1a:c7:e7:f0:
         3f:c0:53:ba:73:ae:b2:46:32:71:0c:5e:7d:29:60:66:5c:69:
         2d:d8:bd:a2:80:97:29:e1:8e:7d:69:a9:1c:a0:80:fa:b0:f2:
         99:71:61:79:51:0c:3d:c5:6b:a8:d2:f4:12:f8:42:80:e4:5a:
         d7:f1:ce:99:90:ae:54:95
-----BEGIN CERTIFICATE-----
MIIG3zCCBMegAwIBAgIJAPx+/+2TgM9mMA0GCSqGSIb3DQEBDQUAMIGHMQswCQYD
VQQGEwJDSDEMMAoGA1UECBMDWnVnMQwwCgYDVQQHEwNadWcxGDAWBgNVBAoTD1Bl
cmZlY3QgUHJpdmFjeTEYMBYGA1UEAxMPUGVyZmVjdCBQcml2YWN5MSgwJgYJKoZI
hvcNAQkBFhlhZG1pbkBwZXJmZWN0LXByaXZhY3kuY29tMB4XDTIzMDYyMzAwMDAw
MFoXDTI1MDIxNzAwMDAwMFowgYoxCzAJBgNVBAYTAkNIMQwwCgYDVQQIEwNadWcx
GDAWBgNVBAoTD1BlcmZlY3QgUHJpdmFjeTEpMCcGA1UEAxQgQ2xpZW50X2Jhc2Vs
LnBlcmZlY3QtcHJpdmFjeS5jb20xKDAmBgkqhkiG9w0BCQEWGWFkbWluQHBlcmZl
Y3QtcHJpdmFjeS5jb20wggIiMA0GCSqGSIb3DQEBAQUAA4ICDwAwggIKAoICAQDu
8DOd+Qk2mmrRmPH5gnxYYe8z55GUteO+BWc/D/1s/TlDvqktPWfPV3usFRG9PFie
i8W4N+24fg5SvU40kFTK79ofN6y6ACO2rO7wEmFW9vgGPUmu3EJt3ZdNaXAZykqh
8A0ZvFOxLbeDjhrk1Tq6xHN8bi8lYJdhN7Y+GeB+XfCKGBSdFZKpM1jbJU/qk9n3
b9w8d3xBl9B0sEznfsUm+BZxlsJ5A2WBhC3XKcaOsjAg8UPaf2o8t401eBIJji6E
8k1hln7Qe3eEs2yvroNvED0K9hLD7MZQasLhVuLCxnNARkZ0DaAGz2T5cvoeVX66
peJ5ngr/qlgqhq/fIJ1exYDf3+lC88vRUcX6rOSs3oPF+98IqDarCjEc4U97EFig
vuM4uL1mICoWQRumht/qR5a0rCZzCMsrBrOD+C8vWq2Yp3yG5WyMbt1gANRI3JVl
cxShokECrEBPd0HZ5PPKCn9SXbKcSm8gWXaoqYMogHjIlGRWERvU4DooLmszNjkc
5fUJwKPvdCEvCQ5FtHO2AlNk6wqgyPpcwUTG8HctUB4hhfFJLs1guA1TQrmsBHMP
nc1EYAHBh6cczb57HStH3/yYO3PjndVRQYhQPxKeZyJs8Qwv0DMS0DlhTnPixXtq
kxVmfzgUZ58o2GpojGsMXN6iXLrluTEt0CyWvQKZcwIDAQABo4IBRzCCAUMwCQYD
VR0TBAIwADAjBglghkgBhvhCAQ0EFhYUVlBOIFVzZXIgQ2VydGlmaWNhdGUwEQYJ
YIZIAYb4QgEBBAQDAgeAMAsGA1UdDwQEAwIHgDATBgNVHSUEDDAKBggrBgEFBQcD
AjAdBgNVHQ4EFgQU3AchrlhvZWFHVoZsFK1N8JjctnwwgbwGA1UdIwSBtDCBsYAU
hk+4bRgqGzyPJzQp8IGfum5hDuGhgY2kgYowgYcxCzAJBgNVBAYTAkNIMQwwCgYD
VQQIEwNadWcxDDAKBgNVBAcTA1p1ZzEYMBYGA1UEChMPUGVyZmVjdCBQcml2YWN5
MRgwFgYDVQQDEw9QZXJmZWN0IFByaXZhY3kxKDAmBgkqhkiG9w0BCQEWGWFkbWlu
QHBlcmZlY3QtcHJpdmFjeS5jb22CCQD6EbXEqmmvaTANBgkqhkiG9w0BAQ0FAAOC
AgEAgF+NuMmHv7q0cXJ7SM92osNq8az4+Hw65wYNpCkZfKUgCEAYlw9xhUt3puDB
K6xrJqf0K9j73R4w/Ul1HTUsb+HsUFkgdKoM8xigFMNNWQn+CD5MR+ckp3Zjqidp
KGbHCeNS9RcPAXEfGGkuDAMdOSkjGO2XqcHndyehHp0+rQOxc/iz+TDZGVjD/Evp
WjndOyN75DZMKBgrxkLqZ8dCMntd6Ei0OzE2GPQyHVOuKONerttqzn8XIXkpdQid
qPwc+sTeGVRvU/+lrNU/3pdv98yOhsUA6UVZdICbcfrecTIK4Bxr9COPqUxjsYL5
2M1bdWIDyj71t1U6mXmxsmHmv6mBCyl/Lq2n9wd9CnWvluMjPzyAP0A8cp/2ZEGM
ymtjn8aTFlfToT1lQa2HQ6Q1UHEKzCgcdEWZ8SbqkcWEKLxQ1mTC9lqIY87r43fc
/8008X9tlyiOoOqQODSX9AdeJPF2baJJjbTpllIFuKMieyMnK6eApLTwK2PA+DAU
iyMX5EjQkaGxMQJXQESfqNOZNDH4N8pJT6qffYSrjGSaFnEiiEUaXWursCqbThGf
wRP4A137ImP+AvvVFHFR/x4ax+fwP8BTunOuskYycQxefSlgZlxpLdi9ooCXKeGO
fWmpHKCA+rDymXFheVEMPcVrqNL0EvhCgORa1/HOmZCuVJU=
-----END CERTIFICATE-----
