Certificate:
    Data:
        Version: 3 (0x2)
        Serial Number:
            d6:13:00:b7:47:ec:6a:11
    Signature Algorithm: sha512WithRSAEncryption
        Issuer: C=CH, ST=Zug, L=Zug, O=Perfect Privacy, CN=Perfect Privacy/emailAddress=admin@perfect-privacy.com
        Validity
            Not Before: Nov 18 00:00:00 2022 GMT
            Not After : Jul 15 00:00:00 2024 GMT
        Subject: C=CH, ST=Zug, O=Perfect Privacy, CN=Client_bucharest.perfect-privacy.com/emailAddress=admin@perfect-privacy.com
        Subject Public Key Info:
            Public Key Algorithm: rsaEncryption
                Public-Key: (4096 bit)
                Modulus:
                    00:ad:99:e2:31:a1:d4:10:cc:e5:c2:96:a1:56:a5:
                    da:e9:d0:0a:75:c3:6d:6e:bd:63:b6:24:49:aa:8c:
                    0a:02:4f:4b:d6:67:b0:ac:56:8e:c4:85:2f:da:f0:
                    14:31:8f:c7:a7:a5:6e:1f:76:23:92:a0:6b:f2:63:
                    ee:2b:36:4f:c9:03:1a:5d:ce:0e:6e:33:da:86:38:
                    71:75:76:48:c3:ba:21:09:f8:53:d5:92:64:6f:be:
                    a2:ab:e8:a3:27:b1:0c:f3:ed:ad:be:1f:81:36:3e:
                    5c:18:02:3a:47:5d:e9:e3:67:a1:27:02:47:7d:46:
                    86:d9:ce:a2:f9:c2:92:f3:99:7a:70:04:94:08:44:
                    37:30:0b:a5:03:3d:a4:a7:7b:16:ce:76:77:f3:fc:
                    2c:b7:40:0b:ca:e1:b0:17:27:26:18:ca:e6:2e:25:
                    54:97:4c:25:2d:ae:b3:3f:3b:47:90:cf:0e:9d:d6:
                    55:e0:ce:6e:c6:0f:fd:21:68:fa:ad:3e:21:06:66:
                    01:50:80:df:19:a8:eb:7c:2e:29:f7:ad:2b:58:82:
                    48:b0:d8:62:5d:76:7b:4a:aa:09:a1:05:9d:70:72:
                    b4:88:e4:6a:0b:c9:da:25:1c:85:af:75:f0:3e:f8:
                    8a:44:d5:c8:29:25:eb:1e:00:49:16:96:ba:a7:ff:
                    cc:be:b9:4d:f5:64:8f:e3:57:c1:48:b2:7a:2c:f3:
                    5b:0d:b7:7d:7e:38:17:d6:40:b2:cf:33:41:ae:de:
                    eb:2d:2e:81:0e:c5:aa:09:a5:60:3c:89:eb:06:af:
                    18:c9:77:af:e1:8f:c6:ee:70:dd:c6:5e:44:82:50:
                    4a:da:01:b6:c0:c6:b4:9a:5d:07:55:dc:a2:2e:00:
                    cc:a7:01:db:27:02:78:7d:e5:21:25:94:88:b3:9a:
                    18:96:ae:bf:c1:a0:57:ea:d8:10:69:8e:58:88:45:
                    29:1b:61:50:bb:52:f9:04:a0:da:7d:d8:99:4c:f6:
                    51:42:c7:09:bd:c0:1e:e0:69:9e:8e:94:8f:da:eb:
                    e7:b7:2c:40:af:8d:b0:71:b3:c3:44:25:5b:55:bc:
                    06:db:c3:fb:86:c4:ea:34:2e:95:f3:02:41:77:60:
                    ea:bc:a1:88:f7:12:c1:6b:dd:65:fd:d0:03:b0:b4:
                    64:c4:e9:cc:99:1b:a6:df:60:99:d6:74:9a:07:07:
                    2d:33:db:aa:cf:9f:fe:2e:32:38:f4:f8:ea:9a:be:
                    88:be:b6:6f:0b:63:ce:40:a5:15:ac:8e:93:a1:8c:
                    cf:47:54:55:5b:a8:b6:e6:cf:79:41:70:d1:9b:63:
                    2a:8a:50:fc:65:9f:d7:98:5e:00:28:c8:55:1a:87:
                    29:e9:67
                Exponent: 65537 (0x10001)
        X509v3 extensions:
            X509v3 Basic Constraints: 
                CA:FALSE
            Netscape Comment: 
                VPN User Certificate
            Netscape Cert Type: 
                SSL Client
            X509v3 Key Usage: 
                Digital Signature
            X509v3 Extended Key Usage: 
                TLS Web Client Authentication
            X509v3 Subject Key Identifier: 
                A7:31:07:C9:3B:7B:AD:D9:CD:7D:23:00:2E:F5:70:FE:9D:EF:69:A8
            X509v3 Authority Key Identifier: 
                keyid:86:4F:B8:6D:18:2A:1B:3C:8F:27:34:29:F0:81:9F:BA:6E:61:0E:E1
                DirName:/C=CH/ST=Zug/L=Zug/O=Perfect Privacy/CN=Perfect Privacy/emailAddress=admin@perfect-privacy.com
                serial:FA:11:B5:C4:AA:69:AF:69

    Signature Algorithm: sha512WithRSAEncryption
         05:e7:cf:77:65:18:24:ca:69:bf:2b:8c:6b:86:bc:68:71:04:
         80:c0:93:1e:aa:0b:65:dd:1e:8d:7d:38:8f:9d:73:79:d1:7e:
         19:67:0f:05:7c:ca:33:20:3b:29:73:c6:3f:1d:3c:fd:b6:d3:
         3b:2c:bc:7c:fe:97:e1:54:ac:c1:e2:56:57:f7:12:cb:99:7d:
         f3:b4:8f:93:27:89:d7:b2:ed:c6:39:79:35:71:14:1f:7c:92:
         38:50:41:0b:b9:5d:2c:26:68:62:bb:a6:98:62:27:1d:90:36:
         5c:24:01:58:01:9e:57:40:45:e5:3a:dd:09:02:ed:c9:98:8a:
         12:54:92:3b:21:45:b6:66:fa:20:a3:a1:05:57:72:ec:77:0a:
         ac:45:54:8c:35:7f:04:98:ff:e7:5d:1f:13:aa:a2:68:1b:ed:
         00:2a:d1:a1:9b:46:82:f5:3d:9a:f3:79:ab:21:ce:39:ac:7b:
         4c:e4:bc:f9:a0:ea:11:23:ad:bc:6e:b4:6f:cb:5f:a6:06:63:
         67:6f:f9:6a:ac:95:97:6e:e4:36:dd:bb:f9:b3:fe:35:8d:02:
         74:46:03:e5:c8:33:d0:d4:d5:e0:da:f1:88:61:8d:b6:b7:37:
         ab:f9:3d:0c:7b:bb:05:b1:01:9e:d5:ef:96:52:0e:6f:ac:ed:
         d9:1b:75:2f:75:0a:3a:11:ed:60:83:66:ec:45:70:9b:ac:e2:
         9d:f9:38:2a:33:8e:e5:65:2a:f2:18:2e:5c:3a:df:1c:da:31:
         4d:bc:f3:bc:2b:10:a2:23:dc:46:b2:4f:1c:49:16:06:ad:71:
         fb:77:5a:10:5c:70:77:4d:af:58:15:2a:45:6b:4d:61:df:8b:
         fe:8c:57:9f:e0:74:4c:c3:75:a5:af:4d:47:7c:47:54:56:0e:
         a4:b8:86:2e:d7:1b:9a:8f:61:cd:72:d2:81:b7:e3:ec:41:67:
         80:6f:89:d1:3c:4f:0c:c3:af:33:3d:a6:5c:dd:a5:21:30:e1:
         42:86:79:f4:e5:53:d7:64:25:58:1b:fa:ee:92:7a:37:1b:95:
         22:67:70:e4:ee:74:0f:2f:b9:eb:c4:34:59:a9:44:b6:eb:bd:
         8b:17:65:80:77:81:e4:a3:a5:c9:30:20:46:15:9f:81:91:34:
         17:55:b8:ae:30:4e:36:a6:bb:e0:b3:71:5e:62:97:3d:02:8f:
         05:8c:8c:5f:cc:9d:71:77:64:0a:17:e1:f4:6d:57:95:03:23:
         2a:12:4e:40:36:bd:2c:fc:1a:97:8b:67:32:b5:ff:aa:8e:63:
         c9:1d:7b:2e:40:21:51:a9:ed:87:10:82:a7:b7:ad:08:30:cc:
         16:ff:92:58:45:6e:f4:a4
-----BEGIN CERTIFICATE-----
MIIG4zCCBMugAwIBAgIJANYTALdH7GoRMA0GCSqGSIb3DQEBDQUAMIGHMQswCQYD
VQQGEwJDSDEMMAoGA1UECBMDWnVnMQwwCgYDVQQHEwNadWcxGDAWBgNVBAoTD1Bl
cmZlY3QgUHJpdmFjeTEYMBYGA1UEAxMPUGVyZmVjdCBQcml2YWN5MSgwJgYJKoZI
hvcNAQkBFhlhZG1pbkBwZXJmZWN0LXByaXZhY3kuY29tMB4XDTIyMTExODAwMDAw
MFoXDTI0MDcxNTAwMDAwMFowgY4xCzAJBgNVBAYTAkNIMQwwCgYDVQQIEwNadWcx
GDAWBgNVBAoTD1BlcmZlY3QgUHJpdmFjeTEtMCsGA1UEAxQkQ2xpZW50X2J1Y2hh
cmVzdC5wZXJmZWN0LXByaXZhY3kuY29tMSgwJgYJKoZIhvcNAQkBFhlhZG1pbkBw
ZXJmZWN0LXByaXZhY3kuY29tMIICIjANBgkqhkiG9w0BAQEFAAOCAg8AMIICCgKC
AgEArZniMaHUEMzlwpahVqXa6dAKdcNtbr1jtiRJqowKAk9L1mewrFaOxIUv2vAU
MY/Hp6VuH3YjkqBr8mPuKzZPyQMaXc4ObjPahjhxdXZIw7ohCfhT1ZJkb76iq+ij
J7EM8+2tvh+BNj5cGAI6R13p42ehJwJHfUaG2c6i+cKS85l6cASUCEQ3MAulAz2k
p3sWznZ38/wst0ALyuGwFycmGMrmLiVUl0wlLa6zPztHkM8OndZV4M5uxg/9IWj6
rT4hBmYBUIDfGajrfC4p960rWIJIsNhiXXZ7SqoJoQWdcHK0iORqC8naJRyFr3Xw
PviKRNXIKSXrHgBJFpa6p//MvrlN9WSP41fBSLJ6LPNbDbd9fjgX1kCyzzNBrt7r
LS6BDsWqCaVgPInrBq8YyXev4Y/G7nDdxl5EglBK2gG2wMa0ml0HVdyiLgDMpwHb
JwJ4feUhJZSIs5oYlq6/waBX6tgQaY5YiEUpG2FQu1L5BKDafdiZTPZRQscJvcAe
4GmejpSP2uvntyxAr42wcbPDRCVbVbwG28P7hsTqNC6V8wJBd2DqvKGI9xLBa91l
/dADsLRkxOnMmRum32CZ1nSaBwctM9uqz5/+LjI49Pjqmr6IvrZvC2POQKUVrI6T
oYzPR1RVW6i25s95QXDRm2MqilD8ZZ/XmF4AKMhVGocp6WcCAwEAAaOCAUcwggFD
MAkGA1UdEwQCMAAwIwYJYIZIAYb4QgENBBYWFFZQTiBVc2VyIENlcnRpZmljYXRl
MBEGCWCGSAGG+EIBAQQEAwIHgDALBgNVHQ8EBAMCB4AwEwYDVR0lBAwwCgYIKwYB
BQUHAwIwHQYDVR0OBBYEFKcxB8k7e63ZzX0jAC71cP6d72moMIG8BgNVHSMEgbQw
gbGAFIZPuG0YKhs8jyc0KfCBn7puYQ7hoYGNpIGKMIGHMQswCQYDVQQGEwJDSDEM
MAoGA1UECBMDWnVnMQwwCgYDVQQHEwNadWcxGDAWBgNVBAoTD1BlcmZlY3QgUHJp
dmFjeTEYMBYGA1UEAxMPUGVyZmVjdCBQcml2YWN5MSgwJgYJKoZIhvcNAQkBFhlh
ZG1pbkBwZXJmZWN0LXByaXZhY3kuY29tggkA+hG1xKppr2kwDQYJKoZIhvcNAQEN
BQADggIBAAXnz3dlGCTKab8rjGuGvGhxBIDAkx6qC2XdHo19OI+dc3nRfhlnDwV8
yjMgOylzxj8dPP220zssvHz+l+FUrMHiVlf3EsuZffO0j5Mnidey7cY5eTVxFB98
kjhQQQu5XSwmaGK7pphiJx2QNlwkAVgBnldAReU63QkC7cmYihJUkjshRbZm+iCj
oQVXcux3CqxFVIw1fwSY/+ddHxOqomgb7QAq0aGbRoL1PZrzeashzjmse0zkvPmg
6hEjrbxutG/LX6YGY2dv+WqslZdu5Dbdu/mz/jWNAnRGA+XIM9DU1eDa8Yhhjba3
N6v5PQx7uwWxAZ7V75ZSDm+s7dkbdS91CjoR7WCDZuxFcJus4p35OCozjuVlKvIY
Llw63xzaMU2887wrEKIj3EayTxxJFgatcft3WhBccHdNr1gVKkVrTWHfi/6MV5/g
dEzDdaWvTUd8R1RWDqS4hi7XG5qPYc1y0oG34+xBZ4BvidE8TwzDrzM9plzdpSEw
4UKGefTlU9dkJVgb+u6SejcblSJncOTudA8vuevENFmpRLbrvYsXZYB3geSjpckw
IEYVn4GRNBdVuK4wTjamu+CzcV5ilz0CjwWMjF/MnXF3ZAoX4fRtV5UDIyoSTkA2
vSz8GpeLZzK1/6qOY8kdey5AIVGp7YcQgqe3rQgwzBb/klhFbvSk
-----END CERTIFICATE-----
