Certificate:
    Data:
        Version: 3 (0x2)
        Serial Number:
            f4:a2:24:52:d6:1b:1b:97
    Signature Algorithm: sha512WithRSAEncryption
        Issuer: C=CH, ST=Zug, L=Zug, O=Perfect Privacy, CN=Perfect Privacy/emailAddress=admin@perfect-privacy.com
        Validity
            Not Before: Feb 10 00:00:00 2023 GMT
            Not After : Oct  7 00:00:00 2024 GMT
        Subject: C=CH, ST=Zug, O=Perfect Privacy, CN=Client_belgrade.perfect-privacy.com/emailAddress=admin@perfect-privacy.com
        Subject Public Key Info:
            Public Key Algorithm: rsaEncryption
                Public-Key: (4096 bit)
                Modulus:
                    00:c5:9d:6f:c2:8f:7a:c5:de:2a:03:eb:57:6b:9b:
                    ef:7a:28:6a:fb:55:63:74:72:ed:6f:aa:72:49:11:
                    d2:83:0f:a8:af:16:11:f6:63:96:c2:1b:5c:e8:15:
                    24:1e:ee:d2:f0:a7:82:ac:fb:6a:b8:86:70:f6:d6:
                    0a:e4:6d:e4:2f:6c:25:7c:92:c3:01:bf:92:78:d8:
                    a5:c5:2a:26:ac:83:81:e4:3b:da:67:17:83:b0:fd:
                    9e:56:7f:ac:cc:d5:a3:95:5b:68:bc:d1:ae:a7:f7:
                    ba:73:10:1e:7a:35:59:e7:5d:af:14:54:1e:56:24:
                    dd:e3:f5:1f:ed:3b:4c:f4:15:76:b6:42:32:2a:88:
                    45:75:86:60:77:36:2e:a3:16:39:b0:01:fc:c8:7c:
                    b8:09:50:f0:a3:80:cb:6b:6d:1a:f2:db:a0:8b:8a:
                    6a:49:6d:cd:9f:ae:b3:dd:95:aa:0a:83:e4:db:7f:
                    73:ad:cb:21:a4:93:08:94:0d:6a:00:58:8a:28:fd:
                    e1:7f:7b:4c:38:d6:30:01:08:f9:17:c0:aa:96:db:
                    6c:28:19:87:3b:51:3e:f4:31:95:4c:b3:95:92:3b:
                    68:67:83:13:5c:80:55:c9:a7:36:18:60:82:b7:37:
                    b3:a4:b4:50:eb:36:41:77:ee:39:33:82:c6:fa:17:
                    81:5b:4a:01:c9:be:9c:b7:f5:64:27:80:d6:75:b3:
                    38:97:cf:03:3e:50:51:9d:7d:94:b7:e7:28:c4:a7:
                    09:63:cb:8a:1f:b0:60:0f:1a:10:2e:76:f4:bf:e1:
                    0f:a5:13:a3:b9:83:6c:70:e8:bc:81:76:f8:c9:77:
                    aa:3b:96:ac:44:4b:cc:7c:29:35:d5:45:8e:57:2e:
                    00:62:5f:bc:9a:c9:ab:2e:a0:cf:3c:22:f3:34:42:
                    98:b9:07:d7:80:de:3a:cf:f7:66:ba:5f:25:5c:84:
                    aa:82:71:e6:7d:57:01:a2:75:0a:25:b9:e0:4e:92:
                    89:e6:67:0d:15:08:52:ae:9a:e8:6a:87:52:6d:a2:
                    d7:54:8d:32:e6:57:83:2b:5b:e2:4d:ee:bf:46:91:
                    1d:d6:19:01:55:56:9e:d9:09:9e:8a:ae:ea:a7:53:
                    5b:31:89:e5:35:09:76:60:69:a5:2a:4a:0a:48:de:
                    e3:6c:8d:02:6a:f5:ec:9e:30:06:8d:c9:ea:b7:da:
                    83:3d:78:88:79:7a:cb:d6:d6:31:d8:30:f9:c1:63:
                    e3:71:ae:67:8f:bf:25:bf:ea:e3:22:6b:69:32:76:
                    c5:64:5a:30:c7:60:c7:db:5a:33:73:20:87:4f:e9:
                    70:43:c2:80:0f:e0:3a:d0:3c:19:94:c4:fa:63:9c:
                    9a:fc:8b
                Exponent: 65537 (0x10001)
        X509v3 extensions:
            X509v3 Basic Constraints: 
                CA:FALSE
            Netscape Comment: 
                VPN User Certificate
            Netscape Cert Type: 
                SSL Client
            X509v3 Key Usage: 
                Digital Signature
            X509v3 Extended Key Usage: 
                TLS Web Client Authentication
            X509v3 Subject Key Identifier: 
                F4:DD:5E:D6:0B:AE:99:73:98:91:B3:A6:22:F4:55:F4:CC:AC:E3:1C
            X509v3 Authority Key Identifier: 
                keyid:86:4F:B8:6D:18:2A:1B:3C:8F:27:34:29:F0:81:9F:BA:6E:61:0E:E1
                DirName:/C=CH/ST=Zug/L=Zug/O=Perfect Privacy/CN=Perfect Privacy/emailAddress=admin@perfect-privacy.com
                serial:FA:11:B5:C4:AA:69:AF:69

    Signature Algorithm: sha512WithRSAEncryption
         69:98:30:ae:84:de:3c:84:0e:e9:a1:34:93:8c:57:31:dc:04:
         1f:05:0a:b2:84:20:c4:ed:c7:e8:e5:a8:6f:ae:2c:45:f7:8b:
         25:b3:d7:ab:6c:94:f8:5f:66:25:81:93:b8:88:1b:e8:1c:8b:
         6f:65:19:27:ff:f3:54:30:40:4d:ac:d3:7c:65:bd:af:2f:22:
         ef:a7:03:05:a4:96:51:93:80:86:00:b3:3b:d4:88:91:78:d8:
         70:9b:76:07:af:ec:50:8d:c1:c3:8c:ca:16:fe:6f:d5:39:d3:
         ef:f2:e5:95:8e:1e:9d:83:51:6b:04:c7:ed:5b:c9:ac:df:f6:
         35:ce:6e:f3:ac:f2:8f:d1:af:10:a3:7b:f4:46:ef:c3:0b:1a:
         8c:9c:5e:0a:cc:d7:81:21:e3:0b:c5:0e:8d:66:9e:b8:71:7e:
         b2:76:f5:fb:41:28:17:cb:45:c5:7d:28:c7:6d:62:36:39:cb:
         24:a8:6f:79:b9:ec:03:99:b9:83:7c:ba:da:9f:a5:3f:c8:d8:
         fa:27:2f:67:ca:f2:b7:ce:c4:09:64:07:8f:f6:a8:6a:16:30:
         cc:c9:6e:56:e5:69:0a:6a:4b:a9:d0:d8:e5:96:68:a4:9a:05:
         9f:2f:46:3b:d2:d7:f9:46:8b:18:d2:4c:c1:ec:6c:72:33:5b:
         c4:f1:1d:f9:36:c6:90:64:c9:ef:99:9f:65:a6:4c:be:ec:30:
         e6:4d:7f:d6:66:06:66:4b:fd:26:ee:80:ee:08:f9:ce:f2:7e:
         d7:d1:cf:d3:ec:b0:28:dd:f6:b1:ed:28:0e:71:cb:fd:f6:1a:
         8c:b7:8d:f0:c1:02:96:07:7e:f1:ad:90:ea:8f:01:c7:4d:f6:
         cc:1f:b1:58:02:d3:e0:c8:dd:aa:b2:da:c3:91:eb:4a:78:21:
         96:73:a3:56:b9:fc:18:db:c8:1b:0e:79:de:8d:78:15:3b:69:
         1e:74:d3:bf:21:05:b7:d9:d3:a0:75:09:6b:f9:a0:20:4a:0b:
         0c:e1:9f:e6:7b:68:11:e4:21:28:38:47:95:61:be:47:a5:13:
         c3:31:a7:2f:82:d1:54:27:a6:3e:15:f8:87:99:88:a0:e2:45:
         1a:d8:12:4e:9c:c4:27:a6:78:ff:b8:9b:ad:fe:ad:92:d5:dc:
         b9:e5:ca:5f:ed:01:38:4a:22:54:dc:fa:37:c9:42:dd:0f:5f:
         0f:f6:e0:00:aa:58:cd:e7:4b:f5:49:3f:cf:da:bd:33:71:8d:
         8c:a0:05:1e:a8:48:59:7c:87:a9:ad:cb:47:b9:bf:46:93:5b:
         c7:d7:0a:59:64:7c:91:33:83:fa:41:55:dc:d4:c6:a8:7f:8f:
         dc:f1:25:3e:a0:45:76:a6
-----BEGIN CERTIFICATE-----
MIIG4jCCBMqgAwIBAgIJAPSiJFLWGxuXMA0GCSqGSIb3DQEBDQUAMIGHMQswCQYD
VQQGEwJDSDEMMAoGA1UECBMDWnVnMQwwCgYDVQQHEwNadWcxGDAWBgNVBAoTD1Bl
cmZlY3QgUHJpdmFjeTEYMBYGA1UEAxMPUGVyZmVjdCBQcml2YWN5MSgwJgYJKoZI
hvcNAQkBFhlhZG1pbkBwZXJmZWN0LXByaXZhY3kuY29tMB4XDTIzMDIxMDAwMDAw
MFoXDTI0MTAwNzAwMDAwMFowgY0xCzAJBgNVBAYTAkNIMQwwCgYDVQQIEwNadWcx
GDAWBgNVBAoTD1BlcmZlY3QgUHJpdmFjeTEsMCoGA1UEAxQjQ2xpZW50X2JlbGdy
YWRlLnBlcmZlY3QtcHJpdmFjeS5jb20xKDAmBgkqhkiG9w0BCQEWGWFkbWluQHBl
cmZlY3QtcHJpdmFjeS5jb20wggIiMA0GCSqGSIb3DQEBAQUAA4ICDwAwggIKAoIC
AQDFnW/Cj3rF3ioD61drm+96KGr7VWN0cu1vqnJJEdKDD6ivFhH2Y5bCG1zoFSQe
7tLwp4Ks+2q4hnD21grkbeQvbCV8ksMBv5J42KXFKiasg4HkO9pnF4Ow/Z5Wf6zM
1aOVW2i80a6n97pzEB56NVnnXa8UVB5WJN3j9R/tO0z0FXa2QjIqiEV1hmB3Ni6j
FjmwAfzIfLgJUPCjgMtrbRry26CLimpJbc2frrPdlaoKg+Tbf3OtyyGkkwiUDWoA
WIoo/eF/e0w41jABCPkXwKqW22woGYc7UT70MZVMs5WSO2hngxNcgFXJpzYYYIK3
N7OktFDrNkF37jkzgsb6F4FbSgHJvpy39WQngNZ1sziXzwM+UFGdfZS35yjEpwlj
y4ofsGAPGhAudvS/4Q+lE6O5g2xw6LyBdvjJd6o7lqxES8x8KTXVRY5XLgBiX7ya
yasuoM88IvM0Qpi5B9eA3jrP92a6XyVchKqCceZ9VwGidQolueBOkonmZw0VCFKu
muhqh1JtotdUjTLmV4MrW+JN7r9GkR3WGQFVVp7ZCZ6KruqnU1sxieU1CXZgaaUq
SgpI3uNsjQJq9eyeMAaNyeq32oM9eIh5esvW1jHYMPnBY+NxrmePvyW/6uMia2ky
dsVkWjDHYMfbWjNzIIdP6XBDwoAP4DrQPBmUxPpjnJr8iwIDAQABo4IBRzCCAUMw
CQYDVR0TBAIwADAjBglghkgBhvhCAQ0EFhYUVlBOIFVzZXIgQ2VydGlmaWNhdGUw
EQYJYIZIAYb4QgEBBAQDAgeAMAsGA1UdDwQEAwIHgDATBgNVHSUEDDAKBggrBgEF
BQcDAjAdBgNVHQ4EFgQU9N1e1guumXOYkbOmIvRV9Mys4xwwgbwGA1UdIwSBtDCB
sYAUhk+4bRgqGzyPJzQp8IGfum5hDuGhgY2kgYowgYcxCzAJBgNVBAYTAkNIMQww
CgYDVQQIEwNadWcxDDAKBgNVBAcTA1p1ZzEYMBYGA1UEChMPUGVyZmVjdCBQcml2
YWN5MRgwFgYDVQQDEw9QZXJmZWN0IFByaXZhY3kxKDAmBgkqhkiG9w0BCQEWGWFk
bWluQHBlcmZlY3QtcHJpdmFjeS5jb22CCQD6EbXEqmmvaTANBgkqhkiG9w0BAQ0F
AAOCAgEAaZgwroTePIQO6aE0k4xXMdwEHwUKsoQgxO3H6OWob64sRfeLJbPXq2yU
+F9mJYGTuIgb6ByLb2UZJ//zVDBATazTfGW9ry8i76cDBaSWUZOAhgCzO9SIkXjY
cJt2B6/sUI3Bw4zKFv5v1TnT7/LllY4enYNRawTH7VvJrN/2Nc5u86zyj9GvEKN7
9EbvwwsajJxeCszXgSHjC8UOjWaeuHF+snb1+0EoF8tFxX0ox21iNjnLJKhvebns
A5m5g3y62p+lP8jY+icvZ8ryt87ECWQHj/aoahYwzMluVuVpCmpLqdDY5ZZopJoF
ny9GO9LX+UaLGNJMwexscjNbxPEd+TbGkGTJ75mfZaZMvuww5k1/1mYGZkv9Ju6A
7gj5zvJ+19HP0+ywKN32se0oDnHL/fYajLeN8MEClgd+8a2Q6o8Bx032zB+xWALT
4MjdqrLaw5HrSnghlnOjVrn8GNvIGw553o14FTtpHnTTvyEFt9nToHUJa/mgIEoL
DOGf5ntoEeQhKDhHlWG+R6UTwzGnL4LRVCemPhX4h5mIoOJFGtgSTpzEJ6Z4/7ib
rf6tktXcueXKX+0BOEoiVNz6N8lC3Q9fD/bgAKpYzedL9Uk/z9q9M3GNjKAFHqhI
WXyHqa3LR7m/RpNbx9cKWWR8kTOD+kFV3NTGqH+P3PElPqBFdqY=
-----END CERTIFICATE-----
