Certificate:
    Data:
        Version: 3 (0x2)
        Serial Number:
            ae:45:5a:ed:c9:9c:45:5b
    Signature Algorithm: sha512WithRSAEncryption
        Issuer: C=CH, ST=Zug, L=Zug, O=Perfect Privacy, CN=Perfect Privacy/emailAddress=admin@perfect-privacy.com
        Validity
            Not Before: Jun  1 00:00:00 2024 GMT
            Not After : Jan 27 00:00:00 2026 GMT
        Subject: C=CH, ST=Zug, O=Perfect Privacy, CN=Client_berlin.perfect-privacy.com/emailAddress=admin@perfect-privacy.com
        Subject Public Key Info:
            Public Key Algorithm: rsaEncryption
                Public-Key: (4096 bit)
                Modulus:
                    00:fc:62:3b:62:df:de:11:58:ce:b3:c3:d2:a6:1c:
                    df:b4:10:f7:09:dd:2b:c8:d3:ff:c4:ff:7f:0f:29:
                    65:84:f7:60:bc:17:be:2c:7f:8a:05:15:aa:70:22:
                    d5:d5:d4:8d:8c:8e:74:26:c9:f8:f7:81:35:1c:c9:
                    2d:8b:55:59:24:ac:32:93:ce:bf:ed:ff:07:88:65:
                    4e:3c:b0:46:87:87:62:e6:74:c8:8b:c7:d6:9b:bf:
                    e0:7c:99:8d:a5:47:fc:aa:69:27:6d:3c:ee:66:ca:
                    7c:38:7f:3b:80:91:62:b3:35:81:9e:0c:0c:45:05:
                    42:42:c2:ee:75:09:31:3d:c1:61:cd:33:9d:e0:21:
                    dd:1c:7f:30:e3:59:8c:6a:af:d5:26:0a:6d:d9:ba:
                    23:db:ec:dd:6f:40:97:c0:33:23:1b:fd:7d:0b:13:
                    13:93:d0:9a:e4:cd:06:bb:35:89:f2:87:86:02:8f:
                    36:b7:e3:f7:cb:f6:82:52:50:89:16:1e:ba:5d:5e:
                    1c:2c:d2:a5:72:db:b8:02:38:6b:8b:bf:66:e8:58:
                    64:87:59:71:8d:39:c1:ea:c0:14:52:f6:91:72:cb:
                    ec:aa:f3:27:8a:0f:15:e4:20:e2:c0:25:c0:ae:83:
                    f4:9f:02:ce:94:e2:b5:a2:ae:e3:fc:92:18:a6:10:
                    ea:67:bf:a3:2d:0e:25:75:b5:5d:a0:e0:a6:aa:dd:
                    8c:74:e8:f1:82:aa:95:0f:03:a6:45:19:2c:19:ba:
                    80:82:36:27:b5:9a:21:00:ff:8f:3a:fa:8a:be:23:
                    b5:ae:56:b0:b4:86:92:f9:50:55:55:ab:f1:f4:c1:
                    fa:5c:6e:c3:14:13:56:ee:69:90:8b:14:ee:1c:ff:
                    b9:74:ce:62:36:9e:cc:a9:17:c6:69:0d:44:74:06:
                    a9:8c:af:db:fe:1e:7d:c5:5b:60:88:eb:78:6c:3f:
                    4a:ef:7c:04:fe:5d:e5:81:13:5c:14:c7:af:32:05:
                    bc:46:57:7b:06:79:f8:32:d1:08:56:56:ea:2c:3a:
                    0c:ae:79:c0:3c:6c:3f:a9:7b:99:d0:cc:d1:ca:20:
                    97:38:a4:9c:2c:a9:89:93:af:70:15:35:e7:bf:6b:
                    5b:43:81:67:ca:6e:49:d5:b4:f2:f4:1e:bb:e5:9d:
                    78:78:56:46:53:61:a0:3a:dd:f8:30:51:e2:ac:9e:
                    e0:4f:8a:c2:6e:52:e8:61:10:e5:ab:0b:ea:45:f3:
                    8a:04:74:a5:2c:48:98:f7:c1:76:ef:85:fb:05:80:
                    34:3a:b4:4e:97:da:85:3b:f6:63:5c:6e:dc:a1:75:
                    a1:64:d3:f4:04:31:a9:35:14:79:59:9a:15:9f:2a:
                    35:59:b7
                Exponent: 65537 (0x10001)
        X509v3 extensions:
            X509v3 Basic Constraints: 
                CA:FALSE
            Netscape Comment: 
                VPN User Certificate
            Netscape Cert Type: 
                SSL Client
            X509v3 Key Usage: 
                Digital Signature
            X509v3 Extended Key Usage: 
                TLS Web Client Authentication
            X509v3 Subject Key Identifier: 
                05:C0:C8:D9:21:15:45:E9:2C:C8:41:00:98:BC:54:4B:36:49:C0:5A
            X509v3 Authority Key Identifier: 
                keyid:86:4F:B8:6D:18:2A:1B:3C:8F:27:34:29:F0:81:9F:BA:6E:61:0E:E1
                DirName:/C=CH/ST=Zug/L=Zug/O=Perfect Privacy/CN=Perfect Privacy/emailAddress=admin@perfect-privacy.com
                serial:FA:11:B5:C4:AA:69:AF:69

    Signature Algorithm: sha512WithRSAEncryption
         9e:6b:4a:98:fd:fe:d1:d0:de:94:d9:ab:16:19:37:37:9d:15:
         31:08:33:a8:11:12:7c:30:4f:5a:d8:44:32:bb:6b:42:48:aa:
         c6:3a:b4:ce:ed:91:e8:a1:f0:b1:c6:c0:5f:ff:58:92:82:89:
         16:f6:94:18:0f:44:37:15:b0:43:6d:bd:90:30:1e:e0:a6:2a:
         d8:0d:2b:6d:bb:ff:dd:53:9c:2b:5d:2d:e9:b0:8c:6e:e9:57:
         f7:d7:ef:02:9c:bb:8a:3a:8d:b1:4d:cb:b7:f5:a6:88:60:9f:
         79:aa:7c:a6:31:07:ec:97:a7:8c:73:dd:4a:c3:52:d7:bd:72:
         39:5b:0e:87:a5:17:be:5b:2a:ca:68:00:30:04:ac:70:8b:a6:
         5d:4b:eb:03:48:e2:22:7f:3d:fc:47:cf:2e:a5:30:7f:9c:3d:
         ce:d8:65:5c:4c:34:b9:d8:55:6b:01:42:3a:2f:26:97:5a:02:
         42:dc:44:17:58:03:2d:27:f4:6c:7e:8a:d6:11:e1:7f:3f:bf:
         7e:7b:ba:0b:a4:d5:cd:80:56:35:02:85:0e:a9:34:c8:c4:6e:
         b6:a8:93:64:2d:f0:9a:9b:79:bd:c3:25:42:ef:22:cb:6f:24:
         76:9c:cc:55:64:ae:65:e1:33:c5:bb:23:83:6f:59:2f:63:9a:
         a6:3f:7d:de:a5:5b:63:06:a9:ed:f7:5f:8c:17:ee:59:09:77:
         aa:40:34:91:50:b7:9e:c7:4c:a8:0a:41:aa:31:6c:77:6a:ce:
         d2:2f:3e:0e:28:44:8c:8e:a4:31:5e:c7:34:72:33:06:e9:03:
         89:59:c1:6f:da:3d:31:ca:b9:37:f2:e6:51:56:4f:ed:42:6b:
         3e:f7:5f:e4:c2:eb:e1:ab:49:c4:2e:c5:98:75:45:26:8f:00:
         6c:21:a6:b8:df:4d:03:d8:94:c4:9f:38:1d:d0:de:30:4a:5b:
         21:49:03:59:5b:38:83:c5:75:98:62:68:aa:d1:3d:c5:d3:49:
         d4:f4:7b:c1:27:55:a3:1b:31:e4:ed:e1:fd:8a:57:3c:4b:c0:
         8b:c8:a9:8f:92:1c:38:a0:66:5e:e8:6d:ce:fe:44:8a:61:0a:
         ed:89:9f:38:66:2d:63:39:62:2b:cb:05:93:a5:d0:0f:e8:04:
         2d:d6:38:fc:d0:a6:22:49:ef:16:39:36:6c:9c:1d:32:41:cd:
         87:ba:17:2c:14:f3:da:a4:42:f8:65:34:78:a2:28:50:02:e1:
         e1:d0:aa:dc:e5:90:9d:f3:0e:6b:10:c4:92:5f:cc:8d:b9:b5:
         18:93:93:87:67:2e:69:97:c3:10:fa:1d:f6:4c:36:45:ee:ed:
         a5:fb:f5:5c:77:b3:04:d5
-----BEGIN CERTIFICATE-----
MIIG4DCCBMigAwIBAgIJAK5FWu3JnEVbMA0GCSqGSIb3DQEBDQUAMIGHMQswCQYD
VQQGEwJDSDEMMAoGA1UECBMDWnVnMQwwCgYDVQQHEwNadWcxGDAWBgNVBAoTD1Bl
cmZlY3QgUHJpdmFjeTEYMBYGA1UEAxMPUGVyZmVjdCBQcml2YWN5MSgwJgYJKoZI
hvcNAQkBFhlhZG1pbkBwZXJmZWN0LXByaXZhY3kuY29tMB4XDTI0MDYwMTAwMDAw
MFoXDTI2MDEyNzAwMDAwMFowgYsxCzAJBgNVBAYTAkNIMQwwCgYDVQQIEwNadWcx
GDAWBgNVBAoTD1BlcmZlY3QgUHJpdmFjeTEqMCgGA1UEAxQhQ2xpZW50X2Jlcmxp
bi5wZXJmZWN0LXByaXZhY3kuY29tMSgwJgYJKoZIhvcNAQkBFhlhZG1pbkBwZXJm
ZWN0LXByaXZhY3kuY29tMIICIjANBgkqhkiG9w0BAQEFAAOCAg8AMIICCgKCAgEA
/GI7Yt/eEVjOs8PSphzftBD3Cd0ryNP/xP9/DyllhPdgvBe+LH+KBRWqcCLV1dSN
jI50Jsn494E1HMkti1VZJKwyk86/7f8HiGVOPLBGh4di5nTIi8fWm7/gfJmNpUf8
qmknbTzuZsp8OH87gJFiszWBngwMRQVCQsLudQkxPcFhzTOd4CHdHH8w41mMaq/V
Jgpt2boj2+zdb0CXwDMjG/19CxMTk9Ca5M0GuzWJ8oeGAo82t+P3y/aCUlCJFh66
XV4cLNKlctu4Ajhri79m6Fhkh1lxjTnB6sAUUvaRcsvsqvMnig8V5CDiwCXAroP0
nwLOlOK1oq7j/JIYphDqZ7+jLQ4ldbVdoOCmqt2MdOjxgqqVDwOmRRksGbqAgjYn
tZohAP+POvqKviO1rlawtIaS+VBVVavx9MH6XG7DFBNW7mmQixTuHP+5dM5iNp7M
qRfGaQ1EdAapjK/b/h59xVtgiOt4bD9K73wE/l3lgRNcFMevMgW8Rld7Bnn4MtEI
VlbqLDoMrnnAPGw/qXuZ0MzRyiCXOKScLKmJk69wFTXnv2tbQ4Fnym5J1bTy9B67
5Z14eFZGU2GgOt34MFHirJ7gT4rCblLoYRDlqwvqRfOKBHSlLEiY98F274X7BYA0
OrROl9qFO/ZjXG7coXWhZNP0BDGpNRR5WZoVnyo1WbcCAwEAAaOCAUcwggFDMAkG
A1UdEwQCMAAwIwYJYIZIAYb4QgENBBYWFFZQTiBVc2VyIENlcnRpZmljYXRlMBEG
CWCGSAGG+EIBAQQEAwIHgDALBgNVHQ8EBAMCB4AwEwYDVR0lBAwwCgYIKwYBBQUH
AwIwHQYDVR0OBBYEFAXAyNkhFUXpLMhBAJi8VEs2ScBaMIG8BgNVHSMEgbQwgbGA
FIZPuG0YKhs8jyc0KfCBn7puYQ7hoYGNpIGKMIGHMQswCQYDVQQGEwJDSDEMMAoG
A1UECBMDWnVnMQwwCgYDVQQHEwNadWcxGDAWBgNVBAoTD1BlcmZlY3QgUHJpdmFj
eTEYMBYGA1UEAxMPUGVyZmVjdCBQcml2YWN5MSgwJgYJKoZIhvcNAQkBFhlhZG1p
bkBwZXJmZWN0LXByaXZhY3kuY29tggkA+hG1xKppr2kwDQYJKoZIhvcNAQENBQAD
ggIBAJ5rSpj9/tHQ3pTZqxYZNzedFTEIM6gREnwwT1rYRDK7a0JIqsY6tM7tkeih
8LHGwF//WJKCiRb2lBgPRDcVsENtvZAwHuCmKtgNK227/91TnCtdLemwjG7pV/fX
7wKcu4o6jbFNy7f1pohgn3mqfKYxB+yXp4xz3UrDUte9cjlbDoelF75bKspoADAE
rHCLpl1L6wNI4iJ/PfxHzy6lMH+cPc7YZVxMNLnYVWsBQjovJpdaAkLcRBdYAy0n
9Gx+itYR4X8/v357uguk1c2AVjUChQ6pNMjEbraok2Qt8Jqbeb3DJULvIstvJHac
zFVkrmXhM8W7I4NvWS9jmqY/fd6lW2MGqe33X4wX7lkJd6pANJFQt57HTKgKQaox
bHdqztIvPg4oRIyOpDFexzRyMwbpA4lZwW/aPTHKuTfy5lFWT+1Caz73X+TC6+Gr
ScQuxZh1RSaPAGwhprjfTQPYlMSfOB3Q3jBKWyFJA1lbOIPFdZhiaKrRPcXTSdT0
e8EnVaMbMeTt4f2KVzxLwIvIqY+SHDigZl7obc7+RIphCu2JnzhmLWM5YivLBZOl
0A/oBC3WOPzQpiJJ7xY5NmycHTJBzYe6FywU89qkQvhlNHiiKFAC4eHQqtzlkJ3z
DmsQxJJfzI25tRiTk4dnLmmXwxD6HfZMNkXu7aX79Vx3swTV
-----END CERTIFICATE-----
