Certificate:
    Data:
        Version: 3 (0x2)
        Serial Number:
            d5:a4:8a:48:fb:92:79:ba
    Signature Algorithm: sha512WithRSAEncryption
        Issuer: C=CH, ST=Zug, L=Zug, O=Perfect Privacy, CN=Perfect Privacy/emailAddress=admin@perfect-privacy.com
        Validity
            Not Before: Jun 22 00:00:00 2024 GMT
            Not After : Feb 17 00:00:00 2026 GMT
        Subject: C=CH, ST=Zug, O=Perfect Privacy, CN=Client_belgrade.perfect-privacy.com/emailAddress=admin@perfect-privacy.com
        Subject Public Key Info:
            Public Key Algorithm: rsaEncryption
                Public-Key: (4096 bit)
                Modulus:
                    00:a0:81:49:8d:76:89:ef:f1:18:84:58:64:03:d9:
                    a6:51:0d:e8:29:ff:56:f2:b8:c1:9f:c6:e2:93:2e:
                    17:58:3a:31:a6:cd:62:2d:cb:4d:68:b2:96:55:55:
                    89:22:63:f2:47:15:40:61:00:13:65:5d:03:0b:17:
                    08:66:c1:bd:d5:66:a6:38:34:61:5c:65:81:7e:4e:
                    1a:1a:dc:32:87:51:69:bf:b6:78:e9:c8:c4:9d:d4:
                    28:31:60:66:25:f1:de:a8:d4:5c:4f:cb:01:fc:8a:
                    2c:41:1b:4a:7f:4a:85:89:c1:ad:da:bd:72:07:d8:
                    9c:65:4c:15:4a:33:fe:04:71:0c:b9:2a:3a:3e:dc:
                    08:98:64:62:87:b1:d5:10:5b:cb:30:ad:98:1c:ef:
                    94:38:25:28:79:3e:6f:59:17:a3:2a:8c:82:01:22:
                    1a:d1:6f:b4:f3:0f:66:bd:78:c2:7b:f1:bc:c7:be:
                    b4:ea:e1:b9:a0:05:65:81:09:1b:56:1d:ae:33:42:
                    1c:28:44:43:3e:22:93:88:de:d1:2e:be:f0:a6:a8:
                    4d:41:20:78:5f:31:8c:84:3c:9f:e2:06:13:51:3d:
                    c0:22:fd:2c:6c:0c:c7:8a:7b:cd:ef:25:df:fc:31:
                    1f:15:fb:18:fa:b8:2b:f7:01:b2:89:e0:89:69:f6:
                    1a:81:c3:dd:4a:6d:d2:c8:44:40:ef:ba:fe:a1:84:
                    49:4f:26:39:5c:61:84:c0:e6:d9:77:41:ea:a4:b0:
                    92:18:07:cb:f4:76:c2:b0:d9:7a:67:ba:b8:ac:f7:
                    7e:85:dc:86:e0:d1:f1:ef:38:fe:46:d0:11:45:ce:
                    f1:24:32:cb:c8:bb:cf:46:93:02:c7:d5:ba:ad:88:
                    f2:1d:00:88:93:d8:02:4a:9d:94:55:75:32:7c:05:
                    1a:35:67:eb:09:c9:47:7a:e2:86:05:3a:e9:9c:fe:
                    c1:00:f8:bf:02:5c:9f:38:6e:47:ac:b9:f7:7e:0c:
                    83:d5:28:87:d2:0b:1d:05:e0:dc:15:a9:35:df:24:
                    0b:cb:7b:74:18:7e:02:e3:5e:4e:dd:00:35:f0:97:
                    d5:c3:8b:9b:27:22:30:7f:53:c4:97:70:03:00:32:
                    db:7a:7e:b1:84:db:07:d5:58:17:11:ef:bd:08:67:
                    d6:2e:e1:10:33:6f:3b:d6:1e:ad:d1:95:d4:f7:59:
                    ee:bf:0f:f1:f7:eb:8e:c8:3d:43:1d:3c:38:ee:31:
                    58:a0:47:6e:ba:ee:3e:af:83:ad:29:81:40:27:e5:
                    a1:63:98:0e:19:69:d6:69:e5:32:55:54:37:7d:e4:
                    94:52:90:01:75:f7:76:e8:c0:ef:fd:e6:81:97:bb:
                    4d:ae:45
                Exponent: 65537 (0x10001)
        X509v3 extensions:
            X509v3 Basic Constraints: 
                CA:FALSE
            Netscape Comment: 
                VPN User Certificate
            Netscape Cert Type: 
                SSL Client
            X509v3 Key Usage: 
                Digital Signature
            X509v3 Extended Key Usage: 
                TLS Web Client Authentication
            X509v3 Subject Key Identifier: 
                2E:AF:47:8E:63:79:D6:01:6A:EF:4C:CB:22:FE:91:2B:90:53:F7:37
            X509v3 Authority Key Identifier: 
                keyid:86:4F:B8:6D:18:2A:1B:3C:8F:27:34:29:F0:81:9F:BA:6E:61:0E:E1
                DirName:/C=CH/ST=Zug/L=Zug/O=Perfect Privacy/CN=Perfect Privacy/emailAddress=admin@perfect-privacy.com
                serial:FA:11:B5:C4:AA:69:AF:69

    Signature Algorithm: sha512WithRSAEncryption
         67:1c:c1:16:fd:5e:42:23:4c:8f:cb:0e:ff:09:04:46:e5:d7:
         8b:66:77:0b:a1:0c:ef:d3:63:d2:6d:7c:57:ef:92:c9:42:a9:
         7b:38:f4:8e:78:d1:db:b7:76:0f:2a:18:68:6e:bf:8d:76:6f:
         a6:90:02:22:36:ab:61:42:0a:3e:e5:fe:b7:1c:d4:ca:72:d8:
         8f:cc:7d:12:b5:ed:02:a2:24:df:0d:a5:88:0f:c8:d4:d2:a1:
         75:ec:0e:55:f2:c8:8d:08:95:c2:0c:8c:8b:24:54:5e:f1:e5:
         d4:8f:21:f3:3b:d4:07:d8:70:9a:f7:3b:30:a0:7b:5e:ad:de:
         62:b1:17:ee:7f:01:16:6a:f9:e9:bb:61:a5:41:61:69:82:1b:
         6e:d2:be:a3:4f:dd:07:e7:3e:ca:29:82:36:ae:80:27:9b:dd:
         0d:e0:03:a9:32:ae:60:13:19:c8:bb:5a:f4:42:8f:a3:24:c0:
         dd:c8:34:84:19:af:e2:d1:4e:c5:4e:08:e7:06:d7:9c:97:a9:
         e7:c3:c3:f2:5e:b7:b5:ae:7b:6f:34:cb:f5:ad:a3:f9:d0:3d:
         3e:87:37:57:80:2b:05:0e:ab:9b:7c:f9:db:4f:6d:56:9d:16:
         f5:1f:2d:99:e5:e2:09:e6:92:5b:6e:31:be:ea:b3:5d:6d:3d:
         9d:b1:17:27:41:e9:6f:f5:05:fb:dd:3c:7d:15:b3:34:70:f6:
         77:4c:ef:f4:4d:aa:1a:75:8c:5e:e2:b7:da:9e:07:32:41:1a:
         b0:7b:92:ad:8c:9d:dd:f9:b3:9c:05:1f:47:5a:fc:06:fe:23:
         34:ce:8c:a7:c2:b7:71:3b:95:49:49:f1:0b:a0:46:5f:f3:2f:
         24:89:fe:a5:85:97:24:e2:1e:6e:13:2a:b3:9e:2b:1a:b5:45:
         bc:cf:c0:cc:73:65:cb:6b:ef:29:31:8b:f0:91:ef:a6:d8:e9:
         ff:fb:11:fb:4f:c7:9a:8b:f0:12:38:10:ab:ad:e3:e0:cb:36:
         43:dc:c6:45:dc:96:0e:70:4d:ad:7e:e3:cd:1c:2a:c8:12:98:
         2d:aa:11:40:e9:b9:bc:81:29:84:04:3f:ef:79:77:42:c4:79:
         e5:bf:e3:a8:17:0a:58:a5:11:64:cd:7f:7a:22:17:8c:d8:e6:
         6e:48:3d:ed:f8:4b:0d:34:2d:8d:61:f4:2b:51:11:11:c4:d7:
         7f:38:43:e2:a6:6d:63:69:dc:98:6a:9f:e9:63:e3:77:71:7d:
         ad:29:c2:1f:3e:93:05:34:d5:4d:2d:df:61:de:fa:8a:c5:04:
         ac:ed:ba:8e:c3:4f:cc:67:66:d9:b9:13:da:bc:1d:75:55:e0:
         7a:0f:39:d3:87:7b:b8:a3
-----BEGIN CERTIFICATE-----
MIIG4jCCBMqgAwIBAgIJANWkikj7knm6MA0GCSqGSIb3DQEBDQUAMIGHMQswCQYD
VQQGEwJDSDEMMAoGA1UECBMDWnVnMQwwCgYDVQQHEwNadWcxGDAWBgNVBAoTD1Bl
cmZlY3QgUHJpdmFjeTEYMBYGA1UEAxMPUGVyZmVjdCBQcml2YWN5MSgwJgYJKoZI
hvcNAQkBFhlhZG1pbkBwZXJmZWN0LXByaXZhY3kuY29tMB4XDTI0MDYyMjAwMDAw
MFoXDTI2MDIxNzAwMDAwMFowgY0xCzAJBgNVBAYTAkNIMQwwCgYDVQQIEwNadWcx
GDAWBgNVBAoTD1BlcmZlY3QgUHJpdmFjeTEsMCoGA1UEAxQjQ2xpZW50X2JlbGdy
YWRlLnBlcmZlY3QtcHJpdmFjeS5jb20xKDAmBgkqhkiG9w0BCQEWGWFkbWluQHBl
cmZlY3QtcHJpdmFjeS5jb20wggIiMA0GCSqGSIb3DQEBAQUAA4ICDwAwggIKAoIC
AQCggUmNdonv8RiEWGQD2aZRDegp/1byuMGfxuKTLhdYOjGmzWIty01ospZVVYki
Y/JHFUBhABNlXQMLFwhmwb3VZqY4NGFcZYF+Thoa3DKHUWm/tnjpyMSd1CgxYGYl
8d6o1FxPywH8iixBG0p/SoWJwa3avXIH2JxlTBVKM/4EcQy5Kjo+3AiYZGKHsdUQ
W8swrZgc75Q4JSh5Pm9ZF6MqjIIBIhrRb7TzD2a9eMJ78bzHvrTq4bmgBWWBCRtW
Ha4zQhwoREM+IpOI3tEuvvCmqE1BIHhfMYyEPJ/iBhNRPcAi/SxsDMeKe83vJd/8
MR8V+xj6uCv3AbKJ4Ilp9hqBw91KbdLIREDvuv6hhElPJjlcYYTA5tl3QeqksJIY
B8v0dsKw2Xpnuris936F3Ibg0fHvOP5G0BFFzvEkMsvIu89GkwLH1bqtiPIdAIiT
2AJKnZRVdTJ8BRo1Z+sJyUd64oYFOumc/sEA+L8CXJ84bkesufd+DIPVKIfSCx0F
4NwVqTXfJAvLe3QYfgLjXk7dADXwl9XDi5snIjB/U8SXcAMAMtt6frGE2wfVWBcR
770IZ9Yu4RAzbzvWHq3RldT3We6/D/H3647IPUMdPDjuMVigR2667j6vg60pgUAn
5aFjmA4ZadZp5TJVVDd95JRSkAF193bowO/95oGXu02uRQIDAQABo4IBRzCCAUMw
CQYDVR0TBAIwADAjBglghkgBhvhCAQ0EFhYUVlBOIFVzZXIgQ2VydGlmaWNhdGUw
EQYJYIZIAYb4QgEBBAQDAgeAMAsGA1UdDwQEAwIHgDATBgNVHSUEDDAKBggrBgEF
BQcDAjAdBgNVHQ4EFgQULq9HjmN51gFq70zLIv6RK5BT9zcwgbwGA1UdIwSBtDCB
sYAUhk+4bRgqGzyPJzQp8IGfum5hDuGhgY2kgYowgYcxCzAJBgNVBAYTAkNIMQww
CgYDVQQIEwNadWcxDDAKBgNVBAcTA1p1ZzEYMBYGA1UEChMPUGVyZmVjdCBQcml2
YWN5MRgwFgYDVQQDEw9QZXJmZWN0IFByaXZhY3kxKDAmBgkqhkiG9w0BCQEWGWFk
bWluQHBlcmZlY3QtcHJpdmFjeS5jb22CCQD6EbXEqmmvaTANBgkqhkiG9w0BAQ0F
AAOCAgEAZxzBFv1eQiNMj8sO/wkERuXXi2Z3C6EM79Nj0m18V++SyUKpezj0jnjR
27d2DyoYaG6/jXZvppACIjarYUIKPuX+txzUynLYj8x9ErXtAqIk3w2liA/I1NKh
dewOVfLIjQiVwgyMiyRUXvHl1I8h8zvUB9hwmvc7MKB7Xq3eYrEX7n8BFmr56bth
pUFhaYIbbtK+o0/dB+c+yimCNq6AJ5vdDeADqTKuYBMZyLta9EKPoyTA3cg0hBmv
4tFOxU4I5wbXnJep58PD8l63ta57bzTL9a2j+dA9Poc3V4ArBQ6rm3z5209tVp0W
9R8tmeXiCeaSW24xvuqzXW09nbEXJ0Hpb/UF+908fRWzNHD2d0zv9E2qGnWMXuK3
2p4HMkEasHuSrYyd3fmznAUfR1r8Bv4jNM6Mp8K3cTuVSUnxC6BGX/MvJIn+pYWX
JOIebhMqs54rGrVFvM/AzHNly2vvKTGL8JHvptjp//sR+0/HmovwEjgQq63j4Ms2
Q9zGRdyWDnBNrX7jzRwqyBKYLaoRQOm5vIEphAQ/73l3QsR55b/jqBcKWKURZM1/
eiIXjNjmbkg97fhLDTQtjWH0K1EREcTXfzhD4qZtY2ncmGqf6WPjd3F9rSnCHz6T
BTTVTS3fYd76isUErO26jsNPzGdm2bkT2rwddVXgeg8504d7uKM=
-----END CERTIFICATE-----
