Certificate:
    Data:
        Version: 3 (0x2)
        Serial Number: 8948326103709005739 (0x7c2ed72e59ee37ab)
    Signature Algorithm: sha512WithRSAEncryption
        Issuer: C=CH, ST=Zug, L=Zug, O=Perfect Privacy, CN=Perfect Privacy/emailAddress=admin@perfect-privacy.com
        Validity
            Not Before: Mar  1 00:00:00 2023 GMT
            Not After : Oct 26 00:00:00 2024 GMT
        Subject: C=CH, ST=Zug, O=Perfect Privacy, CN=Client_bucharest.perfect-privacy.com/emailAddress=admin@perfect-privacy.com
        Subject Public Key Info:
            Public Key Algorithm: rsaEncryption
                Public-Key: (4096 bit)
                Modulus:
                    00:bd:d4:06:90:80:08:33:59:9d:29:31:34:4b:85:
                    23:45:3f:6f:f7:cc:8a:ab:79:0e:72:d3:9e:f1:a9:
                    e8:a0:cf:54:5f:39:8e:a8:1c:07:18:61:90:e3:3b:
                    62:d7:02:72:53:32:84:ab:79:9a:34:a3:b0:24:4c:
                    e2:3e:1f:e9:c2:ba:b3:5e:e4:9e:4c:5b:37:dd:c9:
                    39:4b:90:35:90:f5:b7:5a:95:9d:be:fb:b4:ac:cc:
                    07:d3:37:5f:09:25:4d:ef:f5:4b:0e:1f:44:47:f8:
                    38:3b:97:57:cf:d4:1c:cb:73:7e:02:b3:f8:0b:e6:
                    e1:0d:94:cd:99:e0:40:ef:14:82:bc:9b:2f:9f:62:
                    28:85:90:25:96:e1:6a:37:91:4c:f1:ee:ec:1f:4b:
                    59:6d:ca:13:15:83:45:ee:13:cf:47:f9:74:31:b4:
                    16:39:49:b1:6f:04:b8:4d:02:4b:e2:fd:8d:db:12:
                    de:f7:8b:6f:06:8d:79:84:3a:bc:a8:23:27:32:de:
                    25:42:e2:36:4d:e4:98:3c:e1:c8:98:78:2f:0b:29:
                    f3:9d:3d:ba:e1:5f:0d:b1:46:73:3b:d1:0e:ed:51:
                    b3:e9:4c:bc:81:b9:b8:dc:42:c4:db:8b:cc:f2:83:
                    c6:1a:a1:ba:65:30:ad:94:a9:84:fa:08:ea:f7:b4:
                    87:6a:44:ab:a8:a6:01:cd:cf:f8:30:ca:bc:ef:d5:
                    7b:9f:fa:ac:50:6e:14:bb:35:8d:27:54:6d:02:7d:
                    03:bf:cc:1e:72:df:a6:d3:cb:31:21:cb:26:23:ad:
                    7c:b7:11:4d:a5:d0:4f:8b:fa:08:dd:f0:9d:c1:c5:
                    0e:a3:b5:42:15:39:2c:0c:ab:4a:de:df:41:40:b6:
                    86:da:be:e7:5d:ce:63:59:71:c7:23:98:94:01:24:
                    4a:f8:bd:03:da:05:d3:9a:9f:49:40:c0:00:26:85:
                    97:8a:65:0f:54:f5:23:69:7e:93:20:a7:75:12:a4:
                    ef:92:90:ac:54:21:c0:9b:d2:5b:15:07:a0:d6:bf:
                    fd:fd:53:b1:f6:b8:45:71:97:9b:21:ed:99:03:36:
                    3e:f4:00:6a:dc:0c:6d:4c:2f:5f:86:05:ea:0f:97:
                    e9:39:92:12:54:22:cb:01:2c:94:09:2e:bb:89:46:
                    9d:8a:c9:51:c3:a2:4d:3b:12:2f:df:70:39:c6:db:
                    19:a1:d5:23:a5:54:a0:e9:fd:fa:8b:2e:52:0a:23:
                    6d:e7:70:ce:3f:41:42:4e:fd:39:b6:0e:25:30:f1:
                    bc:aa:6c:a8:8f:77:47:99:89:4a:cb:04:36:8b:59:
                    d7:78:47:86:54:71:65:76:7d:31:f4:3c:dd:b8:61:
                    a6:38:8b
                Exponent: 65537 (0x10001)
        X509v3 extensions:
            X509v3 Basic Constraints: 
                CA:FALSE
            Netscape Comment: 
                VPN User Certificate
            Netscape Cert Type: 
                SSL Client
            X509v3 Key Usage: 
                Digital Signature
            X509v3 Extended Key Usage: 
                TLS Web Client Authentication
            X509v3 Subject Key Identifier: 
                63:AF:64:EC:E9:B7:E3:3B:01:72:12:A2:DC:7F:7E:5A:22:0F:B8:5D
            X509v3 Authority Key Identifier: 
                keyid:86:4F:B8:6D:18:2A:1B:3C:8F:27:34:29:F0:81:9F:BA:6E:61:0E:E1
                DirName:/C=CH/ST=Zug/L=Zug/O=Perfect Privacy/CN=Perfect Privacy/emailAddress=admin@perfect-privacy.com
                serial:FA:11:B5:C4:AA:69:AF:69

    Signature Algorithm: sha512WithRSAEncryption
         6b:86:bb:13:ec:0d:12:fe:da:1e:c2:f3:ac:6c:c3:61:5b:05:
         5b:5d:8e:bf:b0:24:82:69:86:a5:cf:e4:cd:46:a2:42:d7:db:
         2d:1b:0c:a4:c5:80:4f:29:83:b1:14:cb:5c:74:8d:a1:ca:57:
         da:26:ca:13:25:df:71:38:ee:5b:ea:49:56:20:31:cd:85:25:
         db:66:4d:ec:d9:0a:81:2d:e1:0b:fd:f5:c6:ae:9d:4a:5b:88:
         c2:13:14:a2:39:a5:70:f4:8f:c6:ab:3a:e1:b6:56:83:bc:ae:
         f6:c3:c5:96:e9:b2:92:92:d9:a3:fc:eb:bd:1a:ee:31:b8:bf:
         b6:d6:db:03:33:22:d9:dd:2d:46:76:f0:74:b0:b6:de:19:70:
         c7:75:3b:55:2a:5a:33:01:83:7f:f8:c9:b9:cc:6a:74:ed:d7:
         65:f9:78:b6:6d:80:0f:bd:0c:a7:4a:1c:58:12:08:8e:5e:4f:
         dd:c7:17:31:9e:c3:61:22:fe:ab:70:5e:79:e0:9c:3d:0a:96:
         a4:93:82:13:56:9d:d5:97:b5:3f:b0:6b:b1:bc:b9:f9:ef:4d:
         60:2b:a1:b1:c2:dc:45:cf:1f:19:17:55:82:75:5e:65:2b:e1:
         9f:55:b9:bf:67:87:b9:d0:13:3d:1e:72:35:50:59:93:01:c5:
         c3:f0:b2:ee:de:fd:44:21:11:eb:8c:0c:55:ee:22:dd:e5:2a:
         85:e6:ef:47:71:15:48:a9:65:73:be:05:a9:f4:ab:84:ca:4e:
         dd:1c:50:a3:54:b4:06:b0:ae:02:44:d0:c6:0b:14:e5:0e:70:
         7c:43:b3:2d:1d:33:2d:77:c1:73:7d:49:42:6b:1f:28:bc:ae:
         30:94:0f:84:6f:a0:49:7a:66:9b:f1:96:ba:a0:62:2d:0e:97:
         72:65:7e:66:d2:33:d0:70:04:57:03:02:b1:b1:0a:44:29:3e:
         bd:dc:48:db:04:bc:da:77:a5:f7:8f:78:3e:5b:0e:34:c0:85:
         16:ec:7a:af:89:a1:01:1b:2c:27:5a:62:d2:d0:c8:b0:6c:71:
         7b:dd:77:ef:00:9e:db:2f:53:18:44:d3:8c:c0:d9:f5:cf:aa:
         ef:3a:9f:3f:d1:e5:06:80:10:69:0d:45:28:3f:d5:19:9f:1c:
         10:bf:b7:ae:86:0d:9e:a1:b6:fb:8a:3c:5b:02:d2:d2:f1:95:
         62:6a:6a:5c:e3:c9:2e:19:10:c5:ed:93:30:90:89:66:3a:3d:
         f5:cc:d8:d4:fd:c3:fa:c8:7f:83:86:5f:7e:42:78:6e:fe:36:
         e7:23:d4:a9:ee:68:9e:cb:56:64:bc:39:3f:c3:1f:99:30:81:
         07:18:66:6e:de:de:17:9f
-----BEGIN CERTIFICATE-----
MIIG4jCCBMqgAwIBAgIIfC7XLlnuN6swDQYJKoZIhvcNAQENBQAwgYcxCzAJBgNV
BAYTAkNIMQwwCgYDVQQIEwNadWcxDDAKBgNVBAcTA1p1ZzEYMBYGA1UEChMPUGVy
ZmVjdCBQcml2YWN5MRgwFgYDVQQDEw9QZXJmZWN0IFByaXZhY3kxKDAmBgkqhkiG
9w0BCQEWGWFkbWluQHBlcmZlY3QtcHJpdmFjeS5jb20wHhcNMjMwMzAxMDAwMDAw
WhcNMjQxMDI2MDAwMDAwWjCBjjELMAkGA1UEBhMCQ0gxDDAKBgNVBAgTA1p1ZzEY
MBYGA1UEChMPUGVyZmVjdCBQcml2YWN5MS0wKwYDVQQDFCRDbGllbnRfYnVjaGFy
ZXN0LnBlcmZlY3QtcHJpdmFjeS5jb20xKDAmBgkqhkiG9w0BCQEWGWFkbWluQHBl
cmZlY3QtcHJpdmFjeS5jb20wggIiMA0GCSqGSIb3DQEBAQUAA4ICDwAwggIKAoIC
AQC91AaQgAgzWZ0pMTRLhSNFP2/3zIqreQ5y057xqeigz1RfOY6oHAcYYZDjO2LX
AnJTMoSreZo0o7AkTOI+H+nCurNe5J5MWzfdyTlLkDWQ9bdalZ2++7SszAfTN18J
JU3v9UsOH0RH+Dg7l1fP1BzLc34Cs/gL5uENlM2Z4EDvFIK8my+fYiiFkCWW4Wo3
kUzx7uwfS1ltyhMVg0XuE89H+XQxtBY5SbFvBLhNAkvi/Y3bEt73i28GjXmEOryo
Iycy3iVC4jZN5Jg84ciYeC8LKfOdPbrhXw2xRnM70Q7tUbPpTLyBubjcQsTbi8zy
g8YaobplMK2UqYT6COr3tIdqRKuopgHNz/gwyrzv1Xuf+qxQbhS7NY0nVG0CfQO/
zB5y36bTyzEhyyYjrXy3EU2l0E+L+gjd8J3BxQ6jtUIVOSwMq0re30FAtobavudd
zmNZcccjmJQBJEr4vQPaBdOan0lAwAAmhZeKZQ9U9SNpfpMgp3USpO+SkKxUIcCb
0lsVB6DWv/39U7H2uEVxl5sh7ZkDNj70AGrcDG1ML1+GBeoPl+k5khJUIssBLJQJ
LruJRp2KyVHDok07Ei/fcDnG2xmh1SOlVKDp/fqLLlIKI23ncM4/QUJO/Tm2DiUw
8byqbKiPd0eZiUrLBDaLWdd4R4ZUcWV2fTH0PN24YaY4iwIDAQABo4IBRzCCAUMw
CQYDVR0TBAIwADAjBglghkgBhvhCAQ0EFhYUVlBOIFVzZXIgQ2VydGlmaWNhdGUw
EQYJYIZIAYb4QgEBBAQDAgeAMAsGA1UdDwQEAwIHgDATBgNVHSUEDDAKBggrBgEF
BQcDAjAdBgNVHQ4EFgQUY69k7Om34zsBchKi3H9+WiIPuF0wgbwGA1UdIwSBtDCB
sYAUhk+4bRgqGzyPJzQp8IGfum5hDuGhgY2kgYowgYcxCzAJBgNVBAYTAkNIMQww
CgYDVQQIEwNadWcxDDAKBgNVBAcTA1p1ZzEYMBYGA1UEChMPUGVyZmVjdCBQcml2
YWN5MRgwFgYDVQQDEw9QZXJmZWN0IFByaXZhY3kxKDAmBgkqhkiG9w0BCQEWGWFk
bWluQHBlcmZlY3QtcHJpdmFjeS5jb22CCQD6EbXEqmmvaTANBgkqhkiG9w0BAQ0F
AAOCAgEAa4a7E+wNEv7aHsLzrGzDYVsFW12Ov7AkgmmGpc/kzUaiQtfbLRsMpMWA
TymDsRTLXHSNocpX2ibKEyXfcTjuW+pJViAxzYUl22ZN7NkKgS3hC/31xq6dSluI
whMUojmlcPSPxqs64bZWg7yu9sPFlumykpLZo/zrvRruMbi/ttbbAzMi2d0tRnbw
dLC23hlwx3U7VSpaMwGDf/jJucxqdO3XZfl4tm2AD70Mp0ocWBIIjl5P3ccXMZ7D
YSL+q3BeeeCcPQqWpJOCE1ad1Ze1P7Brsby5+e9NYCuhscLcRc8fGRdVgnVeZSvh
n1W5v2eHudATPR5yNVBZkwHFw/Cy7t79RCER64wMVe4i3eUqhebvR3EVSKllc74F
qfSrhMpO3RxQo1S0BrCuAkTQxgsU5Q5wfEOzLR0zLXfBc31JQmsfKLyuMJQPhG+g
SXpmm/GWuqBiLQ6XcmV+ZtIz0HAEVwMCsbEKRCk+vdxI2wS82nel9494PlsONMCF
Fux6r4mhARssJ1pi0tDIsGxxe9137wCe2y9TGETTjMDZ9c+q7zqfP9HlBoAQaQ1F
KD/VGZ8cEL+3roYNnqG2+4o8WwLS0vGVYmpqXOPJLhkQxe2TMJCJZjo99czY1P3D
+sh/g4ZffkJ4bv425yPUqe5onstWZLw5P8MfmTCBBxhmbt7eF58=
-----END CERTIFICATE-----
