Certificate:
    Data:
        Version: 3 (0x2)
        Serial Number:
            a9:c0:d2:98:86:c0:7e:ac
    Signature Algorithm: sha512WithRSAEncryption
        Issuer: C=CH, ST=Zug, L=Zug, O=Perfect Privacy, CN=Perfect Privacy/emailAddress=admin@perfect-privacy.com
        Validity
            Not Before: Jan  1 00:00:00 2023 GMT
            Not After : Aug 28 00:00:00 2024 GMT
        Subject: C=CH, ST=Zug, O=Perfect Privacy, CN=Client_basel.perfect-privacy.com/emailAddress=admin@perfect-privacy.com
        Subject Public Key Info:
            Public Key Algorithm: rsaEncryption
                Public-Key: (4096 bit)
                Modulus:
                    00:d2:8d:6e:a7:a7:d3:78:2a:df:70:e4:e5:01:36:
                    ff:32:05:fd:d1:81:a4:c0:ee:7d:06:d6:f6:90:14:
                    48:54:c3:e6:9a:50:70:6f:13:a5:cd:74:d1:6d:62:
                    b7:2d:f6:1d:97:b1:62:6a:87:03:10:5c:19:6e:6b:
                    af:31:f9:a8:c7:e2:4b:2a:23:bc:22:0e:88:18:87:
                    e4:7e:a6:ed:13:85:0b:39:95:2b:e1:85:47:7b:f3:
                    ef:e4:d2:5d:13:8d:00:fe:b7:67:76:eb:f7:96:e3:
                    c4:64:83:68:31:a8:7c:1b:d9:5a:00:47:3a:25:4a:
                    c9:51:8a:34:92:5b:44:76:bb:96:04:29:a5:15:75:
                    ad:52:5a:1d:07:1d:f7:88:35:5e:e0:0c:e9:8e:88:
                    7e:18:ef:bd:32:8d:7d:a9:7d:61:3e:ac:eb:b9:e9:
                    f2:88:c0:06:ac:dd:60:db:30:ac:7a:b4:b8:78:55:
                    40:18:4f:5a:11:55:60:71:a2:73:00:db:88:11:ab:
                    1b:5a:26:0a:55:02:00:36:5a:0b:26:60:b4:d3:e1:
                    45:29:05:1d:34:10:d3:a3:1a:ab:94:6a:a9:52:a1:
                    9d:94:26:f9:fe:be:4b:36:7e:95:1c:62:d6:5c:9b:
                    75:07:d3:02:cd:14:52:a4:99:de:0b:3d:e2:3f:69:
                    3e:00:ef:c4:f4:ee:9b:87:0b:4d:40:43:37:1e:ff:
                    9f:c1:6b:5f:67:ca:21:ac:45:e9:fc:81:5f:17:0f:
                    43:ec:d1:79:e2:2d:1a:b3:bc:50:98:b6:2d:27:0d:
                    47:d8:54:6b:39:b5:df:47:92:76:22:73:12:c4:b5:
                    be:a4:28:bf:bb:40:85:aa:ee:64:c5:2b:44:09:73:
                    81:1a:8a:57:25:88:f0:4e:20:9f:51:3a:8f:76:67:
                    19:73:af:26:91:08:7d:fb:a7:82:70:9f:d4:7c:85:
                    89:80:91:22:be:50:d2:b2:7d:a3:91:ee:ba:8b:d2:
                    77:92:c0:13:4f:53:44:38:b0:c0:cc:51:35:a1:43:
                    36:5d:cc:e1:e0:57:a0:98:cc:01:08:6b:e8:38:d1:
                    24:09:2c:54:cb:7a:78:f2:ba:4e:eb:d7:0b:01:af:
                    18:c3:ae:b4:bd:63:5d:54:f1:cb:cd:2c:15:4c:d1:
                    50:a6:52:31:6a:a4:40:3a:09:c8:53:30:5d:7a:09:
                    6e:3b:a6:26:dc:4d:23:a0:c8:d3:cb:ef:23:7b:fb:
                    62:fb:3f:c2:75:e5:f6:d7:dc:e6:de:d6:7f:e1:8b:
                    2b:96:7a:2e:5c:f6:a9:d6:b5:ca:ec:65:31:fa:d7:
                    a0:82:5d:03:4c:7e:44:be:97:d0:ac:74:dc:26:cc:
                    eb:ea:c9
                Exponent: 65537 (0x10001)
        X509v3 extensions:
            X509v3 Basic Constraints: 
                CA:FALSE
            Netscape Comment: 
                VPN User Certificate
            Netscape Cert Type: 
                SSL Client
            X509v3 Key Usage: 
                Digital Signature
            X509v3 Extended Key Usage: 
                TLS Web Client Authentication
            X509v3 Subject Key Identifier: 
                97:CB:38:23:52:F6:66:FE:D5:62:24:D8:06:10:60:C4:2B:D3:B7:E8
            X509v3 Authority Key Identifier: 
                keyid:86:4F:B8:6D:18:2A:1B:3C:8F:27:34:29:F0:81:9F:BA:6E:61:0E:E1
                DirName:/C=CH/ST=Zug/L=Zug/O=Perfect Privacy/CN=Perfect Privacy/emailAddress=admin@perfect-privacy.com
                serial:FA:11:B5:C4:AA:69:AF:69

    Signature Algorithm: sha512WithRSAEncryption
         52:40:e3:db:78:6e:8b:95:ba:e6:0a:db:33:ad:9d:4d:2a:80:
         d7:1e:0b:d5:2c:03:e7:5d:31:be:93:66:76:cd:67:b6:a0:a8:
         14:3e:f8:e0:32:52:11:78:af:d2:56:d8:03:4e:2c:8e:77:8f:
         fc:f9:17:c3:48:c1:ec:4a:6d:74:5e:10:a7:b7:53:82:6c:dc:
         81:1e:97:a4:6f:27:10:6f:2f:4c:54:9d:82:77:0a:e1:ed:04:
         d7:72:f8:0c:89:93:dd:74:c2:f1:f5:f2:28:62:65:08:3a:f6:
         60:12:b0:dd:ea:7e:69:03:de:6f:72:e3:d0:20:9e:72:8f:4f:
         2a:7c:60:1d:6c:d4:b4:0b:35:f3:d8:5c:b2:24:aa:77:a5:7c:
         c0:6b:ef:ae:35:76:4c:28:97:e4:b8:f8:c5:72:9b:55:df:4d:
         62:b2:67:8a:c3:61:e0:e1:f1:d9:40:92:d1:28:10:91:50:fa:
         54:c5:29:2b:f2:6c:fa:09:2c:b7:c3:1c:50:fd:c9:13:d9:43:
         50:9a:ef:c6:91:99:98:18:bd:1f:fe:13:17:42:9b:41:ec:7d:
         c6:20:bc:ad:f1:a4:d6:45:05:0c:d2:b2:fc:da:2e:eb:58:91:
         6e:86:80:28:0c:93:e4:a2:bd:99:69:0a:2c:b5:1f:6e:21:cd:
         bf:a0:9e:08:ff:de:d9:03:bc:53:66:8b:64:a4:63:12:73:59:
         be:d6:a0:55:e3:5f:bf:3d:e9:6a:eb:a4:0d:a2:c2:a4:ab:5b:
         78:e9:6c:84:5e:1d:39:bf:e4:82:15:a5:e4:57:36:26:c4:d2:
         23:fa:ca:34:41:06:6f:9a:12:d9:f7:91:42:ec:70:e9:eb:48:
         88:59:e4:f1:33:d5:5f:97:be:a8:a9:0d:ba:81:88:4d:21:5d:
         d3:84:e0:62:ef:ac:cc:f3:eb:a9:93:8f:93:f3:5a:5c:c5:06:
         b6:a2:e4:73:0b:1b:44:60:da:22:49:fb:4d:34:2b:71:14:72:
         d8:83:96:6a:ba:e2:06:4e:75:bb:cd:7c:e7:72:77:a6:25:bf:
         ab:05:32:46:80:95:cd:b9:34:4e:23:36:40:08:3c:43:11:8f:
         0d:d0:cc:f0:2a:f9:c0:a7:f6:b3:65:4d:70:6e:6d:a0:9f:13:
         5c:11:ff:bb:f5:92:8e:e9:70:61:80:e4:d6:d3:20:64:fc:ac:
         cb:08:96:b3:dc:03:5e:0b:25:0f:a5:60:57:51:68:d7:d3:61:
         b4:04:48:db:45:a5:e2:a3:e4:51:99:6e:ed:e8:50:5a:c7:df:
         95:4d:e2:89:8c:ca:e8:c7:8d:8b:90:c3:0a:6f:9b:a2:cc:df:
         ed:1d:d5:9d:76:d1:ba:00
-----BEGIN CERTIFICATE-----
MIIG3zCCBMegAwIBAgIJAKnA0piGwH6sMA0GCSqGSIb3DQEBDQUAMIGHMQswCQYD
VQQGEwJDSDEMMAoGA1UECBMDWnVnMQwwCgYDVQQHEwNadWcxGDAWBgNVBAoTD1Bl
cmZlY3QgUHJpdmFjeTEYMBYGA1UEAxMPUGVyZmVjdCBQcml2YWN5MSgwJgYJKoZI
hvcNAQkBFhlhZG1pbkBwZXJmZWN0LXByaXZhY3kuY29tMB4XDTIzMDEwMTAwMDAw
MFoXDTI0MDgyODAwMDAwMFowgYoxCzAJBgNVBAYTAkNIMQwwCgYDVQQIEwNadWcx
GDAWBgNVBAoTD1BlcmZlY3QgUHJpdmFjeTEpMCcGA1UEAxQgQ2xpZW50X2Jhc2Vs
LnBlcmZlY3QtcHJpdmFjeS5jb20xKDAmBgkqhkiG9w0BCQEWGWFkbWluQHBlcmZl
Y3QtcHJpdmFjeS5jb20wggIiMA0GCSqGSIb3DQEBAQUAA4ICDwAwggIKAoICAQDS
jW6np9N4Kt9w5OUBNv8yBf3RgaTA7n0G1vaQFEhUw+aaUHBvE6XNdNFtYrct9h2X
sWJqhwMQXBlua68x+ajH4ksqI7wiDogYh+R+pu0ThQs5lSvhhUd78+/k0l0TjQD+
t2d26/eW48Rkg2gxqHwb2VoARzolSslRijSSW0R2u5YEKaUVda1SWh0HHfeINV7g
DOmOiH4Y770yjX2pfWE+rOu56fKIwAas3WDbMKx6tLh4VUAYT1oRVWBxonMA24gR
qxtaJgpVAgA2WgsmYLTT4UUpBR00ENOjGquUaqlSoZ2UJvn+vks2fpUcYtZcm3UH
0wLNFFKkmd4LPeI/aT4A78T07puHC01AQzce/5/Ba19nyiGsRen8gV8XD0Ps0Xni
LRqzvFCYti0nDUfYVGs5td9HknYicxLEtb6kKL+7QIWq7mTFK0QJc4EailcliPBO
IJ9ROo92ZxlzryaRCH37p4Jwn9R8hYmAkSK+UNKyfaOR7rqL0neSwBNPU0Q4sMDM
UTWhQzZdzOHgV6CYzAEIa+g40SQJLFTLenjyuk7r1wsBrxjDrrS9Y11U8cvNLBVM
0VCmUjFqpEA6CchTMF16CW47pibcTSOgyNPL7yN7+2L7P8J15fbX3Obe1n/hiyuW
ei5c9qnWtcrsZTH616CCXQNMfkS+l9CsdNwmzOvqyQIDAQABo4IBRzCCAUMwCQYD
VR0TBAIwADAjBglghkgBhvhCAQ0EFhYUVlBOIFVzZXIgQ2VydGlmaWNhdGUwEQYJ
YIZIAYb4QgEBBAQDAgeAMAsGA1UdDwQEAwIHgDATBgNVHSUEDDAKBggrBgEFBQcD
AjAdBgNVHQ4EFgQUl8s4I1L2Zv7VYiTYBhBgxCvTt+gwgbwGA1UdIwSBtDCBsYAU
hk+4bRgqGzyPJzQp8IGfum5hDuGhgY2kgYowgYcxCzAJBgNVBAYTAkNIMQwwCgYD
VQQIEwNadWcxDDAKBgNVBAcTA1p1ZzEYMBYGA1UEChMPUGVyZmVjdCBQcml2YWN5
MRgwFgYDVQQDEw9QZXJmZWN0IFByaXZhY3kxKDAmBgkqhkiG9w0BCQEWGWFkbWlu
QHBlcmZlY3QtcHJpdmFjeS5jb22CCQD6EbXEqmmvaTANBgkqhkiG9w0BAQ0FAAOC
AgEAUkDj23hui5W65grbM62dTSqA1x4L1SwD510xvpNmds1ntqCoFD744DJSEXiv
0lbYA04sjneP/PkXw0jB7EptdF4Qp7dTgmzcgR6XpG8nEG8vTFSdgncK4e0E13L4
DImT3XTC8fXyKGJlCDr2YBKw3ep+aQPeb3Lj0CCeco9PKnxgHWzUtAs189hcsiSq
d6V8wGvvrjV2TCiX5Lj4xXKbVd9NYrJnisNh4OHx2UCS0SgQkVD6VMUpK/Js+gks
t8McUP3JE9lDUJrvxpGZmBi9H/4TF0KbQex9xiC8rfGk1kUFDNKy/Nou61iRboaA
KAyT5KK9mWkKLLUfbiHNv6CeCP/e2QO8U2aLZKRjEnNZvtagVeNfvz3pauukDaLC
pKtbeOlshF4dOb/kghWl5Fc2JsTSI/rKNEEGb5oS2feRQuxw6etIiFnk8TPVX5e+
qKkNuoGITSFd04TgYu+szPPrqZOPk/NaXMUGtqLkcwsbRGDaIkn7TTQrcRRy2IOW
arriBk51u81853J3piW/qwUyRoCVzbk0TiM2QAg8QxGPDdDM8Cr5wKf2s2VNcG5t
oJ8TXBH/u/WSjulwYYDk1tMgZPysywiWs9wDXgslD6VgV1Fo19NhtARI20Wl4qPk
UZlu7ehQWsfflU3iiYzK6MeNi5DDCm+boszf7R3VnXbRugA=
-----END CERTIFICATE-----
