Certificate:
    Data:
        Version: 3 (0x2)
        Serial Number:
            8a:30:8c:cf:14:4f:b3:27
    Signature Algorithm: sha512WithRSAEncryption
        Issuer: C=CH, ST=Zug, L=Zug, O=Perfect Privacy, CN=Perfect Privacy/emailAddress=admin@perfect-privacy.com
        Validity
            Not Before: Jun 25 00:00:00 2023 GMT
            Not After : Feb 19 00:00:00 2025 GMT
        Subject: C=CH, ST=Zug, O=Perfect Privacy, CN=Client_berlin.perfect-privacy.com/emailAddress=admin@perfect-privacy.com
        Subject Public Key Info:
            Public Key Algorithm: rsaEncryption
                Public-Key: (4096 bit)
                Modulus:
                    00:d4:24:ac:49:a7:7b:e5:c1:e6:92:57:db:ea:7e:
                    63:67:52:81:3f:1d:0f:6c:b8:f9:8f:00:ad:4b:6f:
                    e1:24:73:01:4c:df:c9:5e:40:f1:8e:43:46:46:41:
                    d8:a1:e2:82:c0:2d:63:0a:31:dc:ec:aa:1b:89:2e:
                    14:3e:2b:13:f0:bd:15:03:51:4b:36:15:5f:db:c5:
                    93:75:fa:91:d3:ce:16:94:49:f1:94:0c:3e:2a:56:
                    08:32:04:99:ed:5e:b5:12:e1:67:2f:d6:c8:41:91:
                    e6:b5:ca:ef:3f:e2:8d:8b:94:ba:da:83:69:14:a2:
                    3d:7f:c0:de:b2:8d:e3:f0:56:37:48:de:ae:76:b1:
                    b3:4b:10:21:2b:02:a4:92:41:86:b1:b1:d0:3b:9e:
                    f1:28:ae:e0:48:e7:ac:a2:19:e9:96:e3:d6:57:10:
                    5d:2a:be:c5:d9:c2:96:d1:4e:9a:ec:86:52:0a:37:
                    69:ee:d0:e3:cb:57:99:db:74:eb:72:92:24:1e:48:
                    ba:cd:7a:48:04:cf:8c:21:b7:68:e9:15:c0:eb:ab:
                    eb:77:08:24:ef:0e:60:b8:83:87:8d:9f:4a:49:3a:
                    37:b0:7d:26:07:76:56:9e:b3:7b:6f:cb:20:51:5e:
                    0e:1f:4c:d3:5f:e6:aa:f4:d6:37:93:b9:af:54:93:
                    7c:42:33:c3:f6:fa:7b:2a:4e:3a:b7:3b:18:da:09:
                    12:dc:7e:8d:0c:71:94:a6:53:b3:bc:14:d0:cb:77:
                    2c:eb:e0:eb:3a:1c:70:1c:5b:30:f5:d5:6c:14:53:
                    4a:6c:e3:c2:04:16:fe:3d:bc:71:44:97:10:1b:ce:
                    77:57:ab:1b:b3:c9:a8:54:51:cf:bd:69:62:d7:29:
                    1a:45:38:db:72:de:8e:cb:b6:e5:12:a1:1f:82:3a:
                    52:21:b3:23:b8:41:32:cf:bb:da:f9:f4:55:29:3b:
                    1f:05:fe:f2:67:6d:cc:6c:a9:71:1b:0b:65:ab:eb:
                    c4:a9:be:cd:c3:37:e4:43:f4:bc:85:39:96:07:5d:
                    d4:3f:43:7a:3c:92:6c:28:d8:19:6e:09:9f:98:1f:
                    68:f9:cf:d2:83:e9:f1:1f:75:6f:42:d7:b9:9c:27:
                    d4:80:a5:d1:20:ba:61:29:81:a2:cf:fd:ff:79:ff:
                    79:37:35:77:59:91:da:3c:35:61:f8:05:d0:79:95:
                    61:98:70:13:11:1e:34:4d:4c:f7:50:e5:91:54:20:
                    30:17:83:42:97:27:29:b7:69:95:5f:69:36:9a:55:
                    ee:92:f0:78:39:73:14:bd:23:aa:c4:21:ba:15:ea:
                    f6:69:e2:c5:82:bc:26:ae:48:68:49:de:e5:46:4a:
                    93:c4:6b
                Exponent: 65537 (0x10001)
        X509v3 extensions:
            X509v3 Basic Constraints: 
                CA:FALSE
            Netscape Comment: 
                VPN User Certificate
            Netscape Cert Type: 
                SSL Client
            X509v3 Key Usage: 
                Digital Signature
            X509v3 Extended Key Usage: 
                TLS Web Client Authentication
            X509v3 Subject Key Identifier: 
                C8:3E:6C:F7:B4:8E:DF:52:DB:6A:33:F4:4A:92:AE:0B:FC:A4:D3:D7
            X509v3 Authority Key Identifier: 
                keyid:86:4F:B8:6D:18:2A:1B:3C:8F:27:34:29:F0:81:9F:BA:6E:61:0E:E1
                DirName:/C=CH/ST=Zug/L=Zug/O=Perfect Privacy/CN=Perfect Privacy/emailAddress=admin@perfect-privacy.com
                serial:FA:11:B5:C4:AA:69:AF:69

    Signature Algorithm: sha512WithRSAEncryption
         88:09:e8:b2:61:0d:a3:79:43:8c:4b:00:9f:80:54:19:5e:e9:
         67:ef:11:e8:f4:9a:74:ef:fd:8e:4c:1c:7b:c7:d8:97:51:0c:
         d4:03:88:0b:2a:28:9d:0d:df:10:52:c4:93:9f:bf:dd:85:f6:
         f4:69:6b:3f:39:6a:f2:99:90:5f:40:24:35:4c:cb:fe:dc:2c:
         32:a9:8a:5f:15:88:e1:33:39:74:b3:a0:95:ac:c1:c4:05:cc:
         56:97:ee:3d:2d:44:68:a2:c9:b0:51:4c:e2:12:fa:67:7b:38:
         58:89:02:0e:5d:e8:d8:a0:c3:81:cb:f8:e7:c0:29:bd:76:81:
         ed:de:f3:e4:91:7e:ef:ee:51:a1:f9:a1:75:e1:9d:11:e0:62:
         ae:18:9e:a0:ad:73:d7:53:75:b2:83:94:52:ba:2b:e9:2f:c6:
         70:b8:25:1f:63:f1:9f:2e:86:20:be:19:49:e5:0b:a8:53:b1:
         a6:22:7c:84:98:e8:ae:76:f8:25:e9:e2:79:b7:4f:ca:55:6f:
         06:72:f1:e9:11:71:43:7c:54:e9:74:33:25:ef:0f:ca:77:69:
         86:2e:9c:0a:6b:85:3f:35:25:5d:89:7b:ff:5f:db:d8:a1:74:
         7e:27:98:9f:fb:25:21:08:7b:51:45:ee:81:96:a8:45:3f:0b:
         12:1b:51:26:c4:9b:03:8e:28:9b:97:26:21:e0:a0:1a:1e:fa:
         ab:f3:80:52:1f:6e:7b:3d:2e:a8:8b:d8:4d:1f:4b:ec:b0:1c:
         a8:b9:fe:61:9e:3a:aa:b7:12:58:7b:f3:6b:aa:12:5d:fc:fb:
         b5:e9:77:02:1c:5b:88:f7:3a:88:4f:97:d4:c4:e5:8e:11:3e:
         3c:8b:4d:d6:d6:05:d3:83:35:14:ce:5c:a7:45:fe:6c:28:6d:
         96:f0:fb:8c:ea:e5:f9:47:46:fd:9f:21:13:1b:1a:67:d3:6f:
         ce:96:98:8b:90:4b:ae:60:fd:67:6f:48:d8:21:a1:19:3c:af:
         0d:c3:2d:93:78:f9:64:49:e1:6e:10:b0:56:80:b4:12:16:da:
         af:13:a5:f9:c6:42:fe:79:83:14:07:b2:0a:7a:9e:f8:7d:51:
         93:13:2b:24:52:ce:01:84:70:26:27:fd:00:fd:41:77:75:12:
         9d:49:65:76:a1:12:2f:54:da:7e:3d:e8:fc:3c:a7:bb:3a:6f:
         ea:65:27:33:f6:03:20:2d:7a:1c:e0:dd:56:50:49:c3:e1:7c:
         47:d8:57:f8:53:ca:2b:91:94:88:c1:ff:42:42:79:8f:60:fc:
         74:91:48:96:e3:09:ba:f5:d1:b4:4a:9a:1e:9b:da:13:fa:0b:
         1c:66:05:17:e9:3d:b0:d2
-----BEGIN CERTIFICATE-----
MIIG4DCCBMigAwIBAgIJAIowjM8UT7MnMA0GCSqGSIb3DQEBDQUAMIGHMQswCQYD
VQQGEwJDSDEMMAoGA1UECBMDWnVnMQwwCgYDVQQHEwNadWcxGDAWBgNVBAoTD1Bl
cmZlY3QgUHJpdmFjeTEYMBYGA1UEAxMPUGVyZmVjdCBQcml2YWN5MSgwJgYJKoZI
hvcNAQkBFhlhZG1pbkBwZXJmZWN0LXByaXZhY3kuY29tMB4XDTIzMDYyNTAwMDAw
MFoXDTI1MDIxOTAwMDAwMFowgYsxCzAJBgNVBAYTAkNIMQwwCgYDVQQIEwNadWcx
GDAWBgNVBAoTD1BlcmZlY3QgUHJpdmFjeTEqMCgGA1UEAxQhQ2xpZW50X2Jlcmxp
bi5wZXJmZWN0LXByaXZhY3kuY29tMSgwJgYJKoZIhvcNAQkBFhlhZG1pbkBwZXJm
ZWN0LXByaXZhY3kuY29tMIICIjANBgkqhkiG9w0BAQEFAAOCAg8AMIICCgKCAgEA
1CSsSad75cHmklfb6n5jZ1KBPx0PbLj5jwCtS2/hJHMBTN/JXkDxjkNGRkHYoeKC
wC1jCjHc7KobiS4UPisT8L0VA1FLNhVf28WTdfqR084WlEnxlAw+KlYIMgSZ7V61
EuFnL9bIQZHmtcrvP+KNi5S62oNpFKI9f8Deso3j8FY3SN6udrGzSxAhKwKkkkGG
sbHQO57xKK7gSOesohnpluPWVxBdKr7F2cKW0U6a7IZSCjdp7tDjy1eZ23TrcpIk
Hki6zXpIBM+MIbdo6RXA66vrdwgk7w5guIOHjZ9KSTo3sH0mB3ZWnrN7b8sgUV4O
H0zTX+aq9NY3k7mvVJN8QjPD9vp7Kk46tzsY2gkS3H6NDHGUplOzvBTQy3cs6+Dr
OhxwHFsw9dVsFFNKbOPCBBb+PbxxRJcQG853V6sbs8moVFHPvWli1ykaRTjbct6O
y7blEqEfgjpSIbMjuEEyz7va+fRVKTsfBf7yZ23MbKlxGwtlq+vEqb7NwzfkQ/S8
hTmWB13UP0N6PJJsKNgZbgmfmB9o+c/Sg+nxH3VvQte5nCfUgKXRILphKYGiz/3/
ef95NzV3WZHaPDVh+AXQeZVhmHATER40TUz3UOWRVCAwF4NClycpt2mVX2k2mlXu
kvB4OXMUvSOqxCG6Fer2aeLFgrwmrkhoSd7lRkqTxGsCAwEAAaOCAUcwggFDMAkG
A1UdEwQCMAAwIwYJYIZIAYb4QgENBBYWFFZQTiBVc2VyIENlcnRpZmljYXRlMBEG
CWCGSAGG+EIBAQQEAwIHgDALBgNVHQ8EBAMCB4AwEwYDVR0lBAwwCgYIKwYBBQUH
AwIwHQYDVR0OBBYEFMg+bPe0jt9S22oz9EqSrgv8pNPXMIG8BgNVHSMEgbQwgbGA
FIZPuG0YKhs8jyc0KfCBn7puYQ7hoYGNpIGKMIGHMQswCQYDVQQGEwJDSDEMMAoG
A1UECBMDWnVnMQwwCgYDVQQHEwNadWcxGDAWBgNVBAoTD1BlcmZlY3QgUHJpdmFj
eTEYMBYGA1UEAxMPUGVyZmVjdCBQcml2YWN5MSgwJgYJKoZIhvcNAQkBFhlhZG1p
bkBwZXJmZWN0LXByaXZhY3kuY29tggkA+hG1xKppr2kwDQYJKoZIhvcNAQENBQAD
ggIBAIgJ6LJhDaN5Q4xLAJ+AVBle6WfvEej0mnTv/Y5MHHvH2JdRDNQDiAsqKJ0N
3xBSxJOfv92F9vRpaz85avKZkF9AJDVMy/7cLDKpil8ViOEzOXSzoJWswcQFzFaX
7j0tRGiiybBRTOIS+md7OFiJAg5d6Nigw4HL+OfAKb12ge3e8+SRfu/uUaH5oXXh
nRHgYq4YnqCtc9dTdbKDlFK6K+kvxnC4JR9j8Z8uhiC+GUnlC6hTsaYifISY6K52
+CXp4nm3T8pVbwZy8ekRcUN8VOl0MyXvD8p3aYYunAprhT81JV2Je/9f29ihdH4n
mJ/7JSEIe1FF7oGWqEU/CxIbUSbEmwOOKJuXJiHgoBoe+qvzgFIfbns9LqiL2E0f
S+ywHKi5/mGeOqq3Elh782uqEl38+7XpdwIcW4j3OohPl9TE5Y4RPjyLTdbWBdOD
NRTOXKdF/mwobZbw+4zq5flHRv2fIRMbGmfTb86WmIuQS65g/WdvSNghoRk8rw3D
LZN4+WRJ4W4QsFaAtBIW2q8TpfnGQv55gxQHsgp6nvh9UZMTKyRSzgGEcCYn/QD9
QXd1Ep1JZXahEi9U2n496Pw8p7s6b+plJzP2AyAtehzg3VZQScPhfEfYV/hTyiuR
lIjB/0JCeY9g/HSRSJbjCbr10bRKmh6b2hP6CxxmBRfpPbDS
-----END CERTIFICATE-----
