Certificate:
    Data:
        Version: 3 (0x2)
        Serial Number:
            9c:20:4f:8c:9b:02:8f:2d
    Signature Algorithm: sha512WithRSAEncryption
        Issuer: C=CH, ST=Zug, L=Zug, O=Perfect Privacy, CN=Perfect Privacy/emailAddress=admin@perfect-privacy.com
        Validity
            Not Before: Dec 14 00:00:00 2022 GMT
            Not After : Aug 10 00:00:00 2024 GMT
        Subject: C=CH, ST=Zug, O=Perfect Privacy, CN=Client_berlin.perfect-privacy.com/emailAddress=admin@perfect-privacy.com
        Subject Public Key Info:
            Public Key Algorithm: rsaEncryption
                Public-Key: (4096 bit)
                Modulus:
                    00:d6:94:c5:08:ee:b1:d1:ce:43:73:bc:44:8e:0f:
                    4b:77:17:5c:df:65:bf:f1:14:8b:db:34:fc:07:03:
                    d3:cc:3f:5f:3f:2c:8e:d1:c9:e6:c0:7c:0a:36:57:
                    c9:3c:40:c9:6a:7f:93:aa:30:72:98:e9:e5:70:d7:
                    d0:0b:c0:6b:66:59:af:3a:36:8d:02:68:d8:44:79:
                    03:cd:12:d8:2c:98:7f:39:c3:05:0f:ee:e3:12:63:
                    46:23:9d:14:ad:4f:b5:d5:96:2a:84:eb:e8:13:db:
                    e4:85:0c:c6:e2:97:1e:9a:33:9c:0f:57:35:f6:e6:
                    c8:32:43:a1:3f:ab:b1:c8:a0:92:b2:2f:db:eb:cc:
                    3a:9f:89:df:bb:8c:63:3b:66:8f:77:9b:59:b0:ba:
                    1c:e7:bc:be:c3:44:4f:74:4b:bd:8f:01:cc:dc:c8:
                    31:4c:77:0d:7f:19:62:86:97:b3:1f:68:1d:b6:bf:
                    18:fb:b0:2d:4a:ac:a7:33:92:10:66:d6:e9:90:20:
                    94:56:b5:33:de:2c:6d:c4:34:0b:7e:1b:8f:90:4d:
                    f2:ea:ba:66:73:b3:4c:58:be:93:b0:04:63:31:f3:
                    e2:e5:69:b5:2f:eb:3b:49:9a:90:0a:e1:6b:f7:aa:
                    1a:d3:15:c8:37:fe:ac:39:77:51:fc:4a:c6:df:96:
                    ee:70:77:79:ca:99:e1:ca:fb:25:07:99:fc:d0:63:
                    43:a3:51:3a:58:09:ea:37:43:b5:15:de:f1:2d:20:
                    f4:a1:28:51:f2:e6:37:96:df:f6:b8:77:7c:88:fe:
                    ed:84:dd:64:ed:56:1b:3c:18:d9:65:44:8b:75:e3:
                    f5:1a:63:80:ac:17:0d:29:7e:a8:d9:4d:92:60:c4:
                    34:88:85:bc:4b:c6:08:e4:60:3d:2b:0b:78:63:bc:
                    21:e7:da:cf:a8:01:66:90:b0:4a:03:93:43:f7:08:
                    26:73:b1:e0:e0:82:23:b2:cf:ae:94:e6:6a:0c:ad:
                    aa:84:64:dd:46:c1:32:93:2a:69:43:2b:4c:66:2b:
                    73:4c:57:fc:0f:36:d6:1e:c1:66:ef:b3:fa:30:25:
                    81:0d:60:af:7d:be:a4:e1:4d:34:05:9b:27:22:6c:
                    71:09:45:66:30:be:f0:10:a2:5d:d9:fd:41:67:ae:
                    a0:b0:9f:31:ee:29:90:09:56:9d:ca:d5:4d:e3:a7:
                    4b:e3:6d:ca:97:f1:d0:c4:f2:54:13:52:db:f8:ce:
                    d6:93:cf:b4:89:f6:26:26:f5:63:1b:20:6d:3c:c3:
                    09:db:10:eb:ae:30:05:bc:be:42:79:91:92:31:da:
                    a0:6c:7e:7a:0e:57:39:55:e9:5e:dd:41:2a:a9:46:
                    03:5d:39
                Exponent: 65537 (0x10001)
        X509v3 extensions:
            X509v3 Basic Constraints: 
                CA:FALSE
            Netscape Comment: 
                VPN User Certificate
            Netscape Cert Type: 
                SSL Client
            X509v3 Key Usage: 
                Digital Signature
            X509v3 Extended Key Usage: 
                TLS Web Client Authentication
            X509v3 Subject Key Identifier: 
                43:3B:8C:0F:5E:11:E0:E3:A3:4E:93:3E:67:02:F5:AF:93:04:2D:2A
            X509v3 Authority Key Identifier: 
                keyid:86:4F:B8:6D:18:2A:1B:3C:8F:27:34:29:F0:81:9F:BA:6E:61:0E:E1
                DirName:/C=CH/ST=Zug/L=Zug/O=Perfect Privacy/CN=Perfect Privacy/emailAddress=admin@perfect-privacy.com
                serial:FA:11:B5:C4:AA:69:AF:69

    Signature Algorithm: sha512WithRSAEncryption
         58:b3:1d:ab:23:fc:72:82:bd:32:4f:16:2b:13:db:25:ee:94:
         d6:19:85:ec:d1:db:34:d6:7e:6a:72:65:62:fc:0f:25:f4:65:
         ff:3a:f8:20:77:a2:8c:93:99:1c:9a:7d:9c:c2:e2:cb:81:1c:
         a5:f8:a8:d3:6b:e4:7b:da:99:ff:0d:e1:2d:e7:65:ca:40:51:
         47:28:0e:10:eb:7e:e9:6f:19:4b:b2:9b:e0:42:79:1f:f8:d1:
         0e:c4:84:ae:8b:c4:cf:63:72:89:a8:c6:87:f4:e3:51:7d:c9:
         20:9a:f8:b8:05:7e:45:47:34:2a:83:ae:e5:df:a1:06:a7:c3:
         5c:3e:c9:db:41:80:6b:ce:40:7c:8e:e9:82:ad:4a:a6:5b:7d:
         a9:6a:ff:48:7c:8d:52:dd:bf:89:5c:f7:29:87:a5:12:2d:9c:
         99:68:16:4e:44:d4:03:d3:9e:f0:4d:0c:04:8f:d1:f8:be:fb:
         ca:26:eb:2a:5c:1c:c6:d8:65:0a:53:49:d9:d2:bc:ec:c0:99:
         82:45:dc:40:9d:85:3b:8a:69:b2:24:17:31:22:a4:5f:9b:3a:
         38:94:a4:ef:fc:34:0a:41:af:50:94:c3:81:07:99:8c:a6:7d:
         d8:5d:af:a9:3c:c5:3d:4d:3a:39:9f:e7:c9:74:89:a3:f4:8e:
         ab:69:07:88:eb:4e:2e:c3:8d:60:c4:22:8f:8a:84:16:a0:ec:
         83:5b:db:01:43:60:c3:6c:12:53:b5:05:a0:ba:6b:af:e4:f9:
         7e:ff:a4:a3:3c:4b:9e:97:d3:b2:fe:34:0d:f5:a9:b8:3a:99:
         7a:0e:56:d6:1b:7b:6c:61:4f:66:c1:d3:cf:85:1d:27:70:df:
         e4:58:8b:71:cc:c9:dd:34:87:22:56:b8:a5:0d:1e:61:5d:6a:
         3f:d9:22:34:f7:5c:63:7b:f4:c7:f6:51:57:cb:e6:cc:99:fe:
         fd:e7:cc:2e:c5:0a:68:44:c9:bd:7d:cf:b0:13:67:cc:43:fd:
         c6:f3:ea:d9:0d:3b:00:74:6c:42:03:d4:30:e5:ed:69:e8:aa:
         45:a4:58:f8:9b:d9:12:a7:90:4f:23:da:05:f6:93:93:e2:71:
         93:1f:c2:4a:d2:67:59:f7:f3:54:cb:0f:fa:96:d1:53:d1:8f:
         82:95:fa:0e:63:f6:b5:cc:9d:a6:a7:3c:34:05:8e:1f:77:e2:
         8a:07:1d:c4:7e:77:34:16:08:f9:7b:e9:3b:00:5e:d0:6f:48:
         df:82:c7:af:0f:81:f8:f8:40:24:c3:bd:cd:bd:9b:f7:25:b5:
         44:1f:3f:50:70:4d:1c:24:44:f6:0a:5e:86:14:2c:62:75:ab:
         41:37:6a:de:33:6f:10:c9
-----BEGIN CERTIFICATE-----
MIIG4DCCBMigAwIBAgIJAJwgT4ybAo8tMA0GCSqGSIb3DQEBDQUAMIGHMQswCQYD
VQQGEwJDSDEMMAoGA1UECBMDWnVnMQwwCgYDVQQHEwNadWcxGDAWBgNVBAoTD1Bl
cmZlY3QgUHJpdmFjeTEYMBYGA1UEAxMPUGVyZmVjdCBQcml2YWN5MSgwJgYJKoZI
hvcNAQkBFhlhZG1pbkBwZXJmZWN0LXByaXZhY3kuY29tMB4XDTIyMTIxNDAwMDAw
MFoXDTI0MDgxMDAwMDAwMFowgYsxCzAJBgNVBAYTAkNIMQwwCgYDVQQIEwNadWcx
GDAWBgNVBAoTD1BlcmZlY3QgUHJpdmFjeTEqMCgGA1UEAxQhQ2xpZW50X2Jlcmxp
bi5wZXJmZWN0LXByaXZhY3kuY29tMSgwJgYJKoZIhvcNAQkBFhlhZG1pbkBwZXJm
ZWN0LXByaXZhY3kuY29tMIICIjANBgkqhkiG9w0BAQEFAAOCAg8AMIICCgKCAgEA
1pTFCO6x0c5Dc7xEjg9Ldxdc32W/8RSL2zT8BwPTzD9fPyyO0cnmwHwKNlfJPEDJ
an+TqjBymOnlcNfQC8BrZlmvOjaNAmjYRHkDzRLYLJh/OcMFD+7jEmNGI50UrU+1
1ZYqhOvoE9vkhQzG4pcemjOcD1c19ubIMkOhP6uxyKCSsi/b68w6n4nfu4xjO2aP
d5tZsLoc57y+w0RPdEu9jwHM3MgxTHcNfxlihpezH2gdtr8Y+7AtSqynM5IQZtbp
kCCUVrUz3ixtxDQLfhuPkE3y6rpmc7NMWL6TsARjMfPi5Wm1L+s7SZqQCuFr96oa
0xXIN/6sOXdR/ErG35bucHd5ypnhyvslB5n80GNDo1E6WAnqN0O1Fd7xLSD0oShR
8uY3lt/2uHd8iP7thN1k7VYbPBjZZUSLdeP1GmOArBcNKX6o2U2SYMQ0iIW8S8YI
5GA9Kwt4Y7wh59rPqAFmkLBKA5ND9wgmc7Hg4IIjss+ulOZqDK2qhGTdRsEykypp
QytMZitzTFf8DzbWHsFm77P6MCWBDWCvfb6k4U00BZsnImxxCUVmML7wEKJd2f1B
Z66gsJ8x7imQCVadytVN46dL423Kl/HQxPJUE1Lb+M7Wk8+0ifYmJvVjGyBtPMMJ
2xDrrjAFvL5CeZGSMdqgbH56Dlc5Vele3UEqqUYDXTkCAwEAAaOCAUcwggFDMAkG
A1UdEwQCMAAwIwYJYIZIAYb4QgENBBYWFFZQTiBVc2VyIENlcnRpZmljYXRlMBEG
CWCGSAGG+EIBAQQEAwIHgDALBgNVHQ8EBAMCB4AwEwYDVR0lBAwwCgYIKwYBBQUH
AwIwHQYDVR0OBBYEFEM7jA9eEeDjo06TPmcC9a+TBC0qMIG8BgNVHSMEgbQwgbGA
FIZPuG0YKhs8jyc0KfCBn7puYQ7hoYGNpIGKMIGHMQswCQYDVQQGEwJDSDEMMAoG
A1UECBMDWnVnMQwwCgYDVQQHEwNadWcxGDAWBgNVBAoTD1BlcmZlY3QgUHJpdmFj
eTEYMBYGA1UEAxMPUGVyZmVjdCBQcml2YWN5MSgwJgYJKoZIhvcNAQkBFhlhZG1p
bkBwZXJmZWN0LXByaXZhY3kuY29tggkA+hG1xKppr2kwDQYJKoZIhvcNAQENBQAD
ggIBAFizHasj/HKCvTJPFisT2yXulNYZhezR2zTWfmpyZWL8DyX0Zf86+CB3ooyT
mRyafZzC4suBHKX4qNNr5Hvamf8N4S3nZcpAUUcoDhDrfulvGUuym+BCeR/40Q7E
hK6LxM9jcomoxof041F9ySCa+LgFfkVHNCqDruXfoQanw1w+ydtBgGvOQHyO6YKt
SqZbfalq/0h8jVLdv4lc9ymHpRItnJloFk5E1APTnvBNDASP0fi++8om6ypcHMbY
ZQpTSdnSvOzAmYJF3ECdhTuKabIkFzEipF+bOjiUpO/8NApBr1CUw4EHmYymfdhd
r6k8xT1NOjmf58l0iaP0jqtpB4jrTi7DjWDEIo+KhBag7INb2wFDYMNsElO1BaC6
a6/k+X7/pKM8S56X07L+NA31qbg6mXoOVtYbe2xhT2bB08+FHSdw3+RYi3HMyd00
hyJWuKUNHmFdaj/ZIjT3XGN79Mf2UVfL5syZ/v3nzC7FCmhEyb19z7ATZ8xD/cbz
6tkNOwB0bEID1DDl7WnoqkWkWPib2RKnkE8j2gX2k5PicZMfwkrSZ1n381TLD/qW
0VPRj4KV+g5j9rXMnaanPDQFjh934ooHHcR+dzQWCPl76TsAXtBvSN+Cx68Pgfj4
QCTDvc29m/cltUQfP1BwTRwkRPYKXoYULGJ1q0E3at4zbxDJ
-----END CERTIFICATE-----
