Certificate:
    Data:
        Version: 3 (0x2)
        Serial Number: 592129501372918518 (0x837aaa4ee5caaf6)
    Signature Algorithm: sha512WithRSAEncryption
        Issuer: C=CH, ST=Zug, L=Zug, O=Perfect Privacy, CN=Perfect Privacy/emailAddress=admin@perfect-privacy.com
        Validity
            Not Before: Feb 25 00:00:00 2023 GMT
            Not After : Oct 22 00:00:00 2024 GMT
        Subject: C=CH, ST=Zug, O=Perfect Privacy, CN=Client_berlin.perfect-privacy.com/emailAddress=admin@perfect-privacy.com
        Subject Public Key Info:
            Public Key Algorithm: rsaEncryption
                Public-Key: (4096 bit)
                Modulus:
                    00:c7:ea:a1:9e:53:3d:a2:2e:22:42:3a:97:47:e1:
                    b6:bd:f6:5a:2f:53:d0:7a:35:8d:4a:47:92:ab:f0:
                    3d:ed:22:88:8a:c8:3d:b4:ce:31:0d:87:68:d1:1f:
                    20:38:da:82:45:6e:c0:e5:47:08:ae:b6:95:ba:43:
                    64:53:a1:7c:a8:15:f3:2e:8e:99:a8:e0:b0:4a:6c:
                    de:56:b8:2d:a5:e0:d8:40:95:78:aa:33:1f:15:93:
                    25:73:13:4b:45:82:5e:28:fc:68:f7:82:14:e2:37:
                    4b:8d:e4:86:1a:5d:88:4a:35:d5:16:d9:2f:4f:d1:
                    2f:70:7d:8a:cb:f4:bb:3f:aa:12:ea:f0:a8:23:ce:
                    ca:68:ab:38:68:37:b7:a2:0e:88:29:63:27:19:4b:
                    6e:d8:10:18:62:a5:77:eb:9a:f4:80:f0:02:90:5c:
                    d7:a3:f6:25:52:59:b1:8c:f3:be:22:49:1a:b1:1c:
                    69:20:18:02:13:d7:a4:49:5c:23:d1:26:76:a4:95:
                    05:db:f8:9a:b8:da:d8:07:63:28:7f:a0:5f:b7:20:
                    3d:ab:d0:5d:d1:57:14:db:4b:4d:c1:07:bf:e4:52:
                    5b:fe:71:bc:53:cc:54:b1:37:50:ce:ee:81:6f:50:
                    89:c0:ea:0f:85:bd:41:d4:13:c2:68:a2:d0:4a:8c:
                    86:f6:03:7e:15:fe:07:b9:5d:aa:97:c8:09:80:cb:
                    ea:ee:ad:4e:55:f7:01:d4:c3:21:58:c7:79:02:78:
                    9f:07:4c:f8:7c:9c:ed:5b:cf:b7:7c:00:da:ca:25:
                    e4:10:99:73:aa:ca:86:1d:71:46:16:03:1f:40:dc:
                    da:16:fd:31:d6:ec:f0:86:b4:36:de:32:f0:2c:a5:
                    8f:d6:d4:03:ba:7d:71:ac:83:ed:96:9e:f9:97:03:
                    3a:e8:db:00:8c:3c:59:bd:61:12:04:ea:50:6f:13:
                    10:60:f9:cf:04:5b:41:cb:99:c7:6b:23:d3:3a:02:
                    9f:32:c6:b4:6c:62:25:74:51:50:86:d0:ff:bc:16:
                    57:56:2d:ea:38:1d:19:0b:f4:e4:d3:69:21:2f:37:
                    17:d9:08:cf:12:1c:79:97:ab:94:ed:6c:1f:20:ea:
                    77:c4:11:f0:dc:ac:3d:e4:f0:63:d2:49:73:8a:21:
                    fb:68:ed:ca:18:d3:c9:72:8e:1e:98:9e:d0:3b:60:
                    2f:a0:b2:3e:a7:00:e2:78:01:62:e8:57:ed:2c:e0:
                    cb:19:7c:d6:09:7f:fc:dc:5e:7d:36:7b:77:68:3f:
                    ed:b0:e9:70:5a:56:7a:40:ca:a2:6e:b1:28:72:69:
                    44:84:ee:a3:2c:59:b9:bb:eb:f1:d9:d3:ed:c9:57:
                    c8:b0:85
                Exponent: 65537 (0x10001)
        X509v3 extensions:
            X509v3 Basic Constraints: 
                CA:FALSE
            Netscape Comment: 
                VPN User Certificate
            Netscape Cert Type: 
                SSL Client
            X509v3 Key Usage: 
                Digital Signature
            X509v3 Extended Key Usage: 
                TLS Web Client Authentication
            X509v3 Subject Key Identifier: 
                11:DF:8C:5D:04:09:C5:A5:2F:DF:BB:4B:6A:0E:44:DD:9F:B2:77:BA
            X509v3 Authority Key Identifier: 
                keyid:86:4F:B8:6D:18:2A:1B:3C:8F:27:34:29:F0:81:9F:BA:6E:61:0E:E1
                DirName:/C=CH/ST=Zug/L=Zug/O=Perfect Privacy/CN=Perfect Privacy/emailAddress=admin@perfect-privacy.com
                serial:FA:11:B5:C4:AA:69:AF:69

    Signature Algorithm: sha512WithRSAEncryption
         83:10:47:00:dd:7a:15:e3:0f:eb:c8:46:58:60:8b:c2:7e:2d:
         f6:75:8a:5a:2e:23:7a:ef:51:55:3c:36:75:66:09:1c:f8:ee:
         2b:fd:9a:d7:2f:74:cf:98:70:c1:f4:55:aa:ae:01:1d:8d:08:
         4d:32:f2:f4:99:f8:8a:37:65:6c:12:2f:4b:12:f8:3f:26:05:
         19:2c:e1:92:83:ca:15:d7:46:5f:5f:42:ef:30:fe:a7:03:1c:
         2e:7c:9b:8d:b1:d6:5d:49:c3:a8:80:92:43:f9:f1:8d:8a:b0:
         99:9c:39:58:9a:53:5a:6d:23:b7:d5:ea:c2:a2:34:26:14:23:
         61:15:ba:79:ff:21:27:4b:d3:fc:42:88:79:2c:1a:b6:75:e9:
         9a:e0:7f:8c:5b:e5:fd:e2:b7:98:76:00:95:2a:e9:02:c4:5b:
         fa:20:5c:02:5d:ca:4b:0c:7c:2b:ff:28:f8:92:b9:23:1a:2c:
         ad:34:12:cb:f7:36:d6:da:db:76:f4:a4:bf:2a:7c:db:f0:3d:
         47:ad:f4:cd:9c:11:e1:49:d5:97:8c:53:28:0e:36:68:78:88:
         aa:36:1f:d6:94:50:7b:d1:30:7d:be:22:5b:41:83:b0:d3:a5:
         94:e2:a2:b4:de:b6:82:65:86:69:3b:5a:fc:b1:3e:79:7b:64:
         d9:43:7d:de:d8:ed:43:06:d1:1c:c5:1a:b0:b4:5b:9e:8d:51:
         34:35:fe:f8:22:77:44:c1:07:61:1b:a8:21:de:e2:f0:65:66:
         85:9e:25:db:61:fc:4d:e3:1e:de:81:bb:8b:ec:b1:a1:0b:83:
         fb:d8:2d:de:d5:70:9d:ef:4f:92:1c:a0:e2:4e:f5:c0:98:0e:
         3e:69:82:da:37:0e:ac:10:36:57:9e:c4:75:63:93:19:0b:4f:
         6f:45:bc:fd:85:c0:52:67:cf:51:09:1d:30:6a:d9:d8:87:1b:
         4d:2c:f3:b0:e8:f1:54:22:4b:de:45:2e:0d:7a:60:5e:c9:a5:
         14:0b:79:e9:82:c7:71:85:0f:8f:ba:6a:de:f2:d7:a8:46:92:
         e0:64:e9:cc:a1:8b:c4:c3:e3:ca:61:07:11:84:57:15:6f:58:
         cb:3f:52:66:5f:94:34:53:5b:7b:97:a4:52:9c:1c:7a:99:0b:
         a1:44:77:bb:7a:a8:77:06:dc:59:cf:e2:0d:81:78:e4:fe:ab:
         86:45:c5:f3:73:37:7e:5f:45:bf:98:61:18:de:3b:b7:0a:fd:
         e4:2a:39:fd:a9:98:21:7c:da:7e:ea:8d:38:5f:79:af:a1:76:
         39:29:97:08:56:07:3c:04:6a:41:ae:8b:c5:6c:94:8a:7e:f7:
         44:d9:70:52:5c:33:28:4f
-----BEGIN CERTIFICATE-----
MIIG3zCCBMegAwIBAgIICDeqpO5cqvYwDQYJKoZIhvcNAQENBQAwgYcxCzAJBgNV
BAYTAkNIMQwwCgYDVQQIEwNadWcxDDAKBgNVBAcTA1p1ZzEYMBYGA1UEChMPUGVy
ZmVjdCBQcml2YWN5MRgwFgYDVQQDEw9QZXJmZWN0IFByaXZhY3kxKDAmBgkqhkiG
9w0BCQEWGWFkbWluQHBlcmZlY3QtcHJpdmFjeS5jb20wHhcNMjMwMjI1MDAwMDAw
WhcNMjQxMDIyMDAwMDAwWjCBizELMAkGA1UEBhMCQ0gxDDAKBgNVBAgTA1p1ZzEY
MBYGA1UEChMPUGVyZmVjdCBQcml2YWN5MSowKAYDVQQDFCFDbGllbnRfYmVybGlu
LnBlcmZlY3QtcHJpdmFjeS5jb20xKDAmBgkqhkiG9w0BCQEWGWFkbWluQHBlcmZl
Y3QtcHJpdmFjeS5jb20wggIiMA0GCSqGSIb3DQEBAQUAA4ICDwAwggIKAoICAQDH
6qGeUz2iLiJCOpdH4ba99lovU9B6NY1KR5Kr8D3tIoiKyD20zjENh2jRHyA42oJF
bsDlRwiutpW6Q2RToXyoFfMujpmo4LBKbN5WuC2l4NhAlXiqMx8VkyVzE0tFgl4o
/Gj3ghTiN0uN5IYaXYhKNdUW2S9P0S9wfYrL9Ls/qhLq8KgjzspoqzhoN7eiDogp
YycZS27YEBhipXfrmvSA8AKQXNej9iVSWbGM874iSRqxHGkgGAIT16RJXCPRJnak
lQXb+Jq42tgHYyh/oF+3ID2r0F3RVxTbS03BB7/kUlv+cbxTzFSxN1DO7oFvUInA
6g+FvUHUE8JootBKjIb2A34V/ge5XaqXyAmAy+rurU5V9wHUwyFYx3kCeJ8HTPh8
nO1bz7d8ANrKJeQQmXOqyoYdcUYWAx9A3NoW/THW7PCGtDbeMvAspY/W1AO6fXGs
g+2WnvmXAzro2wCMPFm9YRIE6lBvExBg+c8EW0HLmcdrI9M6Ap8yxrRsYiV0UVCG
0P+8FldWLeo4HRkL9OTTaSEvNxfZCM8SHHmXq5TtbB8g6nfEEfDcrD3k8GPSSXOK
Ifto7coY08lyjh6YntA7YC+gsj6nAOJ4AWLoV+0s4MsZfNYJf/zcXn02e3doP+2w
6XBaVnpAyqJusShyaUSE7qMsWbm76/HZ0+3JV8iwhQIDAQABo4IBRzCCAUMwCQYD
VR0TBAIwADAjBglghkgBhvhCAQ0EFhYUVlBOIFVzZXIgQ2VydGlmaWNhdGUwEQYJ
YIZIAYb4QgEBBAQDAgeAMAsGA1UdDwQEAwIHgDATBgNVHSUEDDAKBggrBgEFBQcD
AjAdBgNVHQ4EFgQUEd+MXQQJxaUv37tLag5E3Z+yd7owgbwGA1UdIwSBtDCBsYAU
hk+4bRgqGzyPJzQp8IGfum5hDuGhgY2kgYowgYcxCzAJBgNVBAYTAkNIMQwwCgYD
VQQIEwNadWcxDDAKBgNVBAcTA1p1ZzEYMBYGA1UEChMPUGVyZmVjdCBQcml2YWN5
MRgwFgYDVQQDEw9QZXJmZWN0IFByaXZhY3kxKDAmBgkqhkiG9w0BCQEWGWFkbWlu
QHBlcmZlY3QtcHJpdmFjeS5jb22CCQD6EbXEqmmvaTANBgkqhkiG9w0BAQ0FAAOC
AgEAgxBHAN16FeMP68hGWGCLwn4t9nWKWi4jeu9RVTw2dWYJHPjuK/2a1y90z5hw
wfRVqq4BHY0ITTLy9Jn4ijdlbBIvSxL4PyYFGSzhkoPKFddGX19C7zD+pwMcLnyb
jbHWXUnDqICSQ/nxjYqwmZw5WJpTWm0jt9XqwqI0JhQjYRW6ef8hJ0vT/EKIeSwa
tnXpmuB/jFvl/eK3mHYAlSrpAsRb+iBcAl3KSwx8K/8o+JK5IxosrTQSy/c21trb
dvSkvyp82/A9R630zZwR4UnVl4xTKA42aHiIqjYf1pRQe9Ewfb4iW0GDsNOllOKi
tN62gmWGaTta/LE+eXtk2UN93tjtQwbRHMUasLRbno1RNDX++CJ3RMEHYRuoId7i
8GVmhZ4l22H8TeMe3oG7i+yxoQuD+9gt3tVwne9Pkhyg4k71wJgOPmmC2jcOrBA2
V57EdWOTGQtPb0W8/YXAUmfPUQkdMGrZ2IcbTSzzsOjxVCJL3kUuDXpgXsmlFAt5
6YLHcYUPj7pq3vLXqEaS4GTpzKGLxMPjymEHEYRXFW9Yyz9SZl+UNFNbe5ekUpwc
epkLoUR3u3qodwbcWc/iDYF45P6rhkXF83M3fl9Fv5hhGN47twr95Co5/amYIXza
fuqNOF95r6F2OSmXCFYHPARqQa6LxWyUin73RNlwUlwzKE8=
-----END CERTIFICATE-----
