Certificate:
    Data:
        Version: 3 (0x2)
        Serial Number: 1026343604498256673 (0xe3e4e120b9cd321)
    Signature Algorithm: sha512WithRSAEncryption
        Issuer: C=CH, ST=Zug, L=Zug, O=Perfect Privacy, CN=Perfect Privacy/emailAddress=admin@perfect-privacy.com
        Validity
            Not Before: Jun  7 00:00:00 2023 GMT
            Not After : Feb  1 00:00:00 2025 GMT
        Subject: C=CH, ST=Zug, O=Perfect Privacy, CN=Client_belgrade.perfect-privacy.com/emailAddress=admin@perfect-privacy.com
        Subject Public Key Info:
            Public Key Algorithm: rsaEncryption
                Public-Key: (4096 bit)
                Modulus:
                    00:b0:b4:0c:cc:9e:8e:75:db:4d:b1:34:1f:33:0b:
                    3d:ca:cc:5b:93:ea:e2:12:56:ed:93:92:3b:0c:07:
                    cf:05:79:d7:c7:1b:7f:f2:c2:8c:04:e8:32:fe:8f:
                    9b:b1:d2:46:52:1b:05:e0:f0:1a:60:5b:53:fc:1b:
                    b8:ea:51:3a:22:b1:f0:6c:9f:8e:63:59:e2:98:69:
                    f2:25:14:c5:79:60:a9:cf:84:bd:fc:51:3f:59:4e:
                    f4:82:d7:3e:8c:8b:ad:3c:b9:40:0f:bb:fa:a0:49:
                    30:6d:38:9e:c4:f9:d1:c0:6c:62:bc:76:2c:66:d5:
                    f5:16:f4:dd:9c:34:52:e4:53:02:fc:a7:15:d3:9b:
                    09:9c:9d:54:53:0d:19:c1:30:e5:cc:fb:4d:02:ad:
                    42:7a:4e:38:f6:43:7d:73:a7:79:94:bd:b3:a5:89:
                    40:77:ee:b8:8f:b2:d9:07:f2:af:5e:ed:4a:b0:0e:
                    2a:66:e4:e2:e1:c0:06:1a:58:b5:7b:82:c7:40:a6:
                    77:ff:2e:e1:a1:6f:69:94:4e:7a:e7:fe:62:dd:63:
                    b3:c7:90:40:00:dd:a5:b3:dd:0f:0e:e8:44:cf:5c:
                    ff:00:b2:82:a6:4f:bb:93:41:70:3f:7e:21:6d:48:
                    8e:60:19:9f:fe:58:e2:b3:a9:5d:1e:c7:03:ac:bd:
                    5a:bd:cf:3e:76:d8:67:8a:ba:7f:c0:ad:27:00:01:
                    95:10:f3:73:24:b4:1e:ae:3a:07:e5:76:6b:bf:19:
                    c4:6a:f8:53:a2:84:67:ca:38:13:b3:a0:ce:3e:b9:
                    5f:bd:ac:37:c7:54:47:32:ce:a9:d4:98:5a:e8:3e:
                    1a:5e:41:4a:78:07:32:97:82:a4:1b:ce:ab:85:f1:
                    99:9c:e6:37:f8:f1:dd:f0:f2:56:f9:0a:b4:3a:62:
                    dc:44:40:15:60:54:69:41:19:9c:eb:ee:c6:d7:55:
                    c5:d9:ba:87:1d:53:ee:6d:71:b5:e7:ff:d3:2f:df:
                    84:69:33:13:5f:f3:ba:b7:5b:29:ec:ad:35:5a:4d:
                    49:43:6e:51:2c:60:9c:1e:12:df:80:8f:e6:5d:77:
                    5a:25:de:4f:2d:00:46:af:81:bb:10:68:dd:b3:00:
                    20:b6:4e:e9:3a:cd:35:df:79:3d:1d:e6:e6:ac:ce:
                    f2:5a:41:6a:c7:0e:f5:f5:8a:ee:bb:c7:c2:fd:4c:
                    69:64:11:f0:eb:68:0d:56:18:44:de:76:8a:ce:e0:
                    b7:2e:71:d9:59:7b:c6:10:c9:11:43:55:87:46:27:
                    78:64:98:3b:ae:55:6f:4b:78:b9:4c:e4:62:7d:e0:
                    c0:5c:d4:6f:68:69:87:ac:58:d2:e7:18:a2:30:b4:
                    63:84:c1
                Exponent: 65537 (0x10001)
        X509v3 extensions:
            X509v3 Basic Constraints: 
                CA:FALSE
            Netscape Comment: 
                VPN User Certificate
            Netscape Cert Type: 
                SSL Client
            X509v3 Key Usage: 
                Digital Signature
            X509v3 Extended Key Usage: 
                TLS Web Client Authentication
            X509v3 Subject Key Identifier: 
                B2:59:C4:18:E6:F1:B0:A5:E3:2B:0B:2C:12:D7:B3:A9:8A:A3:82:3A
            X509v3 Authority Key Identifier: 
                keyid:86:4F:B8:6D:18:2A:1B:3C:8F:27:34:29:F0:81:9F:BA:6E:61:0E:E1
                DirName:/C=CH/ST=Zug/L=Zug/O=Perfect Privacy/CN=Perfect Privacy/emailAddress=admin@perfect-privacy.com
                serial:FA:11:B5:C4:AA:69:AF:69

    Signature Algorithm: sha512WithRSAEncryption
         0b:c7:85:a9:75:8c:86:7c:00:4b:9e:78:c9:b6:2a:a7:bd:ed:
         60:7c:56:ec:87:a0:c9:94:7c:f1:4a:52:1d:47:3d:47:fd:46:
         d3:6b:ac:e8:2d:98:33:ed:61:7d:b6:bb:66:da:46:e9:7e:d9:
         fb:8e:83:49:bf:e8:5c:45:58:e1:87:88:20:a7:05:5d:e5:31:
         87:e0:72:02:c3:12:4d:45:96:09:ce:a8:1f:bd:95:e6:b3:6d:
         2d:52:e2:c2:49:03:a8:47:96:a8:1b:b1:66:fe:71:92:d0:57:
         ae:45:0f:6c:8e:34:81:6b:7e:dc:06:22:bb:c7:dd:89:b1:56:
         8c:13:5b:e9:93:2a:8d:fd:ff:33:07:03:db:98:a0:91:f4:9c:
         28:4d:d4:b0:0c:48:fd:37:a7:14:83:9b:d4:12:45:f0:8b:28:
         0b:0e:d9:67:63:9b:55:fa:95:23:22:d0:f1:ec:54:50:bf:f8:
         c8:6a:18:98:bc:ce:06:69:d5:6e:92:81:0f:e0:f9:50:e2:09:
         75:aa:8a:97:74:99:8d:5c:39:4f:a6:01:b1:0b:db:a4:6f:76:
         0c:73:89:90:21:9f:3d:a2:7d:2c:f7:81:bb:9c:5c:ec:96:68:
         54:c4:a4:d5:67:fc:b3:b7:4b:65:f1:8c:97:ef:be:05:c4:07:
         ab:90:0a:c7:6e:c5:a8:79:36:86:38:b8:ce:03:1d:7d:22:2e:
         0a:d3:ee:2b:f3:7f:fb:99:e7:2b:66:bc:c4:1d:b0:72:b6:5d:
         9f:dc:e2:52:d3:ef:24:87:f4:d4:36:77:90:ee:36:9a:b4:a7:
         d4:65:14:a3:fd:7f:c7:2c:d5:bb:d3:ff:90:af:31:36:8e:5f:
         07:bc:27:62:ec:a6:1c:ff:b2:f8:7d:90:e3:2d:ac:75:ce:b0:
         fb:bf:3f:3b:e3:b4:22:a5:b0:58:a6:27:d9:54:b1:dc:9b:67:
         b6:0a:f0:17:2f:5c:60:30:65:cb:e4:c6:7f:b7:93:c6:22:b9:
         2f:e3:5d:e2:af:30:ae:fd:ed:85:af:1a:38:34:80:50:d3:48:
         8f:34:97:46:12:fb:f7:b9:d2:df:6d:bc:7e:d2:d5:86:a6:29:
         0a:7b:c7:ce:ea:12:39:fd:7c:a1:a4:04:dc:8e:d0:f9:ab:18:
         de:71:51:c1:e5:7e:c1:ef:5f:b5:ad:97:50:af:c1:bc:c6:af:
         11:04:c7:4d:89:60:13:12:0d:b2:62:2e:45:ef:1a:e5:c9:77:
         df:56:3c:c9:ec:e9:f4:e7:d7:3c:e8:4b:6c:51:a1:fe:41:f7:
         39:e8:d2:5f:d8:3f:57:2e:76:d3:18:46:f7:83:f1:6b:4e:24:
         0f:13:6c:76:4e:c1:68:51
-----BEGIN CERTIFICATE-----
MIIG4TCCBMmgAwIBAgIIDj5OEguc0yEwDQYJKoZIhvcNAQENBQAwgYcxCzAJBgNV
BAYTAkNIMQwwCgYDVQQIEwNadWcxDDAKBgNVBAcTA1p1ZzEYMBYGA1UEChMPUGVy
ZmVjdCBQcml2YWN5MRgwFgYDVQQDEw9QZXJmZWN0IFByaXZhY3kxKDAmBgkqhkiG
9w0BCQEWGWFkbWluQHBlcmZlY3QtcHJpdmFjeS5jb20wHhcNMjMwNjA3MDAwMDAw
WhcNMjUwMjAxMDAwMDAwWjCBjTELMAkGA1UEBhMCQ0gxDDAKBgNVBAgTA1p1ZzEY
MBYGA1UEChMPUGVyZmVjdCBQcml2YWN5MSwwKgYDVQQDFCNDbGllbnRfYmVsZ3Jh
ZGUucGVyZmVjdC1wcml2YWN5LmNvbTEoMCYGCSqGSIb3DQEJARYZYWRtaW5AcGVy
ZmVjdC1wcml2YWN5LmNvbTCCAiIwDQYJKoZIhvcNAQEBBQADggIPADCCAgoCggIB
ALC0DMyejnXbTbE0HzMLPcrMW5Pq4hJW7ZOSOwwHzwV518cbf/LCjAToMv6Pm7HS
RlIbBeDwGmBbU/wbuOpROiKx8GyfjmNZ4php8iUUxXlgqc+EvfxRP1lO9ILXPoyL
rTy5QA+7+qBJMG04nsT50cBsYrx2LGbV9Rb03Zw0UuRTAvynFdObCZydVFMNGcEw
5cz7TQKtQnpOOPZDfXOneZS9s6WJQHfuuI+y2Qfyr17tSrAOKmbk4uHABhpYtXuC
x0Cmd/8u4aFvaZROeuf+Yt1js8eQQADdpbPdDw7oRM9c/wCygqZPu5NBcD9+IW1I
jmAZn/5Y4rOpXR7HA6y9Wr3PPnbYZ4q6f8CtJwABlRDzcyS0Hq46B+V2a78ZxGr4
U6KEZ8o4E7Ogzj65X72sN8dURzLOqdSYWug+Gl5BSngHMpeCpBvOq4XxmZzmN/jx
3fDyVvkKtDpi3ERAFWBUaUEZnOvuxtdVxdm6hx1T7m1xtef/0y/fhGkzE1/zurdb
KeytNVpNSUNuUSxgnB4S34CP5l13WiXeTy0ARq+BuxBo3bMAILZO6TrNNd95PR3m
5qzO8lpBascO9fWK7rvHwv1MaWQR8OtoDVYYRN52is7gty5x2Vl7xhDJEUNVh0Yn
eGSYO65Vb0t4uUzkYn3gwFzUb2hph6xY0ucYojC0Y4TBAgMBAAGjggFHMIIBQzAJ
BgNVHRMEAjAAMCMGCWCGSAGG+EIBDQQWFhRWUE4gVXNlciBDZXJ0aWZpY2F0ZTAR
BglghkgBhvhCAQEEBAMCB4AwCwYDVR0PBAQDAgeAMBMGA1UdJQQMMAoGCCsGAQUF
BwMCMB0GA1UdDgQWBBSyWcQY5vGwpeMrCywS17OpiqOCOjCBvAYDVR0jBIG0MIGx
gBSGT7htGCobPI8nNCnwgZ+6bmEO4aGBjaSBijCBhzELMAkGA1UEBhMCQ0gxDDAK
BgNVBAgTA1p1ZzEMMAoGA1UEBxMDWnVnMRgwFgYDVQQKEw9QZXJmZWN0IFByaXZh
Y3kxGDAWBgNVBAMTD1BlcmZlY3QgUHJpdmFjeTEoMCYGCSqGSIb3DQEJARYZYWRt
aW5AcGVyZmVjdC1wcml2YWN5LmNvbYIJAPoRtcSqaa9pMA0GCSqGSIb3DQEBDQUA
A4ICAQALx4WpdYyGfABLnnjJtiqnve1gfFbsh6DJlHzxSlIdRz1H/UbTa6zoLZgz
7WF9trtm2kbpftn7joNJv+hcRVjhh4ggpwVd5TGH4HICwxJNRZYJzqgfvZXms20t
UuLCSQOoR5aoG7Fm/nGS0FeuRQ9sjjSBa37cBiK7x92JsVaME1vpkyqN/f8zBwPb
mKCR9JwoTdSwDEj9N6cUg5vUEkXwiygLDtlnY5tV+pUjItDx7FRQv/jIahiYvM4G
adVukoEP4PlQ4gl1qoqXdJmNXDlPpgGxC9ukb3YMc4mQIZ89on0s94G7nFzslmhU
xKTVZ/yzt0tl8YyX774FxAerkArHbsWoeTaGOLjOAx19Ii4K0+4r83/7mecrZrzE
HbBytl2f3OJS0+8kh/TUNneQ7jaatKfUZRSj/X/HLNW70/+QrzE2jl8HvCdi7KYc
/7L4fZDjLax1zrD7vz8747QipbBYpifZVLHcm2e2CvAXL1xgMGXL5MZ/t5PGIrkv
413irzCu/e2Frxo4NIBQ00iPNJdGEvv3udLfbbx+0tWGpikKe8fO6hI5/XyhpATc
jtD5qxjecVHB5X7B71+1rZdQr8G8xq8RBMdNiWATEg2yYi5F7xrlyXffVjzJ7On0
59c86EtsUaH+Qfc56NJf2D9XLnbTGEb3g/FrTiQPE2x2TsFoUQ==
-----END CERTIFICATE-----
