Certificate:
    Data:
        Version: 3 (0x2)
        Serial Number: 2775726090381726527 (0x26855c2c3afc933f)
    Signature Algorithm: sha512WithRSAEncryption
        Issuer: C=CH, ST=Zug, L=Zug, O=Perfect Privacy, CN=Perfect Privacy/emailAddress=admin@perfect-privacy.com
        Validity
            Not Before: Feb 26 00:00:00 2023 GMT
            Not After : Oct 23 00:00:00 2024 GMT
        Subject: C=CH, ST=Zug, O=Perfect Privacy, CN=Client_basel.perfect-privacy.com/emailAddress=admin@perfect-privacy.com
        Subject Public Key Info:
            Public Key Algorithm: rsaEncryption
                Public-Key: (4096 bit)
                Modulus:
                    00:c3:0b:69:53:06:f0:43:9b:0e:68:82:df:77:7b:
                    f9:ce:be:76:06:ac:ff:99:bc:72:2c:79:38:d1:f6:
                    03:5b:14:6f:ae:4a:32:9d:9a:bd:b2:93:0c:d7:a8:
                    bb:86:61:7f:4d:71:28:42:b3:1a:f3:83:4b:bf:c6:
                    04:c3:5a:61:f9:68:e8:46:f5:db:3e:24:c0:7b:3a:
                    52:82:6f:26:89:03:bb:1f:29:2f:02:13:46:01:b5:
                    6f:65:77:59:a2:c1:cc:ac:5e:a1:14:92:58:3c:d5:
                    a4:34:f8:21:6a:7c:34:06:4c:48:07:73:0e:83:5d:
                    71:37:97:2e:d2:28:60:7d:a6:ba:eb:a7:0a:e1:41:
                    6c:6a:f8:65:4b:0a:f8:b4:af:8e:ab:6b:68:52:a8:
                    a9:c5:a9:93:e6:7e:60:c5:df:34:96:1e:e5:54:11:
                    4c:26:2f:ec:0a:10:a0:f5:00:b2:3a:dd:dd:c3:6f:
                    9b:21:46:3e:be:8c:80:b0:23:c3:9a:4a:ee:82:5c:
                    c7:fb:3c:60:31:c6:7c:b1:49:16:a6:ab:00:f5:df:
                    07:a0:3d:b0:9f:87:62:e7:42:0d:6f:ea:cb:85:f3:
                    da:fd:64:80:5d:65:0d:da:a4:d0:58:df:0d:f5:76:
                    99:21:5f:2c:77:cc:ec:22:94:fc:10:2a:7c:c4:76:
                    82:82:aa:fa:2b:a5:0e:74:b6:29:02:d6:cf:29:b7:
                    6b:d7:3b:08:0f:84:d7:a6:1b:6a:8e:6a:1c:25:50:
                    93:e6:3b:d8:d2:79:e7:f2:ee:2b:59:af:08:03:ee:
                    7f:c8:5c:bd:eb:db:15:37:96:29:88:ed:b2:f3:91:
                    3d:fb:e6:cf:51:c1:c5:2b:5c:82:aa:5f:94:24:9a:
                    82:b2:90:d1:0e:4d:ef:5b:86:0b:9f:bb:14:d6:56:
                    10:72:77:42:aa:99:2c:8f:73:99:3b:04:89:0d:8f:
                    22:d5:64:24:83:4c:97:71:6e:31:8d:41:02:f2:91:
                    66:12:10:43:af:ed:ec:03:43:8d:ed:f7:51:e2:f1:
                    14:82:c9:f8:e2:8a:4f:67:13:6a:e6:cf:bc:6f:06:
                    f7:03:5c:ca:25:09:33:78:81:58:bf:7d:e7:36:94:
                    1f:41:6e:c4:ce:a6:d3:f8:42:16:fb:09:53:c3:00:
                    97:2c:6d:e6:1b:09:2e:b4:fa:f8:06:80:86:7f:e0:
                    9d:36:6d:00:0c:1c:92:82:59:ed:59:1b:f2:e5:54:
                    39:c1:82:82:c1:b5:04:72:05:f2:2f:f0:55:0e:89:
                    62:68:5b:b7:96:a5:c7:20:88:e1:f0:3d:d8:66:bb:
                    a0:b1:93:87:e4:57:22:85:fb:e1:f2:30:85:c1:b6:
                    74:78:89
                Exponent: 65537 (0x10001)
        X509v3 extensions:
            X509v3 Basic Constraints: 
                CA:FALSE
            Netscape Comment: 
                VPN User Certificate
            Netscape Cert Type: 
                SSL Client
            X509v3 Key Usage: 
                Digital Signature
            X509v3 Extended Key Usage: 
                TLS Web Client Authentication
            X509v3 Subject Key Identifier: 
                D9:8E:9F:E1:0D:3B:65:57:B6:D6:DB:BA:D6:86:DA:64:74:7B:94:46
            X509v3 Authority Key Identifier: 
                keyid:86:4F:B8:6D:18:2A:1B:3C:8F:27:34:29:F0:81:9F:BA:6E:61:0E:E1
                DirName:/C=CH/ST=Zug/L=Zug/O=Perfect Privacy/CN=Perfect Privacy/emailAddress=admin@perfect-privacy.com
                serial:FA:11:B5:C4:AA:69:AF:69

    Signature Algorithm: sha512WithRSAEncryption
         26:c8:37:6f:5c:ae:99:23:14:e0:00:b8:7a:60:54:45:9e:39:
         b8:95:03:2f:e7:b6:cc:20:a8:e3:b6:26:38:2e:30:eb:e8:6a:
         35:ae:a2:b5:35:b9:1e:92:82:1c:f1:fa:69:bf:42:d8:03:49:
         02:1a:d3:06:29:1f:b9:c5:9c:30:65:b3:6c:7a:22:3a:b1:9a:
         b9:e3:da:74:b9:1d:41:af:54:77:af:34:bf:88:92:fa:0c:4f:
         fc:e6:bd:25:73:f2:14:97:a0:82:2a:4f:e5:16:23:4e:61:50:
         92:5a:d3:d2:c2:8a:3d:39:85:61:28:3b:23:c9:2a:83:b1:a3:
         af:d7:5c:c4:eb:ec:bd:e1:63:42:f6:34:07:b6:0b:3b:eb:ef:
         36:f5:37:63:f2:97:a8:9c:47:32:82:a5:65:0b:26:36:8f:53:
         82:f8:35:f4:fa:4d:66:41:51:65:84:fc:08:2d:c2:80:4d:4e:
         d5:db:30:1b:f4:84:70:7c:7a:1c:c7:02:3c:23:02:69:d8:4a:
         5b:bd:3c:c1:d6:ae:24:31:eb:1e:1f:a3:ef:20:77:a3:8d:49:
         92:51:f1:8c:30:0e:7e:f9:80:9a:3d:5a:96:c2:76:5e:04:f2:
         8d:dc:48:f7:8d:45:d4:4a:20:ee:b2:4e:4c:b5:4e:80:34:76:
         10:d0:e7:8b:13:89:d6:2f:bb:db:c1:71:1f:6d:35:87:a9:11:
         b2:62:bc:54:f9:e2:ff:da:d2:c8:41:f4:67:cb:da:96:3c:37:
         77:55:8b:8d:2b:4a:4c:0a:e0:6d:7d:38:ab:ec:6c:35:39:12:
         16:b7:d3:97:8e:9c:f6:b2:1a:c8:f6:fd:f3:70:ec:97:6d:db:
         33:7d:ad:68:e6:66:eb:da:15:3b:73:71:66:ed:4f:d2:15:d7:
         00:2a:5b:04:5c:69:52:0a:b7:a7:17:81:0a:6f:b2:88:a8:3e:
         66:4f:8a:f5:e0:c7:dc:e0:06:cd:26:f9:82:86:19:17:ce:2f:
         31:7f:17:4f:8d:74:16:f3:3e:fb:f1:f6:8b:1f:6f:10:5e:38:
         3e:32:8c:6a:c8:8b:55:f8:e6:2a:ce:da:bb:b8:3e:7b:e1:85:
         bc:5d:95:80:a2:ea:35:ce:1c:e4:62:40:28:31:70:88:5c:cb:
         66:5e:a4:b4:5e:19:da:40:1a:15:38:a6:a0:e2:49:b7:d3:35:
         44:66:9d:a8:8b:c1:b7:db:18:90:d4:24:bc:11:d3:61:3e:6d:
         d6:0c:bf:b8:a5:19:05:50:0a:cf:5a:b1:03:64:eb:61:d0:dd:
         66:92:96:6f:56:78:31:db:4c:0e:cc:5c:ac:f2:fb:b6:fe:54:
         5e:ae:9f:34:a2:f8:97:0e
-----BEGIN CERTIFICATE-----
MIIG3jCCBMagAwIBAgIIJoVcLDr8kz8wDQYJKoZIhvcNAQENBQAwgYcxCzAJBgNV
BAYTAkNIMQwwCgYDVQQIEwNadWcxDDAKBgNVBAcTA1p1ZzEYMBYGA1UEChMPUGVy
ZmVjdCBQcml2YWN5MRgwFgYDVQQDEw9QZXJmZWN0IFByaXZhY3kxKDAmBgkqhkiG
9w0BCQEWGWFkbWluQHBlcmZlY3QtcHJpdmFjeS5jb20wHhcNMjMwMjI2MDAwMDAw
WhcNMjQxMDIzMDAwMDAwWjCBijELMAkGA1UEBhMCQ0gxDDAKBgNVBAgTA1p1ZzEY
MBYGA1UEChMPUGVyZmVjdCBQcml2YWN5MSkwJwYDVQQDFCBDbGllbnRfYmFzZWwu
cGVyZmVjdC1wcml2YWN5LmNvbTEoMCYGCSqGSIb3DQEJARYZYWRtaW5AcGVyZmVj
dC1wcml2YWN5LmNvbTCCAiIwDQYJKoZIhvcNAQEBBQADggIPADCCAgoCggIBAMML
aVMG8EObDmiC33d7+c6+dgas/5m8cix5ONH2A1sUb65KMp2avbKTDNeou4Zhf01x
KEKzGvODS7/GBMNaYflo6Eb12z4kwHs6UoJvJokDux8pLwITRgG1b2V3WaLBzKxe
oRSSWDzVpDT4IWp8NAZMSAdzDoNdcTeXLtIoYH2muuunCuFBbGr4ZUsK+LSvjqtr
aFKoqcWpk+Z+YMXfNJYe5VQRTCYv7AoQoPUAsjrd3cNvmyFGPr6MgLAjw5pK7oJc
x/s8YDHGfLFJFqarAPXfB6A9sJ+HYudCDW/qy4Xz2v1kgF1lDdqk0FjfDfV2mSFf
LHfM7CKU/BAqfMR2goKq+iulDnS2KQLWzym3a9c7CA+E16Ybao5qHCVQk+Y72NJ5
5/LuK1mvCAPuf8hcvevbFTeWKYjtsvORPfvmz1HBxStcgqpflCSagrKQ0Q5N71uG
C5+7FNZWEHJ3QqqZLI9zmTsEiQ2PItVkJINMl3FuMY1BAvKRZhIQQ6/t7ANDje33
UeLxFILJ+OKKT2cTaubPvG8G9wNcyiUJM3iBWL995zaUH0FuxM6m0/hCFvsJU8MA
lyxt5hsJLrT6+AaAhn/gnTZtAAwckoJZ7Vkb8uVUOcGCgsG1BHIF8i/wVQ6JYmhb
t5alxyCI4fA92Ga7oLGTh+RXIoX74fIwhcG2dHiJAgMBAAGjggFHMIIBQzAJBgNV
HRMEAjAAMCMGCWCGSAGG+EIBDQQWFhRWUE4gVXNlciBDZXJ0aWZpY2F0ZTARBglg
hkgBhvhCAQEEBAMCB4AwCwYDVR0PBAQDAgeAMBMGA1UdJQQMMAoGCCsGAQUFBwMC
MB0GA1UdDgQWBBTZjp/hDTtlV7bW27rWhtpkdHuURjCBvAYDVR0jBIG0MIGxgBSG
T7htGCobPI8nNCnwgZ+6bmEO4aGBjaSBijCBhzELMAkGA1UEBhMCQ0gxDDAKBgNV
BAgTA1p1ZzEMMAoGA1UEBxMDWnVnMRgwFgYDVQQKEw9QZXJmZWN0IFByaXZhY3kx
GDAWBgNVBAMTD1BlcmZlY3QgUHJpdmFjeTEoMCYGCSqGSIb3DQEJARYZYWRtaW5A
cGVyZmVjdC1wcml2YWN5LmNvbYIJAPoRtcSqaa9pMA0GCSqGSIb3DQEBDQUAA4IC
AQAmyDdvXK6ZIxTgALh6YFRFnjm4lQMv57bMIKjjtiY4LjDr6Go1rqK1NbkekoIc
8fppv0LYA0kCGtMGKR+5xZwwZbNseiI6sZq549p0uR1Br1R3rzS/iJL6DE/85r0l
c/IUl6CCKk/lFiNOYVCSWtPSwoo9OYVhKDsjySqDsaOv11zE6+y94WNC9jQHtgs7
6+829Tdj8peonEcygqVlCyY2j1OC+DX0+k1mQVFlhPwILcKATU7V2zAb9IRwfHoc
xwI8IwJp2EpbvTzB1q4kMeseH6PvIHejjUmSUfGMMA5++YCaPVqWwnZeBPKN3Ej3
jUXUSiDusk5MtU6ANHYQ0OeLE4nWL7vbwXEfbTWHqRGyYrxU+eL/2tLIQfRny9qW
PDd3VYuNK0pMCuBtfTir7Gw1ORIWt9OXjpz2shrI9v3zcOyXbdszfa1o5mbr2hU7
c3Fm7U/SFdcAKlsEXGlSCrenF4EKb7KIqD5mT4r14Mfc4AbNJvmChhkXzi8xfxdP
jXQW8z778faLH28QXjg+MoxqyItV+OYqztq7uD574YW8XZWAouo1zhzkYkAoMXCI
XMtmXqS0XhnaQBoVOKag4km30zVEZp2oi8G32xiQ1CS8EdNhPm3WDL+4pRkFUArP
WrEDZOth0N1mkpZvVngx20wOzFys8vu2/lRerp80oviXDg==
-----END CERTIFICATE-----
