Certificate:
    Data:
        Version: 3 (0x2)
        Serial Number:
            c7:bb:59:35:72:3a:c7:7b
    Signature Algorithm: sha512WithRSAEncryption
        Issuer: C=CH, ST=Zug, L=Zug, O=Perfect Privacy, CN=Perfect Privacy/emailAddress=admin@perfect-privacy.com
        Validity
            Not Before: Dec 18 00:00:00 2022 GMT
            Not After : Aug 14 00:00:00 2024 GMT
        Subject: C=CH, ST=Zug, O=Perfect Privacy, CN=Client_chicago.perfect-privacy.com/emailAddress=admin@perfect-privacy.com
        Subject Public Key Info:
            Public Key Algorithm: rsaEncryption
                Public-Key: (4096 bit)
                Modulus:
                    00:b3:b1:40:16:3e:5d:a4:43:d5:52:76:50:21:eb:
                    03:3a:73:a2:b3:39:e9:6a:e6:ed:ca:5f:8e:ef:18:
                    56:4b:ea:18:a9:ab:51:3b:07:53:c0:e0:88:a5:e6:
                    72:92:6c:82:b1:83:07:bf:f7:9f:5a:c4:96:d4:12:
                    ec:02:be:f8:8c:8f:95:1a:37:f1:6b:9f:da:76:15:
                    e1:ea:fc:86:49:f8:73:ba:bb:ec:6b:17:f1:4f:20:
                    34:65:21:f1:40:6a:71:e9:7f:ed:a1:13:8a:04:3b:
                    f5:c4:d3:e7:f0:31:a0:2a:f3:47:ef:8a:3e:d5:0d:
                    d8:7f:67:9d:41:7b:66:79:37:19:48:46:bf:ba:bf:
                    de:75:1a:97:43:6e:09:ed:56:a0:24:56:39:a2:66:
                    66:d6:2d:4d:54:33:ea:fb:fc:21:f5:25:cb:a6:2f:
                    55:a1:25:bd:ed:8f:70:72:49:ad:c2:1e:c8:40:73:
                    20:2f:ed:12:d3:9e:6a:74:9e:85:40:6a:15:f0:3d:
                    b5:dc:7b:25:6f:8e:4d:8e:3c:af:66:44:f5:b1:2c:
                    22:dd:7d:5d:91:33:c4:f2:98:d2:63:37:fa:39:72:
                    6e:bf:47:83:3b:16:11:68:24:6a:02:52:40:e7:cb:
                    a1:c4:a4:13:c7:5b:33:11:a0:83:a6:61:c5:3f:b9:
                    e6:22:61:42:7c:3a:91:c7:67:fc:cd:c2:11:93:0b:
                    32:d1:4b:af:77:7d:38:52:95:41:30:83:0f:98:d2:
                    2d:2d:1d:73:23:23:2a:9c:46:35:a0:05:67:46:6d:
                    88:3a:eb:d8:f9:44:29:4f:1c:f5:7b:16:ab:a4:4c:
                    90:e6:44:81:7a:c6:53:93:6f:f3:55:d3:6a:0e:a4:
                    bf:a5:29:41:72:59:a1:28:cf:1d:e1:70:89:d8:66:
                    af:4f:31:fd:93:fe:9c:6e:f2:81:42:be:63:02:e5:
                    e7:2f:76:31:78:3a:6c:44:9c:4a:3c:62:a3:14:d4:
                    d4:e4:50:e2:48:05:f5:06:ed:bf:ef:09:46:cd:cf:
                    a6:20:ee:ca:94:89:57:1b:84:42:f5:5a:2c:8f:66:
                    ae:e4:7e:c5:44:14:14:87:e3:fd:2d:80:9d:65:c0:
                    f1:ba:63:e2:0d:78:e3:fd:70:4a:03:1a:5f:26:40:
                    09:b5:f5:4a:a6:ba:d4:66:03:b0:1c:1c:b8:45:17:
                    03:02:55:56:eb:13:e8:4b:ff:66:3d:39:02:5d:38:
                    88:94:39:08:70:e6:e9:8a:62:14:f9:db:74:18:af:
                    1d:e4:1b:43:39:f0:8b:1d:45:b7:6d:e3:5c:38:8a:
                    2e:48:f9:9f:8e:ab:e7:2c:0e:39:51:47:6b:d1:d7:
                    f6:c2:8b
                Exponent: 65537 (0x10001)
        X509v3 extensions:
            X509v3 Basic Constraints: 
                CA:FALSE
            Netscape Comment: 
                VPN User Certificate
            Netscape Cert Type: 
                SSL Client
            X509v3 Key Usage: 
                Digital Signature
            X509v3 Extended Key Usage: 
                TLS Web Client Authentication
            X509v3 Subject Key Identifier: 
                53:E5:5E:41:2D:A6:F4:51:CE:1B:2C:5D:6F:62:17:4D:93:B7:92:A5
            X509v3 Authority Key Identifier: 
                keyid:86:4F:B8:6D:18:2A:1B:3C:8F:27:34:29:F0:81:9F:BA:6E:61:0E:E1
                DirName:/C=CH/ST=Zug/L=Zug/O=Perfect Privacy/CN=Perfect Privacy/emailAddress=admin@perfect-privacy.com
                serial:FA:11:B5:C4:AA:69:AF:69

    Signature Algorithm: sha512WithRSAEncryption
         39:29:3e:2c:34:51:27:6c:63:b3:09:dd:8a:b3:75:c3:e8:5e:
         cd:a0:af:ea:b8:db:79:fc:2b:ff:ed:e8:60:82:1d:79:ae:37:
         5c:ed:d2:1e:e3:00:30:85:61:92:04:49:1e:89:5d:37:c3:02:
         6d:d5:b1:6c:71:dd:f7:80:c2:bf:93:d3:93:0e:d3:86:20:d6:
         d7:f6:b6:dd:53:f2:1c:66:bf:da:e6:cb:57:33:43:22:b7:0d:
         67:5d:1b:81:62:eb:a1:d1:99:f4:75:70:2c:2b:1b:71:a6:52:
         a8:3c:1d:6e:1d:cf:46:83:72:07:9d:27:04:b7:82:0b:8c:01:
         45:ba:53:2e:04:f5:67:25:54:f8:fb:fe:2a:e2:bd:ed:e0:8b:
         65:09:45:17:2e:94:37:8a:51:fc:f2:71:23:b5:1e:0f:80:12:
         bd:36:c1:66:47:9f:4c:cb:7d:b7:2c:d3:a3:34:4f:9e:43:c3:
         e7:e0:6f:31:92:40:57:01:53:13:d0:37:06:94:a5:dc:80:87:
         a1:e8:96:b0:a4:57:a0:9e:6b:dd:82:8c:42:db:85:4e:75:d4:
         78:3f:8a:7d:07:03:0e:f1:51:56:25:93:5e:e9:69:45:63:62:
         14:11:2f:4a:41:1c:1a:3d:36:57:e0:04:83:97:33:b2:4d:30:
         a2:c9:ad:c3:9d:b2:31:a3:e6:b3:0b:f2:b6:8e:3e:9e:c4:41:
         d3:6a:b7:47:5f:c1:79:d7:91:31:38:40:8a:34:09:32:30:00:
         b9:80:97:f6:37:7d:ea:a7:05:d1:ed:af:72:b0:d7:c9:11:b8:
         6b:89:61:d8:da:bd:f6:1b:b9:a5:db:45:8b:90:08:d6:11:fe:
         e5:c4:ab:ae:d6:41:a1:0e:3e:2e:42:e3:58:cd:a5:b8:4d:5c:
         af:fb:17:8e:08:0d:9b:f9:57:5c:cb:05:8e:43:3f:45:45:a9:
         30:86:33:5d:1e:c1:f2:46:d3:88:5e:69:a3:77:3a:6a:8d:b5:
         52:d7:50:c4:7c:c8:66:e3:f3:d1:2d:2d:fb:62:73:12:2b:7d:
         bd:ae:2e:26:89:9c:b9:64:10:80:78:da:3d:a0:ee:53:59:48:
         53:c9:8e:19:3c:5e:7e:7e:35:ee:c6:3b:b4:76:bf:a9:5d:ad:
         37:69:30:22:ba:40:1f:69:2c:8f:65:c7:0d:2b:fa:2f:f6:53:
         66:fe:c7:4b:6c:39:fc:70:00:7c:95:2f:8b:c4:38:c3:c9:52:
         35:a1:af:70:82:c9:ae:2f:64:30:b3:cf:f2:95:cc:9c:85:15:
         e3:a1:e4:7d:ed:02:1a:7f:0e:a8:cc:de:a5:18:64:03:bc:77:
         90:8e:a3:8d:23:68:ee:7d
-----BEGIN CERTIFICATE-----
MIIG4TCCBMmgAwIBAgIJAMe7WTVyOsd7MA0GCSqGSIb3DQEBDQUAMIGHMQswCQYD
VQQGEwJDSDEMMAoGA1UECBMDWnVnMQwwCgYDVQQHEwNadWcxGDAWBgNVBAoTD1Bl
cmZlY3QgUHJpdmFjeTEYMBYGA1UEAxMPUGVyZmVjdCBQcml2YWN5MSgwJgYJKoZI
hvcNAQkBFhlhZG1pbkBwZXJmZWN0LXByaXZhY3kuY29tMB4XDTIyMTIxODAwMDAw
MFoXDTI0MDgxNDAwMDAwMFowgYwxCzAJBgNVBAYTAkNIMQwwCgYDVQQIEwNadWcx
GDAWBgNVBAoTD1BlcmZlY3QgUHJpdmFjeTErMCkGA1UEAxQiQ2xpZW50X2NoaWNh
Z28ucGVyZmVjdC1wcml2YWN5LmNvbTEoMCYGCSqGSIb3DQEJARYZYWRtaW5AcGVy
ZmVjdC1wcml2YWN5LmNvbTCCAiIwDQYJKoZIhvcNAQEBBQADggIPADCCAgoCggIB
ALOxQBY+XaRD1VJ2UCHrAzpzorM56Wrm7cpfju8YVkvqGKmrUTsHU8DgiKXmcpJs
grGDB7/3n1rEltQS7AK++IyPlRo38Wuf2nYV4er8hkn4c7q77GsX8U8gNGUh8UBq
cel/7aETigQ79cTT5/AxoCrzR++KPtUN2H9nnUF7Znk3GUhGv7q/3nUal0NuCe1W
oCRWOaJmZtYtTVQz6vv8IfUly6YvVaElve2PcHJJrcIeyEBzIC/tEtOeanSehUBq
FfA9tdx7JW+OTY48r2ZE9bEsIt19XZEzxPKY0mM3+jlybr9HgzsWEWgkagJSQOfL
ocSkE8dbMxGgg6ZhxT+55iJhQnw6kcdn/M3CEZMLMtFLr3d9OFKVQTCDD5jSLS0d
cyMjKpxGNaAFZ0ZtiDrr2PlEKU8c9XsWq6RMkOZEgXrGU5Nv81XTag6kv6UpQXJZ
oSjPHeFwidhmr08x/ZP+nG7ygUK+YwLl5y92MXg6bEScSjxioxTU1ORQ4kgF9Qbt
v+8JRs3PpiDuypSJVxuEQvVaLI9mruR+xUQUFIfj/S2AnWXA8bpj4g144/1wSgMa
XyZACbX1Sqa61GYDsBwcuEUXAwJVVusT6Ev/Zj05Al04iJQ5CHDm6YpiFPnbdBiv
HeQbQznwix1Ft23jXDiKLkj5n46r5ywOOVFHa9HX9sKLAgMBAAGjggFHMIIBQzAJ
BgNVHRMEAjAAMCMGCWCGSAGG+EIBDQQWFhRWUE4gVXNlciBDZXJ0aWZpY2F0ZTAR
BglghkgBhvhCAQEEBAMCB4AwCwYDVR0PBAQDAgeAMBMGA1UdJQQMMAoGCCsGAQUF
BwMCMB0GA1UdDgQWBBRT5V5BLab0Uc4bLF1vYhdNk7eSpTCBvAYDVR0jBIG0MIGx
gBSGT7htGCobPI8nNCnwgZ+6bmEO4aGBjaSBijCBhzELMAkGA1UEBhMCQ0gxDDAK
BgNVBAgTA1p1ZzEMMAoGA1UEBxMDWnVnMRgwFgYDVQQKEw9QZXJmZWN0IFByaXZh
Y3kxGDAWBgNVBAMTD1BlcmZlY3QgUHJpdmFjeTEoMCYGCSqGSIb3DQEJARYZYWRt
aW5AcGVyZmVjdC1wcml2YWN5LmNvbYIJAPoRtcSqaa9pMA0GCSqGSIb3DQEBDQUA
A4ICAQA5KT4sNFEnbGOzCd2Ks3XD6F7NoK/quNt5/Cv/7ehggh15rjdc7dIe4wAw
hWGSBEkeiV03wwJt1bFscd33gMK/k9OTDtOGINbX9rbdU/IcZr/a5stXM0Mitw1n
XRuBYuuh0Zn0dXAsKxtxplKoPB1uHc9Gg3IHnScEt4ILjAFFulMuBPVnJVT4+/4q
4r3t4ItlCUUXLpQ3ilH88nEjtR4PgBK9NsFmR59My323LNOjNE+eQ8Pn4G8xkkBX
AVMT0DcGlKXcgIeh6JawpFegnmvdgoxC24VOddR4P4p9BwMO8VFWJZNe6WlFY2IU
ES9KQRwaPTZX4ASDlzOyTTCiya3DnbIxo+azC/K2jj6exEHTardHX8F515ExOECK
NAkyMAC5gJf2N33qpwXR7a9ysNfJEbhriWHY2r32G7ml20WLkAjWEf7lxKuu1kGh
Dj4uQuNYzaW4TVyv+xeOCA2b+VdcywWOQz9FRakwhjNdHsHyRtOIXmmjdzpqjbVS
11DEfMhm4/PRLS37YnMSK329ri4miZy5ZBCAeNo9oO5TWUhTyY4ZPF5+fjXuxju0
dr+pXa03aTAiukAfaSyPZccNK/ov9lNm/sdLbDn8cAB8lS+LxDjDyVI1oa9wgsmu
L2Qws8/ylcychRXjoeR97QIafw6ozN6lGGQDvHeQjqONI2jufQ==
-----END CERTIFICATE-----
