Certificate:
    Data:
        Version: 3 (0x2)
        Serial Number:
            e2:36:d2:62:72:a4:26:c5
    Signature Algorithm: sha512WithRSAEncryption
        Issuer: C=CH, ST=Zug, L=Zug, O=Perfect Privacy, CN=Perfect Privacy/emailAddress=admin@perfect-privacy.com
        Validity
            Not Before: Jul 29 00:00:00 2023 GMT
            Not After : Mar 25 00:00:00 2025 GMT
        Subject: C=CH, ST=Zug, O=Perfect Privacy, CN=Client_calais.perfect-privacy.com/emailAddress=admin@perfect-privacy.com
        Subject Public Key Info:
            Public Key Algorithm: rsaEncryption
                Public-Key: (4096 bit)
                Modulus:
                    00:d7:b1:23:00:b6:39:f0:73:14:3e:05:68:31:76:
                    e2:2b:c5:0d:58:2a:7a:84:eb:fa:5e:ac:44:7d:32:
                    8d:a7:06:27:2e:a8:3f:ca:6a:ba:d5:e8:fb:ae:2b:
                    2e:db:25:df:a5:2f:c5:79:5c:27:2b:e4:0c:24:2c:
                    99:64:18:0f:9e:72:88:83:09:ca:cb:97:42:fd:0a:
                    58:bf:03:26:8c:c9:e3:ff:8e:20:63:c0:9a:a7:91:
                    ac:66:41:ec:16:19:34:5e:fd:20:30:13:f8:46:3d:
                    90:5b:73:02:7f:a7:07:9b:a8:5c:9a:dd:5b:6f:b4:
                    72:ca:e2:eb:3a:19:da:56:47:5a:c1:59:89:b5:27:
                    00:68:99:4e:c7:c2:a6:d0:be:0b:9f:cd:74:d4:c7:
                    58:f6:94:97:b6:37:6f:d4:ac:d2:66:de:12:89:64:
                    a2:a7:ef:7b:99:26:8c:26:66:31:36:5a:19:1c:da:
                    ee:de:99:a9:be:2a:65:1d:b2:6e:f3:c5:60:5e:ea:
                    aa:41:7b:79:ba:61:1b:38:16:14:0d:25:57:ff:e7:
                    6e:07:85:52:04:da:fc:4b:b8:c1:2a:4a:5f:4e:54:
                    a4:d6:5f:04:5b:47:cc:6e:03:04:9e:87:19:eb:a0:
                    40:53:bc:de:f4:ab:b9:27:78:f0:02:e0:16:b2:d9:
                    5f:15:9d:c9:a4:c7:9b:5e:3c:e9:c0:d9:52:59:3c:
                    8d:07:4d:d3:48:86:ba:80:6c:27:74:9b:b1:69:01:
                    f1:ed:3c:f5:21:8c:9a:81:e5:7f:c8:bf:8c:54:66:
                    a5:25:b8:92:30:61:b0:d6:cf:e6:93:23:7a:6c:c1:
                    d9:ad:f9:a5:53:05:3a:2b:9a:88:bd:c1:f0:32:bc:
                    1d:3b:3f:5e:ba:78:c4:13:42:e0:6c:37:dc:e2:be:
                    ab:7e:c8:89:de:0a:e2:67:e3:d9:09:f4:0e:df:69:
                    c5:e2:66:ae:ad:9a:36:cd:33:2f:f0:85:b4:b3:f7:
                    ba:5d:a1:41:d3:98:6b:89:75:cd:9d:5a:78:cd:d0:
                    70:ba:76:e1:e5:13:22:aa:53:b8:5b:b9:0d:1f:ba:
                    ea:ad:fe:ae:67:00:28:70:f9:34:3b:82:94:43:31:
                    75:72:50:12:86:e3:48:13:87:e5:3c:96:3a:01:ee:
                    2c:b2:57:fa:77:24:da:c1:9b:17:99:1c:76:28:a2:
                    d0:be:1d:93:4a:39:58:35:81:e4:8c:b9:b4:1f:9f:
                    1a:a0:6e:e3:64:cf:47:bf:42:79:86:33:c7:93:19:
                    0e:1e:f5:36:80:87:cf:d7:31:85:06:fe:fa:ff:ea:
                    f5:66:55:0f:d3:fd:95:f0:4e:2b:4f:09:15:53:2f:
                    8a:7d:99
                Exponent: 65537 (0x10001)
        X509v3 extensions:
            X509v3 Basic Constraints: 
                CA:FALSE
            Netscape Comment: 
                VPN User Certificate
            Netscape Cert Type: 
                SSL Client
            X509v3 Key Usage: 
                Digital Signature
            X509v3 Extended Key Usage: 
                TLS Web Client Authentication
            X509v3 Subject Key Identifier: 
                83:FC:A9:A3:F1:1D:54:16:98:9B:77:2F:05:3E:EF:C9:7E:0C:31:2F
            X509v3 Authority Key Identifier: 
                keyid:86:4F:B8:6D:18:2A:1B:3C:8F:27:34:29:F0:81:9F:BA:6E:61:0E:E1
                DirName:/C=CH/ST=Zug/L=Zug/O=Perfect Privacy/CN=Perfect Privacy/emailAddress=admin@perfect-privacy.com
                serial:FA:11:B5:C4:AA:69:AF:69

    Signature Algorithm: sha512WithRSAEncryption
         0b:5c:9c:7f:ab:82:46:33:14:e9:41:f0:c0:50:d2:d0:92:82:
         4f:fe:c7:db:98:e8:f6:9b:97:ef:7c:cb:36:81:22:a0:72:63:
         83:20:48:8c:97:c7:0a:cf:67:3e:e6:5a:40:90:63:2c:bf:dc:
         4f:53:c9:48:67:0d:cc:d4:46:87:08:77:bd:3e:46:52:db:0a:
         f5:50:76:a3:83:72:ab:f1:73:06:ec:00:9c:de:e6:9d:a3:dc:
         eb:89:5d:97:49:da:67:c0:3b:6b:64:37:76:b3:22:a7:7e:c3:
         96:b5:53:04:f9:ff:69:7f:d4:44:cd:51:4c:41:3e:42:2b:ea:
         69:a7:99:51:66:0b:1e:31:09:f6:70:41:74:7b:13:98:31:8a:
         fb:8f:2d:84:d5:8e:c7:0f:0a:16:4a:cd:4a:4c:15:23:bc:58:
         95:aa:88:ec:37:29:c9:b2:a2:2c:57:55:0a:3b:e4:de:dd:f4:
         61:6b:8b:07:3e:b7:f0:5a:75:a5:23:e5:03:74:06:e6:1d:b8:
         98:fd:dd:e7:1e:13:ee:22:8b:b6:f0:31:5f:84:8c:33:9f:5b:
         73:e8:3f:30:4a:52:af:b3:e3:24:22:2a:31:61:9f:7c:27:fe:
         57:54:88:0d:85:65:f2:4d:1f:39:dc:5a:37:10:10:42:f2:2d:
         ce:a2:ed:b9:53:24:11:62:c5:5f:8f:6f:98:57:8e:82:45:8f:
         a4:14:6c:43:04:ef:e8:73:f0:d8:8f:08:78:1e:d9:d4:90:16:
         84:e2:52:a1:a8:8f:2b:54:ae:f2:98:df:7d:7c:ca:57:85:d0:
         14:15:57:cd:d0:3e:a7:f8:c8:67:31:41:ad:4e:2a:fd:4c:39:
         d3:65:7e:e6:e1:e7:6d:5c:15:07:9b:23:82:a8:81:a3:c9:ba:
         59:fc:49:e1:a7:0e:6a:37:58:78:22:0f:24:ac:75:23:45:3c:
         f4:c2:bc:ed:a5:b3:8f:e2:61:da:cc:54:08:ab:54:24:ce:a9:
         d1:02:ee:18:27:39:cb:c4:48:4a:4d:d2:d7:1f:d6:a1:db:ae:
         db:61:0c:a3:59:85:99:d7:2e:17:22:02:84:16:da:7c:f7:ba:
         6c:0a:79:cf:ab:d3:3e:1c:1d:4a:b5:f1:f4:2c:dc:af:c3:b4:
         0e:8b:65:21:37:f1:61:4e:b6:35:92:a5:a0:19:63:03:f0:06:
         d9:3b:aa:8d:19:51:91:61:0c:c9:70:23:cf:0c:9e:2d:e2:2a:
         8a:95:b4:2e:df:fb:60:15:15:fe:86:43:86:25:fa:bd:db:09:
         70:72:f3:b4:93:2f:e8:c3:c6:9d:b1:6e:c8:8b:e8:a0:3d:81:
         45:96:96:52:72:07:59:c7
-----BEGIN CERTIFICATE-----
MIIG4DCCBMigAwIBAgIJAOI20mJypCbFMA0GCSqGSIb3DQEBDQUAMIGHMQswCQYD
VQQGEwJDSDEMMAoGA1UECBMDWnVnMQwwCgYDVQQHEwNadWcxGDAWBgNVBAoTD1Bl
cmZlY3QgUHJpdmFjeTEYMBYGA1UEAxMPUGVyZmVjdCBQcml2YWN5MSgwJgYJKoZI
hvcNAQkBFhlhZG1pbkBwZXJmZWN0LXByaXZhY3kuY29tMB4XDTIzMDcyOTAwMDAw
MFoXDTI1MDMyNTAwMDAwMFowgYsxCzAJBgNVBAYTAkNIMQwwCgYDVQQIEwNadWcx
GDAWBgNVBAoTD1BlcmZlY3QgUHJpdmFjeTEqMCgGA1UEAxQhQ2xpZW50X2NhbGFp
cy5wZXJmZWN0LXByaXZhY3kuY29tMSgwJgYJKoZIhvcNAQkBFhlhZG1pbkBwZXJm
ZWN0LXByaXZhY3kuY29tMIICIjANBgkqhkiG9w0BAQEFAAOCAg8AMIICCgKCAgEA
17EjALY58HMUPgVoMXbiK8UNWCp6hOv6XqxEfTKNpwYnLqg/ymq61ej7risu2yXf
pS/FeVwnK+QMJCyZZBgPnnKIgwnKy5dC/QpYvwMmjMnj/44gY8Cap5GsZkHsFhk0
Xv0gMBP4Rj2QW3MCf6cHm6hcmt1bb7RyyuLrOhnaVkdawVmJtScAaJlOx8Km0L4L
n8101MdY9pSXtjdv1KzSZt4SiWSip+97mSaMJmYxNloZHNru3pmpviplHbJu88Vg
XuqqQXt5umEbOBYUDSVX/+duB4VSBNr8S7jBKkpfTlSk1l8EW0fMbgMEnocZ66BA
U7ze9Ku5J3jwAuAWstlfFZ3JpMebXjzpwNlSWTyNB03TSIa6gGwndJuxaQHx7Tz1
IYyageV/yL+MVGalJbiSMGGw1s/mkyN6bMHZrfmlUwU6K5qIvcHwMrwdOz9eunjE
E0LgbDfc4r6rfsiJ3griZ+PZCfQO32nF4maurZo2zTMv8IW0s/e6XaFB05hriXXN
nVp4zdBwunbh5RMiqlO4W7kNH7rqrf6uZwAocPk0O4KUQzF1clAShuNIE4flPJY6
Ae4sslf6dyTawZsXmRx2KKLQvh2TSjlYNYHkjLm0H58aoG7jZM9Hv0J5hjPHkxkO
HvU2gIfP1zGFBv76/+r1ZlUP0/2V8E4rTwkVUy+KfZkCAwEAAaOCAUcwggFDMAkG
A1UdEwQCMAAwIwYJYIZIAYb4QgENBBYWFFZQTiBVc2VyIENlcnRpZmljYXRlMBEG
CWCGSAGG+EIBAQQEAwIHgDALBgNVHQ8EBAMCB4AwEwYDVR0lBAwwCgYIKwYBBQUH
AwIwHQYDVR0OBBYEFIP8qaPxHVQWmJt3LwU+78l+DDEvMIG8BgNVHSMEgbQwgbGA
FIZPuG0YKhs8jyc0KfCBn7puYQ7hoYGNpIGKMIGHMQswCQYDVQQGEwJDSDEMMAoG
A1UECBMDWnVnMQwwCgYDVQQHEwNadWcxGDAWBgNVBAoTD1BlcmZlY3QgUHJpdmFj
eTEYMBYGA1UEAxMPUGVyZmVjdCBQcml2YWN5MSgwJgYJKoZIhvcNAQkBFhlhZG1p
bkBwZXJmZWN0LXByaXZhY3kuY29tggkA+hG1xKppr2kwDQYJKoZIhvcNAQENBQAD
ggIBAAtcnH+rgkYzFOlB8MBQ0tCSgk/+x9uY6Pabl+98yzaBIqByY4MgSIyXxwrP
Zz7mWkCQYyy/3E9TyUhnDczURocId70+RlLbCvVQdqODcqvxcwbsAJze5p2j3OuJ
XZdJ2mfAO2tkN3azIqd+w5a1UwT5/2l/1ETNUUxBPkIr6mmnmVFmCx4xCfZwQXR7
E5gxivuPLYTVjscPChZKzUpMFSO8WJWqiOw3KcmyoixXVQo75N7d9GFriwc+t/Ba
daUj5QN0BuYduJj93eceE+4ii7bwMV+EjDOfW3PoPzBKUq+z4yQiKjFhn3wn/ldU
iA2FZfJNHzncWjcQEELyLc6i7blTJBFixV+Pb5hXjoJFj6QUbEME7+hz8NiPCHge
2dSQFoTiUqGojytUrvKY3318yleF0BQVV83QPqf4yGcxQa1OKv1MOdNlfubh521c
FQebI4KogaPJuln8SeGnDmo3WHgiDySsdSNFPPTCvO2ls4/iYdrMVAirVCTOqdEC
7hgnOcvESEpN0tcf1qHbrtthDKNZhZnXLhciAoQW2nz3umwKec+r0z4cHUq18fQs
3K/DtA6LZSE38WFOtjWSpaAZYwPwBtk7qo0ZUZFhDMlwI88Mni3iKoqVtC7f+2AV
Ff6GQ4Yl+r3bCXBy87STL+jDxp2xbsiL6KA9gUWWllJyB1nH
-----END CERTIFICATE-----
