Certificate:
    Data:
        Version: 3 (0x2)
        Serial Number:
            cd:97:63:51:64:f2:fb:9d
    Signature Algorithm: sha512WithRSAEncryption
        Issuer: C=CH, ST=Zug, L=Zug, O=Perfect Privacy, CN=Perfect Privacy/emailAddress=admin@perfect-privacy.com
        Validity
            Not Before: Jun 10 00:00:00 2024 GMT
            Not After : Feb  5 00:00:00 2026 GMT
        Subject: C=CH, ST=Zug, O=Perfect Privacy, CN=Client_calais.perfect-privacy.com/emailAddress=admin@perfect-privacy.com
        Subject Public Key Info:
            Public Key Algorithm: rsaEncryption
                Public-Key: (4096 bit)
                Modulus:
                    00:d2:e1:dc:6d:aa:28:49:d1:31:08:1b:f4:8b:15:
                    4e:48:8e:30:c2:5a:12:e9:85:7c:35:57:3f:dc:49:
                    3f:2b:b3:94:0e:7b:16:91:48:4e:5a:cd:3f:52:ba:
                    58:c4:0d:6d:06:3c:85:b2:da:4a:3c:9d:1e:a5:d9:
                    0c:44:ae:2b:0d:7c:48:96:e2:90:08:a5:88:17:9a:
                    6b:85:d2:0f:74:15:20:e5:5a:38:f4:68:ca:4d:14:
                    11:ec:9c:76:11:fe:62:44:be:c5:0e:e9:97:ac:b5:
                    d4:f1:b5:6d:95:03:3a:ca:3d:fb:f9:44:11:d9:b5:
                    3c:23:df:9e:12:74:e9:06:b4:ba:55:74:be:2c:77:
                    15:39:6a:ab:0e:c3:ab:d6:f6:bd:97:6a:70:2c:25:
                    2c:bf:54:bb:87:a2:36:38:ad:56:9e:c5:74:ce:fb:
                    bd:37:31:af:8a:3f:4c:1b:f1:81:28:88:d5:1f:cb:
                    66:00:27:21:b2:47:5f:55:70:19:cb:10:5f:1c:fd:
                    95:4f:92:19:e6:98:6f:60:18:21:00:ff:e2:98:a1:
                    ce:17:af:30:ea:77:c1:be:b9:76:a4:ce:fa:81:7c:
                    e6:65:12:56:c1:d2:3d:5d:3d:9e:3b:ef:89:6c:0c:
                    c2:50:3b:50:47:37:c2:13:09:64:8f:09:6a:3c:1d:
                    e7:4a:72:12:30:a7:d2:11:0f:d7:d0:a2:48:7a:3c:
                    41:67:1d:5d:55:53:ce:ed:7c:90:69:63:dd:09:1c:
                    12:d8:3a:de:b3:fe:45:13:ff:17:9a:1f:b0:94:09:
                    15:db:f7:b0:7d:ed:8d:69:31:91:18:9a:15:0a:d8:
                    6b:fc:6a:e1:69:b4:11:4e:db:8e:c8:9d:b8:ff:33:
                    ac:85:97:a9:27:4a:4a:52:e8:ba:bc:a2:10:79:a6:
                    ef:2c:12:24:34:cd:26:14:a8:0e:80:5e:cc:b1:88:
                    db:0a:8c:cc:67:7d:97:5f:a7:ff:7f:3c:03:2c:6d:
                    e4:d3:74:e9:44:5e:5f:16:89:b5:a9:b8:0a:80:fb:
                    44:86:7a:6f:f3:96:57:e0:cf:d7:e6:50:68:20:72:
                    47:aa:0b:44:43:44:68:a1:f3:92:76:ed:9f:d0:5f:
                    d3:7f:1e:22:4e:e9:ce:71:24:ab:75:5e:38:7b:8c:
                    f2:54:6d:b4:71:79:af:e3:68:bb:6c:ac:a6:ba:79:
                    76:6f:89:2e:5a:92:df:2a:58:d5:03:f0:f5:77:81:
                    61:4f:4e:b9:64:7f:53:31:c4:71:9d:0b:e9:0d:18:
                    27:b7:d1:b6:62:a0:2e:83:44:75:51:1a:03:56:77:
                    10:44:fb:f8:1d:79:b3:d8:19:0e:87:e5:cd:dc:0b:
                    d6:da:87
                Exponent: 65537 (0x10001)
        X509v3 extensions:
            X509v3 Basic Constraints: 
                CA:FALSE
            Netscape Comment: 
                VPN User Certificate
            Netscape Cert Type: 
                SSL Client
            X509v3 Key Usage: 
                Digital Signature
            X509v3 Extended Key Usage: 
                TLS Web Client Authentication
            X509v3 Subject Key Identifier: 
                59:F9:54:B9:6E:FA:5F:41:4D:2A:72:FF:C9:05:AA:61:88:9C:F1:C8
            X509v3 Authority Key Identifier: 
                keyid:86:4F:B8:6D:18:2A:1B:3C:8F:27:34:29:F0:81:9F:BA:6E:61:0E:E1
                DirName:/C=CH/ST=Zug/L=Zug/O=Perfect Privacy/CN=Perfect Privacy/emailAddress=admin@perfect-privacy.com
                serial:FA:11:B5:C4:AA:69:AF:69

    Signature Algorithm: sha512WithRSAEncryption
         1f:dc:22:a4:f2:98:c6:33:30:c8:67:33:3a:c7:ca:c5:fa:7f:
         ba:3a:78:35:04:fd:fa:d6:53:54:5b:28:2b:e3:85:d4:8e:24:
         3b:d0:fb:74:a3:a9:e3:1d:a6:28:35:a8:18:82:40:5b:cf:cd:
         a6:04:c3:12:05:e3:32:23:d2:05:53:06:b2:80:12:2c:15:5f:
         68:6a:5b:0b:4b:ed:90:dd:5c:4f:e1:5e:78:52:27:3c:6e:c3:
         db:f6:8b:9c:a3:19:bf:60:2c:c3:be:02:1b:4e:21:21:80:02:
         32:2d:08:7d:c2:94:a1:72:50:54:79:37:7b:65:12:46:2a:56:
         80:d4:b7:ea:a9:2d:ef:64:61:5d:1c:aa:8c:61:f9:17:d1:c6:
         99:7c:31:16:5f:36:64:8b:eb:e7:19:4e:2b:1b:29:90:0d:b0:
         23:4e:24:cb:cc:8f:14:77:8b:34:38:8e:74:30:41:06:b8:c3:
         d9:5e:7b:e3:79:be:99:c8:54:50:27:4d:57:04:e1:a0:86:5c:
         d0:9f:69:ce:ce:d1:7c:4b:4a:a0:71:dc:d7:db:db:88:56:06:
         f7:b5:1e:42:b0:ef:16:d4:de:f1:d0:51:6f:2c:fe:f5:95:8e:
         88:54:46:ec:73:1a:66:a0:1a:2d:c2:bf:7e:93:cd:9c:af:7f:
         a4:6a:5f:e8:d8:cd:2d:ca:ec:97:7b:3f:f2:10:f3:91:bc:af:
         78:26:e9:07:6d:af:a6:e3:96:1d:36:da:eb:e4:7c:bd:77:8e:
         2a:30:9b:aa:04:34:90:bd:8f:6f:33:a1:7f:52:50:e7:ce:b9:
         6e:0b:fa:ff:6f:01:43:58:23:43:35:17:4e:80:16:f2:2f:aa:
         1d:d9:34:82:e2:92:33:ea:1d:f3:1d:fb:2a:9e:c2:db:ff:0e:
         24:56:b2:45:f5:38:5d:60:32:b1:04:0d:66:b9:f8:25:ae:11:
         c0:74:0b:bd:f1:dc:80:8b:31:12:e3:76:9c:67:62:c1:80:52:
         af:51:77:46:84:5b:81:45:57:51:64:9a:df:62:39:6d:e8:bd:
         d1:dd:3d:55:6a:cb:50:06:05:01:93:c0:8d:d1:41:1a:7e:82:
         b5:2d:f5:c7:1c:1c:dd:04:f4:7c:66:0e:7e:e6:24:fb:2d:0a:
         73:94:f0:b0:74:be:fc:36:d0:7f:f4:76:96:4d:67:d3:36:19:
         3b:8e:7d:e0:3c:ff:a2:af:ee:bd:3b:f2:e3:2d:ef:55:63:dd:
         29:67:b5:bf:31:3e:44:ca:03:ca:e7:fe:cc:04:d1:4d:93:a3:
         ce:b8:2e:a9:b3:4d:1b:ca:78:36:c3:db:d7:bf:60:03:81:c7:
         57:a1:41:0a:af:d1:c4:6f
-----BEGIN CERTIFICATE-----
MIIG4DCCBMigAwIBAgIJAM2XY1Fk8vudMA0GCSqGSIb3DQEBDQUAMIGHMQswCQYD
VQQGEwJDSDEMMAoGA1UECBMDWnVnMQwwCgYDVQQHEwNadWcxGDAWBgNVBAoTD1Bl
cmZlY3QgUHJpdmFjeTEYMBYGA1UEAxMPUGVyZmVjdCBQcml2YWN5MSgwJgYJKoZI
hvcNAQkBFhlhZG1pbkBwZXJmZWN0LXByaXZhY3kuY29tMB4XDTI0MDYxMDAwMDAw
MFoXDTI2MDIwNTAwMDAwMFowgYsxCzAJBgNVBAYTAkNIMQwwCgYDVQQIEwNadWcx
GDAWBgNVBAoTD1BlcmZlY3QgUHJpdmFjeTEqMCgGA1UEAxQhQ2xpZW50X2NhbGFp
cy5wZXJmZWN0LXByaXZhY3kuY29tMSgwJgYJKoZIhvcNAQkBFhlhZG1pbkBwZXJm
ZWN0LXByaXZhY3kuY29tMIICIjANBgkqhkiG9w0BAQEFAAOCAg8AMIICCgKCAgEA
0uHcbaooSdExCBv0ixVOSI4wwloS6YV8NVc/3Ek/K7OUDnsWkUhOWs0/UrpYxA1t
BjyFstpKPJ0epdkMRK4rDXxIluKQCKWIF5prhdIPdBUg5Vo49GjKTRQR7Jx2Ef5i
RL7FDumXrLXU8bVtlQM6yj37+UQR2bU8I9+eEnTpBrS6VXS+LHcVOWqrDsOr1va9
l2pwLCUsv1S7h6I2OK1WnsV0zvu9NzGvij9MG/GBKIjVH8tmACchskdfVXAZyxBf
HP2VT5IZ5phvYBghAP/imKHOF68w6nfBvrl2pM76gXzmZRJWwdI9XT2eO++JbAzC
UDtQRzfCEwlkjwlqPB3nSnISMKfSEQ/X0KJIejxBZx1dVVPO7XyQaWPdCRwS2Dre
s/5FE/8Xmh+wlAkV2/ewfe2NaTGRGJoVCthr/GrhabQRTtuOyJ24/zOshZepJ0pK
Uui6vKIQeabvLBIkNM0mFKgOgF7MsYjbCozMZ32XX6f/fzwDLG3k03TpRF5fFom1
qbgKgPtEhnpv85ZX4M/X5lBoIHJHqgtEQ0RoofOSdu2f0F/Tfx4iTunOcSSrdV44
e4zyVG20cXmv42i7bKymunl2b4kuWpLfKljVA/D1d4FhT065ZH9TMcRxnQvpDRgn
t9G2YqAug0R1URoDVncQRPv4HXmz2BkOh+XN3AvW2ocCAwEAAaOCAUcwggFDMAkG
A1UdEwQCMAAwIwYJYIZIAYb4QgENBBYWFFZQTiBVc2VyIENlcnRpZmljYXRlMBEG
CWCGSAGG+EIBAQQEAwIHgDALBgNVHQ8EBAMCB4AwEwYDVR0lBAwwCgYIKwYBBQUH
AwIwHQYDVR0OBBYEFFn5VLlu+l9BTSpy/8kFqmGInPHIMIG8BgNVHSMEgbQwgbGA
FIZPuG0YKhs8jyc0KfCBn7puYQ7hoYGNpIGKMIGHMQswCQYDVQQGEwJDSDEMMAoG
A1UECBMDWnVnMQwwCgYDVQQHEwNadWcxGDAWBgNVBAoTD1BlcmZlY3QgUHJpdmFj
eTEYMBYGA1UEAxMPUGVyZmVjdCBQcml2YWN5MSgwJgYJKoZIhvcNAQkBFhlhZG1p
bkBwZXJmZWN0LXByaXZhY3kuY29tggkA+hG1xKppr2kwDQYJKoZIhvcNAQENBQAD
ggIBAB/cIqTymMYzMMhnMzrHysX6f7o6eDUE/frWU1RbKCvjhdSOJDvQ+3SjqeMd
pig1qBiCQFvPzaYEwxIF4zIj0gVTBrKAEiwVX2hqWwtL7ZDdXE/hXnhSJzxuw9v2
i5yjGb9gLMO+AhtOISGAAjItCH3ClKFyUFR5N3tlEkYqVoDUt+qpLe9kYV0cqoxh
+RfRxpl8MRZfNmSL6+cZTisbKZANsCNOJMvMjxR3izQ4jnQwQQa4w9lee+N5vpnI
VFAnTVcE4aCGXNCfac7O0XxLSqBx3Nfb24hWBve1HkKw7xbU3vHQUW8s/vWVjohU
RuxzGmagGi3Cv36TzZyvf6RqX+jYzS3K7Jd7P/IQ85G8r3gm6Qdtr6bjlh022uvk
fL13jiowm6oENJC9j28zoX9SUOfOuW4L+v9vAUNYI0M1F06AFvIvqh3ZNILikjPq
HfMd+yqewtv/DiRWskX1OF1gMrEEDWa5+CWuEcB0C73x3ICLMRLjdpxnYsGAUq9R
d0aEW4FFV1Fkmt9iOW3ovdHdPVVqy1AGBQGTwI3RQRp+grUt9cccHN0E9HxmDn7m
JPstCnOU8LB0vvw20H/0dpZNZ9M2GTuOfeA8/6Kv7r078uMt71Vj3Slntb8xPkTK
A8rn/swE0U2To864LqmzTRvKeDbD29e/YAOBx1ehQQqv0cRv
-----END CERTIFICATE-----
