Certificate:
    Data:
        Version: 3 (0x2)
        Serial Number: 6416983154903975137 (0x590db42e45b784e1)
    Signature Algorithm: sha512WithRSAEncryption
        Issuer: C=CH, ST=Zug, L=Zug, O=Perfect Privacy, CN=Perfect Privacy/emailAddress=admin@perfect-privacy.com
        Validity
            Not Before: Feb 12 00:00:00 2023 GMT
            Not After : Oct  9 00:00:00 2024 GMT
        Subject: C=CH, ST=Zug, O=Perfect Privacy, CN=Client_chicago.perfect-privacy.com/emailAddress=admin@perfect-privacy.com
        Subject Public Key Info:
            Public Key Algorithm: rsaEncryption
                Public-Key: (4096 bit)
                Modulus:
                    00:a9:6c:18:84:62:4b:ed:ef:d7:60:6b:d0:ea:28:
                    08:db:70:ad:3b:00:b9:75:2d:46:6c:60:20:fc:f0:
                    e8:14:64:31:6f:68:ac:44:5f:24:9b:ac:51:67:6e:
                    09:11:ca:3f:d5:6f:98:95:ea:9b:2f:62:c0:46:43:
                    c5:82:d0:cb:bd:97:17:4d:02:2f:09:73:5a:04:a6:
                    0e:d4:a9:d2:df:bf:3e:9d:63:87:d7:d5:e7:2c:b6:
                    bd:97:42:43:34:be:b7:72:43:7b:6d:17:c6:4c:46:
                    99:4d:8c:e2:7b:08:96:a3:bc:ab:23:5e:c9:14:af:
                    17:a5:61:8b:0a:2f:89:6d:85:db:ca:c4:80:89:16:
                    ed:d3:70:18:bc:36:fa:24:6e:5a:70:d4:09:4b:19:
                    ea:c2:08:10:8c:2f:6a:5e:35:00:44:b5:2d:c7:bb:
                    91:09:bf:b3:a7:40:df:ff:c3:50:06:e5:ca:10:92:
                    80:d5:f8:36:90:42:a7:a0:ef:d4:69:02:ad:1d:c4:
                    97:df:57:e6:0e:5a:5b:ac:e7:57:f6:6d:6c:1e:0b:
                    82:32:bf:1b:7e:9d:4d:1f:de:dc:b0:80:14:32:6a:
                    65:36:c1:00:f4:54:46:88:99:b8:02:7f:7e:ed:f6:
                    47:7e:cf:6a:4a:12:2c:8c:bf:9c:f6:e2:94:d4:fd:
                    e7:33:c8:a1:9e:a6:40:79:95:9a:b6:70:1a:94:ab:
                    ce:ce:11:21:b2:47:d1:e3:a2:6f:a3:85:36:c6:5b:
                    2c:61:70:e0:80:44:56:8f:6e:f9:88:c8:c6:ca:ed:
                    49:99:4d:a6:0a:5c:14:64:58:4e:99:e5:b5:97:67:
                    b2:1e:9d:a4:9c:e1:84:ab:c5:35:11:36:0b:54:50:
                    36:09:e5:be:7e:6c:69:c6:de:2f:2a:0a:a6:91:68:
                    b6:ec:32:9c:e3:fb:b0:90:05:f3:10:a9:f7:2b:df:
                    4e:fc:16:3d:bb:52:e0:62:4b:d4:e0:28:b1:29:41:
                    5a:b7:3e:a6:b5:1b:e7:41:9e:a0:62:04:cd:04:1f:
                    46:7d:da:18:ca:31:f2:01:ee:8e:8c:2b:9b:a0:c4:
                    e3:8d:12:1d:5c:2b:c2:1e:33:a7:86:49:c0:76:18:
                    95:1a:5e:86:c5:9a:24:06:1b:c7:03:0a:dd:64:c5:
                    b6:c4:b8:3d:3e:57:66:50:01:88:e6:99:86:4d:55:
                    2b:68:2d:8c:86:c4:98:c4:3c:11:7e:f7:cc:6b:0e:
                    cf:46:1c:16:fb:cb:c7:e7:cb:d4:1c:fc:f8:39:05:
                    b3:da:cb:36:8b:89:b9:24:81:b7:a1:b7:40:cc:69:
                    94:dd:f1:bf:44:6c:d4:4e:05:7b:e7:a4:e5:46:18:
                    07:eb:95
                Exponent: 65537 (0x10001)
        X509v3 extensions:
            X509v3 Basic Constraints: 
                CA:FALSE
            Netscape Comment: 
                VPN User Certificate
            Netscape Cert Type: 
                SSL Client
            X509v3 Key Usage: 
                Digital Signature
            X509v3 Extended Key Usage: 
                TLS Web Client Authentication
            X509v3 Subject Key Identifier: 
                0D:73:14:3E:B2:8B:C2:CA:28:AB:B4:3A:28:FD:1D:D6:E1:04:B6:7F
            X509v3 Authority Key Identifier: 
                keyid:86:4F:B8:6D:18:2A:1B:3C:8F:27:34:29:F0:81:9F:BA:6E:61:0E:E1
                DirName:/C=CH/ST=Zug/L=Zug/O=Perfect Privacy/CN=Perfect Privacy/emailAddress=admin@perfect-privacy.com
                serial:FA:11:B5:C4:AA:69:AF:69

    Signature Algorithm: sha512WithRSAEncryption
         7a:d2:2b:63:57:a1:7c:94:a8:35:96:bc:85:c5:7e:3e:02:94:
         86:7f:a9:19:ac:9b:7f:23:96:c9:aa:e7:4c:ba:75:05:e1:eb:
         a3:ba:ed:9b:05:0b:b4:6e:ff:83:b7:d1:75:b1:bd:32:23:a5:
         cf:c7:a6:fb:94:73:46:46:a4:f7:a9:6e:fa:d0:49:9a:da:20:
         71:3a:29:b4:ff:c4:0e:dd:fe:49:19:c1:49:af:10:65:39:92:
         1a:46:46:9a:7b:db:9a:36:23:2a:b6:ad:23:8c:c4:55:c2:0b:
         b1:18:d7:35:af:63:f9:77:60:fe:1b:5b:aa:eb:a5:3d:0f:e1:
         ab:6c:05:f0:82:2b:e9:5e:06:ee:45:83:8c:54:9c:84:eb:b3:
         76:25:8f:79:de:8b:7b:d7:3f:17:48:13:e3:07:0b:5a:b2:a4:
         6d:12:84:b3:03:c2:43:11:d2:2b:34:13:2c:99:1e:12:1a:4d:
         ea:d9:d7:12:e0:bb:a0:4d:e1:e6:14:42:d9:05:11:8f:2f:61:
         ea:a6:b7:03:aa:28:e7:ac:c7:39:0a:aa:0c:f2:1c:71:f4:a9:
         9d:16:94:64:0d:4a:f7:eb:c8:54:a9:aa:a7:10:f4:ab:16:60:
         7a:7b:91:4d:f3:ee:3f:8f:b7:d9:53:be:14:28:bc:e3:87:a8:
         b1:10:67:c9:aa:78:24:4a:c4:c1:9f:14:01:e9:3d:04:d7:ea:
         2b:a2:48:d2:b7:13:db:b7:a5:f3:32:bb:0a:3e:f8:8f:30:96:
         63:05:c4:f5:d8:34:08:04:48:e0:74:62:6f:71:8e:06:03:78:
         72:53:91:4b:1b:b5:86:18:b9:88:a9:87:6f:29:42:d8:2a:53:
         16:39:75:d8:a1:2b:38:af:c4:b3:a1:22:af:e7:e7:e2:c2:a3:
         94:cf:1b:eb:ea:5d:38:c8:01:55:0c:15:77:44:fd:d8:44:31:
         6f:ff:78:c4:dc:14:87:02:09:25:d4:eb:9b:1a:7c:83:26:3e:
         72:58:ae:a2:19:a3:a3:8a:39:6b:03:67:31:4d:1a:9a:ac:dd:
         7a:da:0f:71:9a:9b:ff:0d:fd:f0:08:6e:6c:ed:c4:ba:46:0d:
         17:dc:31:46:c0:e2:8e:ee:8e:0c:a5:00:d8:a3:65:0a:10:8e:
         ad:77:57:4e:46:c3:d3:60:7c:13:21:f6:76:10:dd:b4:e6:27:
         24:d2:1d:a3:e4:c3:68:58:59:96:ec:dc:9a:9c:ab:78:bf:76:
         84:d8:80:29:c5:d2:4c:64:4b:6c:62:3f:ba:87:6d:99:3d:f9:
         9b:d0:63:03:38:c3:bc:c8:4c:dd:d0:06:7b:fa:d9:ef:0e:d5:
         15:59:3b:83:f8:33:c2:1a
-----BEGIN CERTIFICATE-----
MIIG4DCCBMigAwIBAgIIWQ20LkW3hOEwDQYJKoZIhvcNAQENBQAwgYcxCzAJBgNV
BAYTAkNIMQwwCgYDVQQIEwNadWcxDDAKBgNVBAcTA1p1ZzEYMBYGA1UEChMPUGVy
ZmVjdCBQcml2YWN5MRgwFgYDVQQDEw9QZXJmZWN0IFByaXZhY3kxKDAmBgkqhkiG
9w0BCQEWGWFkbWluQHBlcmZlY3QtcHJpdmFjeS5jb20wHhcNMjMwMjEyMDAwMDAw
WhcNMjQxMDA5MDAwMDAwWjCBjDELMAkGA1UEBhMCQ0gxDDAKBgNVBAgTA1p1ZzEY
MBYGA1UEChMPUGVyZmVjdCBQcml2YWN5MSswKQYDVQQDFCJDbGllbnRfY2hpY2Fn
by5wZXJmZWN0LXByaXZhY3kuY29tMSgwJgYJKoZIhvcNAQkBFhlhZG1pbkBwZXJm
ZWN0LXByaXZhY3kuY29tMIICIjANBgkqhkiG9w0BAQEFAAOCAg8AMIICCgKCAgEA
qWwYhGJL7e/XYGvQ6igI23CtOwC5dS1GbGAg/PDoFGQxb2isRF8km6xRZ24JEco/
1W+YleqbL2LARkPFgtDLvZcXTQIvCXNaBKYO1KnS378+nWOH19XnLLa9l0JDNL63
ckN7bRfGTEaZTYziewiWo7yrI17JFK8XpWGLCi+JbYXbysSAiRbt03AYvDb6JG5a
cNQJSxnqwggQjC9qXjUARLUtx7uRCb+zp0Df/8NQBuXKEJKA1fg2kEKnoO/UaQKt
HcSX31fmDlpbrOdX9m1sHguCMr8bfp1NH97csIAUMmplNsEA9FRGiJm4An9+7fZH
fs9qShIsjL+c9uKU1P3nM8ihnqZAeZWatnAalKvOzhEhskfR46Jvo4U2xlssYXDg
gERWj275iMjGyu1JmU2mClwUZFhOmeW1l2eyHp2knOGEq8U1ETYLVFA2CeW+fmxp
xt4vKgqmkWi27DKc4/uwkAXzEKn3K99O/BY9u1LgYkvU4CixKUFatz6mtRvnQZ6g
YgTNBB9GfdoYyjHyAe6OjCuboMTjjRIdXCvCHjOnhknAdhiVGl6GxZokBhvHAwrd
ZMW2xLg9PldmUAGI5pmGTVUraC2MhsSYxDwRfvfMaw7PRhwW+8vH58vUHPz4OQWz
2ss2i4m5JIG3obdAzGmU3fG/RGzUTgV756TlRhgH65UCAwEAAaOCAUcwggFDMAkG
A1UdEwQCMAAwIwYJYIZIAYb4QgENBBYWFFZQTiBVc2VyIENlcnRpZmljYXRlMBEG
CWCGSAGG+EIBAQQEAwIHgDALBgNVHQ8EBAMCB4AwEwYDVR0lBAwwCgYIKwYBBQUH
AwIwHQYDVR0OBBYEFA1zFD6yi8LKKKu0Oij9HdbhBLZ/MIG8BgNVHSMEgbQwgbGA
FIZPuG0YKhs8jyc0KfCBn7puYQ7hoYGNpIGKMIGHMQswCQYDVQQGEwJDSDEMMAoG
A1UECBMDWnVnMQwwCgYDVQQHEwNadWcxGDAWBgNVBAoTD1BlcmZlY3QgUHJpdmFj
eTEYMBYGA1UEAxMPUGVyZmVjdCBQcml2YWN5MSgwJgYJKoZIhvcNAQkBFhlhZG1p
bkBwZXJmZWN0LXByaXZhY3kuY29tggkA+hG1xKppr2kwDQYJKoZIhvcNAQENBQAD
ggIBAHrSK2NXoXyUqDWWvIXFfj4ClIZ/qRmsm38jlsmq50y6dQXh66O67ZsFC7Ru
/4O30XWxvTIjpc/HpvuUc0ZGpPepbvrQSZraIHE6KbT/xA7d/kkZwUmvEGU5khpG
Rpp725o2Iyq2rSOMxFXCC7EY1zWvY/l3YP4bW6rrpT0P4atsBfCCK+leBu5Fg4xU
nITrs3Ylj3nei3vXPxdIE+MHC1qypG0ShLMDwkMR0is0EyyZHhIaTerZ1xLgu6BN
4eYUQtkFEY8vYeqmtwOqKOesxzkKqgzyHHH0qZ0WlGQNSvfryFSpqqcQ9KsWYHp7
kU3z7j+Pt9lTvhQovOOHqLEQZ8mqeCRKxMGfFAHpPQTX6iuiSNK3E9u3pfMyuwo+
+I8wlmMFxPXYNAgESOB0Ym9xjgYDeHJTkUsbtYYYuYiph28pQtgqUxY5ddihKziv
xLOhIq/n5+LCo5TPG+vqXTjIAVUMFXdE/dhEMW//eMTcFIcCCSXU65safIMmPnJY
rqIZo6OKOWsDZzFNGpqs3XraD3Gam/8N/fAIbmztxLpGDRfcMUbA4o7ujgylANij
ZQoQjq13V05Gw9NgfBMh9nYQ3bTmJyTSHaPkw2hYWZbs3Jqcq3i/doTYgCnF0kxk
S2xiP7qHbZk9+ZvQYwM4w7zITN3QBnv62e8O1RVZO4P4M8Ia
-----END CERTIFICATE-----
