Certificate:
    Data:
        Version: 3 (0x2)
        Serial Number:
            ba:db:5d:4e:fe:68:8d:9b
    Signature Algorithm: sha512WithRSAEncryption
        Issuer: C=CH, ST=Zug, L=Zug, O=Perfect Privacy, CN=Perfect Privacy/emailAddress=admin@perfect-privacy.com
        Validity
            Not Before: Mar 13 00:00:00 2023 GMT
            Not After : Nov  7 00:00:00 2024 GMT
        Subject: C=CH, ST=Zug, O=Perfect Privacy, CN=Client_copenhagen.perfect-privacy.com/emailAddress=admin@perfect-privacy.com
        Subject Public Key Info:
            Public Key Algorithm: rsaEncryption
                Public-Key: (4096 bit)
                Modulus:
                    00:ec:d1:25:d2:60:63:5d:59:7f:33:38:bf:2e:19:
                    09:93:ec:2d:da:0d:c0:1a:5d:3d:cf:34:18:51:da:
                    70:92:da:16:0a:99:a9:5b:48:21:c0:9f:b5:a7:3b:
                    dd:70:29:bc:bd:b1:9d:c6:82:a3:d5:5b:50:df:f8:
                    b1:a0:a5:05:c6:75:43:c7:78:42:37:99:16:71:c2:
                    df:2b:8f:cc:81:6e:c7:bd:b2:ab:a6:54:9b:66:b9:
                    41:0d:dc:ad:f7:dc:e5:f5:1e:ba:bb:c4:76:73:11:
                    e2:60:ce:25:d5:15:a8:55:81:e6:9f:e6:4e:50:8b:
                    10:51:42:86:2d:23:aa:b4:41:26:ac:2a:50:fe:a4:
                    a9:59:b9:a8:9c:21:7a:f6:6e:ce:85:2c:91:a7:9c:
                    99:d5:ed:87:09:ae:18:bf:8d:e9:f1:02:b6:51:b3:
                    e8:08:12:2e:40:19:f6:c0:41:8e:0d:e8:db:c8:a5:
                    21:ee:40:bd:56:21:b5:9b:82:79:5f:c0:87:a1:80:
                    65:70:77:4a:8f:42:e7:29:5c:1e:6c:39:b5:66:03:
                    00:83:be:53:95:c4:03:08:46:1c:ae:bb:11:cd:0e:
                    d1:e8:a8:0a:5a:ca:d9:ba:b2:40:6d:f2:d9:b9:fe:
                    f1:18:23:7d:87:82:d0:a3:b4:88:db:5c:54:23:de:
                    bc:4a:68:57:3a:08:b7:47:f8:9d:bb:96:c8:84:28:
                    fe:15:00:c4:b2:c0:f1:e4:43:a4:70:48:3b:20:09:
                    91:80:f5:2e:d9:ce:ab:14:03:e7:64:3f:59:4b:6d:
                    07:0b:f2:b9:20:37:ca:89:01:19:d8:23:19:de:56:
                    0a:b2:c5:66:9b:da:cd:bc:bf:94:36:e1:22:78:01:
                    12:00:26:a5:97:af:f1:e8:9d:2b:25:47:68:a6:69:
                    d8:a9:e9:c2:00:bb:6f:6f:41:58:63:2a:28:9a:41:
                    71:b3:a3:59:28:8a:5d:a2:01:70:2f:13:ee:e1:11:
                    6d:ce:70:1c:43:8d:d0:8d:45:f7:35:85:65:ea:1c:
                    fc:ae:42:30:1c:f0:f4:4d:79:7e:96:3e:27:a1:87:
                    cc:45:63:c9:e4:e6:b4:ec:48:65:f0:59:81:a9:5d:
                    d3:85:82:c4:62:30:a1:9e:cd:f0:7f:e8:b8:62:d9:
                    89:14:6b:6b:62:b5:83:5b:48:95:72:74:37:2f:d8:
                    f0:1b:3e:a0:6a:e9:9f:13:0a:12:94:f9:ed:dc:0d:
                    bc:8c:10:94:e3:34:43:aa:e6:71:80:7b:f1:d3:36:
                    0d:1d:82:01:86:24:87:89:47:2f:de:59:35:92:0d:
                    7b:ad:a8:b6:8a:94:06:5c:78:e6:04:45:a7:71:06:
                    89:88:71
                Exponent: 65537 (0x10001)
        X509v3 extensions:
            X509v3 Basic Constraints: 
                CA:FALSE
            Netscape Comment: 
                VPN User Certificate
            Netscape Cert Type: 
                SSL Client
            X509v3 Key Usage: 
                Digital Signature
            X509v3 Extended Key Usage: 
                TLS Web Client Authentication
            X509v3 Subject Key Identifier: 
                1D:C3:A3:83:F0:5A:57:FD:85:B1:AE:6B:D6:C7:6C:42:64:AE:0A:48
            X509v3 Authority Key Identifier: 
                keyid:86:4F:B8:6D:18:2A:1B:3C:8F:27:34:29:F0:81:9F:BA:6E:61:0E:E1
                DirName:/C=CH/ST=Zug/L=Zug/O=Perfect Privacy/CN=Perfect Privacy/emailAddress=admin@perfect-privacy.com
                serial:FA:11:B5:C4:AA:69:AF:69

    Signature Algorithm: sha512WithRSAEncryption
         05:69:e7:e9:28:59:d2:18:be:6c:ec:28:de:f1:85:1b:62:89:
         27:65:63:7b:bd:e2:37:8b:b7:f9:15:13:ac:ec:81:1a:69:ae:
         ea:66:b2:ac:1b:67:a0:8a:0a:e3:cc:8a:c1:f1:0a:9b:26:ed:
         df:3f:53:3f:da:7a:d3:99:9d:fe:67:d4:c6:c5:7a:37:4b:a4:
         6b:3c:08:e9:dd:f3:c8:c1:30:59:5a:8c:ca:dd:b4:21:69:69:
         35:64:95:0a:c5:91:b4:8f:c5:6f:c0:22:08:f4:52:f4:4e:ee:
         ae:af:dd:c6:98:2a:87:ad:c9:64:30:b7:72:e5:31:15:30:7e:
         24:37:54:dc:26:c3:1a:84:b4:6f:63:e8:3b:56:0a:f0:ea:6a:
         45:87:29:f7:59:d5:96:e1:f5:90:89:f9:a3:ba:81:9b:ee:87:
         b3:1f:ee:1c:e2:72:43:3c:21:91:dc:9a:c8:ce:25:c9:55:ce:
         01:68:6a:68:78:e5:a3:8e:7d:ca:39:90:61:9f:f6:fa:62:5d:
         b5:14:3b:48:5c:ed:c7:e7:88:9b:33:1a:e1:d0:9f:95:36:d2:
         3f:73:54:53:44:2a:cd:67:4e:ee:21:c3:9d:0a:35:49:7b:ad:
         f9:a3:e6:7c:66:a7:93:67:10:4d:eb:19:df:37:53:6a:35:bc:
         eb:ff:fd:1c:80:5c:e8:d7:29:92:d4:27:92:df:c4:a1:e9:35:
         a2:7a:07:1e:c0:99:ba:05:1e:ea:89:1b:df:2e:68:ef:11:ea:
         6c:2e:ad:5d:ec:43:fe:c6:6b:71:b4:4a:d2:11:9d:1d:06:c0:
         8d:57:b0:0c:d5:9c:80:e6:cb:1b:67:86:e3:81:86:2e:81:2e:
         26:67:eb:c6:80:95:b2:33:b0:28:3c:b6:3d:94:21:b1:fb:de:
         82:7f:9a:35:65:1e:62:a7:86:75:f0:22:4f:c0:b4:f3:f0:69:
         00:d3:41:17:02:c0:a3:3a:8d:af:3f:2e:23:22:a0:ae:92:31:
         ea:57:dd:5d:a8:19:78:f9:0d:4d:34:2d:27:55:70:63:c6:a1:
         0e:fb:45:3f:d6:15:b3:c5:f7:72:07:c6:38:a4:be:30:93:dd:
         16:a7:75:bb:dd:b3:12:2a:27:aa:6a:e7:29:d5:1a:f3:b0:11:
         f4:18:c4:1e:b7:87:8a:ed:85:14:84:eb:03:37:8d:af:53:cc:
         44:1a:2b:24:3c:3e:f8:1f:98:96:f6:7a:67:13:08:a6:7e:84:
         b7:e0:19:bb:7f:56:70:96:43:a2:1b:e1:30:ed:ad:3f:c2:4a:
         90:8e:bd:0a:ea:27:95:5b:15:bb:a7:23:c6:54:d8:a9:4b:3b:
         40:f3:2e:1a:50:bb:c4:8e
-----BEGIN CERTIFICATE-----
MIIG5DCCBMygAwIBAgIJALrbXU7+aI2bMA0GCSqGSIb3DQEBDQUAMIGHMQswCQYD
VQQGEwJDSDEMMAoGA1UECBMDWnVnMQwwCgYDVQQHEwNadWcxGDAWBgNVBAoTD1Bl
cmZlY3QgUHJpdmFjeTEYMBYGA1UEAxMPUGVyZmVjdCBQcml2YWN5MSgwJgYJKoZI
hvcNAQkBFhlhZG1pbkBwZXJmZWN0LXByaXZhY3kuY29tMB4XDTIzMDMxMzAwMDAw
MFoXDTI0MTEwNzAwMDAwMFowgY8xCzAJBgNVBAYTAkNIMQwwCgYDVQQIEwNadWcx
GDAWBgNVBAoTD1BlcmZlY3QgUHJpdmFjeTEuMCwGA1UEAxQlQ2xpZW50X2NvcGVu
aGFnZW4ucGVyZmVjdC1wcml2YWN5LmNvbTEoMCYGCSqGSIb3DQEJARYZYWRtaW5A
cGVyZmVjdC1wcml2YWN5LmNvbTCCAiIwDQYJKoZIhvcNAQEBBQADggIPADCCAgoC
ggIBAOzRJdJgY11ZfzM4vy4ZCZPsLdoNwBpdPc80GFHacJLaFgqZqVtIIcCftac7
3XApvL2xncaCo9VbUN/4saClBcZ1Q8d4QjeZFnHC3yuPzIFux72yq6ZUm2a5QQ3c
rffc5fUeurvEdnMR4mDOJdUVqFWB5p/mTlCLEFFChi0jqrRBJqwqUP6kqVm5qJwh
evZuzoUskaecmdXthwmuGL+N6fECtlGz6AgSLkAZ9sBBjg3o28ilIe5AvVYhtZuC
eV/Ah6GAZXB3So9C5ylcHmw5tWYDAIO+U5XEAwhGHK67Ec0O0eioClrK2bqyQG3y
2bn+8RgjfYeC0KO0iNtcVCPevEpoVzoIt0f4nbuWyIQo/hUAxLLA8eRDpHBIOyAJ
kYD1LtnOqxQD52Q/WUttBwvyuSA3yokBGdgjGd5WCrLFZpvazby/lDbhIngBEgAm
pZev8eidKyVHaKZp2KnpwgC7b29BWGMqKJpBcbOjWSiKXaIBcC8T7uERbc5wHEON
0I1F9zWFZeoc/K5CMBzw9E15fpY+J6GHzEVjyeTmtOxIZfBZgald04WCxGIwoZ7N
8H/ouGLZiRRra2K1g1tIlXJ0Ny/Y8Bs+oGrpnxMKEpT57dwNvIwQlOM0Q6rmcYB7
8dM2DR2CAYYkh4lHL95ZNZINe62otoqUBlx45gRFp3EGiYhxAgMBAAGjggFHMIIB
QzAJBgNVHRMEAjAAMCMGCWCGSAGG+EIBDQQWFhRWUE4gVXNlciBDZXJ0aWZpY2F0
ZTARBglghkgBhvhCAQEEBAMCB4AwCwYDVR0PBAQDAgeAMBMGA1UdJQQMMAoGCCsG
AQUFBwMCMB0GA1UdDgQWBBQdw6OD8FpX/YWxrmvWx2xCZK4KSDCBvAYDVR0jBIG0
MIGxgBSGT7htGCobPI8nNCnwgZ+6bmEO4aGBjaSBijCBhzELMAkGA1UEBhMCQ0gx
DDAKBgNVBAgTA1p1ZzEMMAoGA1UEBxMDWnVnMRgwFgYDVQQKEw9QZXJmZWN0IFBy
aXZhY3kxGDAWBgNVBAMTD1BlcmZlY3QgUHJpdmFjeTEoMCYGCSqGSIb3DQEJARYZ
YWRtaW5AcGVyZmVjdC1wcml2YWN5LmNvbYIJAPoRtcSqaa9pMA0GCSqGSIb3DQEB
DQUAA4ICAQAFaefpKFnSGL5s7Cje8YUbYoknZWN7veI3i7f5FROs7IEaaa7qZrKs
G2egigrjzIrB8QqbJu3fP1M/2nrTmZ3+Z9TGxXo3S6RrPAjp3fPIwTBZWozK3bQh
aWk1ZJUKxZG0j8VvwCII9FL0Tu6ur93GmCqHrclkMLdy5TEVMH4kN1TcJsMahLRv
Y+g7Vgrw6mpFhyn3WdWW4fWQifmjuoGb7oezH+4c4nJDPCGR3JrIziXJVc4BaGpo
eOWjjn3KOZBhn/b6Yl21FDtIXO3H54ibMxrh0J+VNtI/c1RTRCrNZ07uIcOdCjVJ
e635o+Z8ZqeTZxBN6xnfN1NqNbzr//0cgFzo1ymS1CeS38Sh6TWiegcewJm6BR7q
iRvfLmjvEepsLq1d7EP+xmtxtErSEZ0dBsCNV7AM1ZyA5ssbZ4bjgYYugS4mZ+vG
gJWyM7AoPLY9lCGx+96Cf5o1ZR5ip4Z18CJPwLTz8GkA00EXAsCjOo2vPy4jIqCu
kjHqV91dqBl4+Q1NNC0nVXBjxqEO+0U/1hWzxfdyB8Y4pL4wk90Wp3W73bMSKieq
aucp1RrzsBH0GMQet4eK7YUUhOsDN42vU8xEGiskPD74H5iW9npnEwimfoS34Bm7
f1ZwlkOiG+Ew7a0/wkqQjr0K6ieVWxW7pyPGVNipSztA8y4aULvEjg==
-----END CERTIFICATE-----
