Certificate:
    Data:
        Version: 3 (0x2)
        Serial Number: 4547139508952454510 (0x3f1aaf4aa741556e)
    Signature Algorithm: sha512WithRSAEncryption
        Issuer: C=CH, ST=Zug, L=Zug, O=Perfect Privacy, CN=Perfect Privacy/emailAddress=admin@perfect-privacy.com
        Validity
            Not Before: Jul 23 00:00:00 2023 GMT
            Not After : Mar 19 00:00:00 2025 GMT
        Subject: C=CH, ST=Zug, O=Perfect Privacy, CN=Client_copenhagen.perfect-privacy.com/emailAddress=admin@perfect-privacy.com
        Subject Public Key Info:
            Public Key Algorithm: rsaEncryption
                Public-Key: (4096 bit)
                Modulus:
                    00:b8:18:56:84:ff:b8:75:21:86:39:09:37:99:2b:
                    dd:de:6f:5b:4b:54:9b:d1:08:62:85:0b:ca:95:9c:
                    de:db:ab:c9:86:30:46:93:e9:11:76:35:ff:eb:02:
                    d5:fe:b9:df:1e:0d:b6:f7:0a:37:2a:99:6c:57:24:
                    00:cb:b5:21:49:14:c8:cd:10:0e:57:4e:73:81:81:
                    81:98:ec:26:eb:56:5d:1d:bd:47:bf:1e:6e:93:2e:
                    0e:30:e0:dd:87:e1:93:17:01:2a:18:a1:27:da:5e:
                    e7:98:70:be:0c:f4:61:14:dd:25:26:0d:b8:73:dd:
                    8c:71:27:5c:cd:68:8b:10:43:ca:76:10:50:50:8c:
                    ef:7c:25:52:88:34:d3:f9:98:a0:0d:eb:44:4b:25:
                    20:65:1f:ec:13:f7:58:9e:93:c3:ae:38:65:b7:75:
                    35:12:0d:b0:b6:72:47:62:f3:7f:32:7d:82:ff:b2:
                    ea:b0:1c:c9:a6:06:63:0a:6b:58:66:e7:5f:60:18:
                    35:88:ab:99:6b:4f:ac:3c:be:e7:55:cf:58:ad:e7:
                    21:dd:b7:87:68:4b:96:74:a2:08:30:54:f4:67:8d:
                    f9:fb:07:61:e4:d4:38:57:cd:c9:30:b6:70:ca:a9:
                    32:71:fd:9c:12:5b:69:9d:fa:b9:a9:ae:85:7f:69:
                    f6:77:11:3e:ce:0f:2e:f9:73:35:fc:08:a7:24:85:
                    ca:9b:ef:3c:d1:46:e9:94:e6:2a:9f:da:c4:8b:8a:
                    c4:4f:87:1e:4c:50:9f:fc:67:77:68:6c:b8:ec:d3:
                    ff:e5:1e:b1:6d:88:79:4a:d2:b6:81:f6:b7:27:f4:
                    f2:da:8b:9c:35:48:9a:2a:89:f0:8a:2d:53:6e:23:
                    15:90:11:a8:de:c8:58:9a:39:57:d4:34:7c:5b:74:
                    ed:21:b4:2c:f6:e7:cc:b9:49:93:1a:6d:c4:95:53:
                    76:1a:db:f8:a9:a5:cc:2b:25:8a:d0:18:2a:26:3c:
                    2c:21:70:bd:a4:ef:07:d3:1a:ea:a4:81:2d:9d:2a:
                    36:2e:7d:b5:ba:63:6b:e3:f3:92:8f:d3:e0:b0:e8:
                    f6:40:4d:a8:f7:a2:bc:9e:ee:8d:2a:1f:ac:2a:93:
                    b3:a5:e6:73:0e:a9:ff:32:99:5b:26:56:9e:d3:3a:
                    26:5e:35:d7:06:0d:c1:d4:bd:82:b6:ed:e5:09:ca:
                    2c:b5:1b:e5:1d:27:a8:4d:02:3b:0a:2c:de:e7:2c:
                    91:ca:b7:f2:2f:8e:15:42:c3:a1:45:05:83:6b:99:
                    a8:d6:25:21:28:42:00:0f:d1:5b:bd:03:55:f0:77:
                    7c:1e:ce:14:9c:32:52:ae:8d:f7:41:94:4c:7f:ae:
                    0b:50:2b
                Exponent: 65537 (0x10001)
        X509v3 extensions:
            X509v3 Basic Constraints: 
                CA:FALSE
            Netscape Comment: 
                VPN User Certificate
            Netscape Cert Type: 
                SSL Client
            X509v3 Key Usage: 
                Digital Signature
            X509v3 Extended Key Usage: 
                TLS Web Client Authentication
            X509v3 Subject Key Identifier: 
                68:D6:80:41:91:8E:4F:CB:67:CE:B8:1C:A8:4A:D9:23:16:B1:5F:42
            X509v3 Authority Key Identifier: 
                keyid:86:4F:B8:6D:18:2A:1B:3C:8F:27:34:29:F0:81:9F:BA:6E:61:0E:E1
                DirName:/C=CH/ST=Zug/L=Zug/O=Perfect Privacy/CN=Perfect Privacy/emailAddress=admin@perfect-privacy.com
                serial:FA:11:B5:C4:AA:69:AF:69

    Signature Algorithm: sha512WithRSAEncryption
         7e:fb:d2:da:49:a6:da:7c:b5:19:2a:8b:62:c9:7f:f8:18:bb:
         f5:1f:0a:c0:c8:eb:5f:e3:35:6c:dc:55:49:61:d4:f5:19:c3:
         c6:b3:91:e4:66:b2:c1:5c:b0:a7:93:a8:c7:ca:dd:78:b7:21:
         94:b2:99:21:5d:47:00:8a:93:97:0d:1a:87:1d:db:25:30:4d:
         8e:8c:8c:ec:b9:48:8a:57:36:4b:1b:6c:80:fa:27:e3:55:ec:
         c3:c0:f4:8a:0b:6d:07:2e:47:72:d5:f7:26:7f:07:f0:c7:d1:
         18:e0:fc:c2:f1:74:8d:4f:e6:1d:38:67:7a:5f:22:57:99:c5:
         ed:3d:a7:9b:3d:db:88:82:21:93:d1:74:18:b2:13:11:4b:92:
         e9:49:88:78:54:c6:4a:52:0a:31:62:82:f5:dc:cc:ed:5f:2c:
         a7:4d:72:cf:54:5e:f6:a7:df:04:cf:40:64:1e:78:5e:48:49:
         ac:5a:d0:57:95:5c:bf:fe:8f:e3:91:ca:a0:dc:d4:7b:70:8b:
         c1:c3:7f:99:68:2f:52:4b:8b:ff:d5:4a:f6:10:a9:ba:c0:3b:
         87:df:49:91:f2:65:e4:03:5d:03:db:4b:cb:55:36:a3:c0:d9:
         87:72:6c:18:ad:bc:2b:2f:a1:d9:16:9b:3c:77:9f:9a:f2:2b:
         bd:c6:1d:d7:4e:04:02:96:0c:9e:67:5f:78:f7:34:db:9a:fb:
         62:58:1a:5b:4e:e8:00:d4:09:74:f0:b4:65:ed:4a:6f:2d:f1:
         03:8b:ac:b9:9f:1b:89:b3:4b:0f:b9:1a:fd:0c:b1:e6:b7:67:
         13:0b:bc:55:94:3a:16:8e:c3:20:e3:d9:42:b1:f8:8e:27:35:
         3a:60:14:a7:ca:96:3f:b8:46:d5:0d:02:81:3f:71:a7:40:9c:
         af:02:73:aa:06:df:f7:c4:aa:d5:a2:0a:ef:84:b5:28:1b:ac:
         a4:2c:e0:23:ff:97:5e:61:da:87:57:17:e0:5d:98:73:2c:3e:
         a9:5e:0e:aa:6c:79:67:8b:83:42:39:e1:e7:1b:c3:43:85:12:
         d2:e3:ad:15:f9:ef:26:1a:bc:f4:1f:6c:88:f1:5e:64:cc:08:
         b8:7d:fd:a2:af:7e:b5:83:04:b6:28:f3:0b:1f:f9:eb:61:13:
         52:e1:da:d4:1c:2f:1f:63:97:62:d5:b2:1a:1c:90:94:ae:f5:
         9f:28:08:81:9f:b7:4c:0d:4f:46:55:87:f8:b9:b7:ec:83:99:
         70:34:88:f4:3b:92:7d:d1:ca:12:4c:7b:2f:e0:c4:53:6d:97:
         33:96:4d:49:2b:1c:db:06:15:f5:ef:b6:2c:43:94:f1:06:88:
         55:e8:4d:cd:34:56:b3:42
-----BEGIN CERTIFICATE-----
MIIG4zCCBMugAwIBAgIIPxqvSqdBVW4wDQYJKoZIhvcNAQENBQAwgYcxCzAJBgNV
BAYTAkNIMQwwCgYDVQQIEwNadWcxDDAKBgNVBAcTA1p1ZzEYMBYGA1UEChMPUGVy
ZmVjdCBQcml2YWN5MRgwFgYDVQQDEw9QZXJmZWN0IFByaXZhY3kxKDAmBgkqhkiG
9w0BCQEWGWFkbWluQHBlcmZlY3QtcHJpdmFjeS5jb20wHhcNMjMwNzIzMDAwMDAw
WhcNMjUwMzE5MDAwMDAwWjCBjzELMAkGA1UEBhMCQ0gxDDAKBgNVBAgTA1p1ZzEY
MBYGA1UEChMPUGVyZmVjdCBQcml2YWN5MS4wLAYDVQQDFCVDbGllbnRfY29wZW5o
YWdlbi5wZXJmZWN0LXByaXZhY3kuY29tMSgwJgYJKoZIhvcNAQkBFhlhZG1pbkBw
ZXJmZWN0LXByaXZhY3kuY29tMIICIjANBgkqhkiG9w0BAQEFAAOCAg8AMIICCgKC
AgEAuBhWhP+4dSGGOQk3mSvd3m9bS1Sb0QhihQvKlZze26vJhjBGk+kRdjX/6wLV
/rnfHg229wo3KplsVyQAy7UhSRTIzRAOV05zgYGBmOwm61ZdHb1Hvx5uky4OMODd
h+GTFwEqGKEn2l7nmHC+DPRhFN0lJg24c92McSdczWiLEEPKdhBQUIzvfCVSiDTT
+ZigDetESyUgZR/sE/dYnpPDrjhlt3U1Eg2wtnJHYvN/Mn2C/7LqsBzJpgZjCmtY
ZudfYBg1iKuZa0+sPL7nVc9Yrech3beHaEuWdKIIMFT0Z435+wdh5NQ4V83JMLZw
yqkycf2cEltpnfq5qa6Ff2n2dxE+zg8u+XM1/AinJIXKm+880UbplOYqn9rEi4rE
T4ceTFCf/Gd3aGy47NP/5R6xbYh5StK2gfa3J/Ty2oucNUiaKonwii1TbiMVkBGo
3shYmjlX1DR8W3TtIbQs9ufMuUmTGm3ElVN2Gtv4qaXMKyWK0BgqJjwsIXC9pO8H
0xrqpIEtnSo2Ln21umNr4/OSj9PgsOj2QE2o96K8nu6NKh+sKpOzpeZzDqn/Mplb
Jlae0zomXjXXBg3B1L2Ctu3lCcostRvlHSeoTQI7Cize5yyRyrfyL44VQsOhRQWD
a5mo1iUhKEIAD9FbvQNV8Hd8Hs4UnDJSro33QZRMf64LUCsCAwEAAaOCAUcwggFD
MAkGA1UdEwQCMAAwIwYJYIZIAYb4QgENBBYWFFZQTiBVc2VyIENlcnRpZmljYXRl
MBEGCWCGSAGG+EIBAQQEAwIHgDALBgNVHQ8EBAMCB4AwEwYDVR0lBAwwCgYIKwYB
BQUHAwIwHQYDVR0OBBYEFGjWgEGRjk/LZ864HKhK2SMWsV9CMIG8BgNVHSMEgbQw
gbGAFIZPuG0YKhs8jyc0KfCBn7puYQ7hoYGNpIGKMIGHMQswCQYDVQQGEwJDSDEM
MAoGA1UECBMDWnVnMQwwCgYDVQQHEwNadWcxGDAWBgNVBAoTD1BlcmZlY3QgUHJp
dmFjeTEYMBYGA1UEAxMPUGVyZmVjdCBQcml2YWN5MSgwJgYJKoZIhvcNAQkBFhlh
ZG1pbkBwZXJmZWN0LXByaXZhY3kuY29tggkA+hG1xKppr2kwDQYJKoZIhvcNAQEN
BQADggIBAH770tpJptp8tRkqi2LJf/gYu/UfCsDI61/jNWzcVUlh1PUZw8azkeRm
ssFcsKeTqMfK3Xi3IZSymSFdRwCKk5cNGocd2yUwTY6MjOy5SIpXNksbbID6J+NV
7MPA9IoLbQcuR3LV9yZ/B/DH0Rjg/MLxdI1P5h04Z3pfIleZxe09p5s924iCIZPR
dBiyExFLkulJiHhUxkpSCjFigvXczO1fLKdNcs9UXvan3wTPQGQeeF5ISaxa0FeV
XL/+j+ORyqDc1Htwi8HDf5loL1JLi//VSvYQqbrAO4ffSZHyZeQDXQPbS8tVNqPA
2YdybBitvCsvodkWmzx3n5ryK73GHddOBAKWDJ5nX3j3NNua+2JYGltO6ADUCXTw
tGXtSm8t8QOLrLmfG4mzSw+5Gv0Msea3ZxMLvFWUOhaOwyDj2UKx+I4nNTpgFKfK
lj+4RtUNAoE/cadAnK8Cc6oG3/fEqtWiCu+EtSgbrKQs4CP/l15h2odXF+BdmHMs
PqleDqpseWeLg0I54ecbw0OFEtLjrRX57yYavPQfbIjxXmTMCLh9/aKvfrWDBLYo
8wsf+ethE1Lh2tQcLx9jl2LVshockJSu9Z8oCIGft0wNT0ZVh/i5t+yDmXA0iPQ7
kn3RyhJMey/gxFNtlzOWTUkrHNsGFfXvtixDlPEGiFXoTc00VrNC
-----END CERTIFICATE-----
