Certificate:
    Data:
        Version: 3 (0x2)
        Serial Number: 7429843427961639195 (0x671c1b3b946c911b)
    Signature Algorithm: sha512WithRSAEncryption
        Issuer: C=CH, ST=Zug, L=Zug, O=Perfect Privacy, CN=Perfect Privacy/emailAddress=admin@perfect-privacy.com
        Validity
            Not Before: Jun  8 00:00:00 2023 GMT
            Not After : Feb  2 00:00:00 2025 GMT
        Subject: C=CH, ST=Zug, O=Perfect Privacy, CN=Client_chicago.perfect-privacy.com/emailAddress=admin@perfect-privacy.com
        Subject Public Key Info:
            Public Key Algorithm: rsaEncryption
                Public-Key: (4096 bit)
                Modulus:
                    00:b1:28:58:7c:b1:ed:7b:f5:a3:53:60:f2:47:f4:
                    b9:e9:86:5b:49:5b:f5:92:a0:d0:4f:ac:dc:94:a8:
                    fd:85:f2:8d:b6:64:18:fd:2d:05:ee:7f:14:82:25:
                    55:06:d8:cd:cd:e9:b2:45:0d:e7:a0:d7:0e:02:ad:
                    c3:e7:c2:33:04:73:ca:b7:9d:9f:a2:c7:18:e7:d3:
                    f4:9f:3f:d5:9a:3a:50:70:5c:19:31:c6:d5:3a:eb:
                    cc:3e:cf:97:d3:0b:62:48:2c:e3:4a:8b:32:30:2c:
                    3a:49:61:e3:9c:64:5b:63:1d:b1:ed:4d:25:a1:d5:
                    1d:e2:95:96:8d:6e:09:6c:a7:69:8d:94:c7:5b:27:
                    a5:ff:95:21:fe:c9:ae:57:64:53:40:26:9b:a6:cd:
                    42:e5:89:04:99:9e:7b:4a:31:b3:f0:15:75:e0:13:
                    cd:94:23:00:55:45:91:5a:ad:a2:06:54:eb:f0:90:
                    b7:20:75:13:1f:72:f9:5f:81:28:6d:7c:30:eb:4d:
                    bc:8c:4f:27:ed:a3:03:c3:58:fb:04:b0:db:98:5e:
                    bf:48:47:68:b9:1a:a0:9b:29:23:2b:52:3c:89:64:
                    0d:a3:41:59:11:14:c2:00:73:34:cd:93:ba:71:f4:
                    24:95:93:81:22:d3:94:7b:8c:7d:29:f9:5d:8d:54:
                    00:d2:a0:39:a0:b6:04:e7:ee:75:f0:28:7f:e7:b8:
                    dc:5d:68:f0:fd:b7:64:d6:db:af:97:10:42:ca:fc:
                    b4:96:1c:44:b5:fa:0c:3e:44:a1:19:7d:d9:f1:3e:
                    39:ee:73:0c:d5:f6:fd:5a:1e:31:95:71:0b:8b:05:
                    43:53:eb:24:1e:76:c9:0b:f8:e0:3d:94:c8:32:70:
                    e3:35:53:3d:4d:af:bc:7b:3d:95:15:a5:74:b5:28:
                    d6:b3:d9:81:c4:a3:2c:4a:3e:6a:5e:5a:97:88:e7:
                    b4:c8:e6:6d:52:29:8c:f1:64:ff:d2:5e:9f:4c:ba:
                    70:3f:6a:5d:f5:79:43:fa:4a:6e:a7:8c:2b:60:8f:
                    3e:13:f7:e5:4c:0c:94:e3:0d:7e:9d:e7:76:ac:1f:
                    5e:b4:b5:41:c8:f1:b6:83:4c:58:a2:1a:a1:2a:4d:
                    80:80:7a:e9:3c:30:b9:9e:76:c6:3b:3e:f5:97:50:
                    6c:a2:85:47:a4:be:bf:6f:79:2b:3a:70:fd:ae:a2:
                    3c:a2:d2:84:4c:8b:59:99:b3:d6:4b:b3:4d:6f:eb:
                    f5:97:a8:7e:2a:9d:71:27:f2:5e:ba:cf:dd:4e:ec:
                    89:f8:e9:30:bf:45:56:b4:46:56:b8:62:4e:9b:5d:
                    3e:c9:93:0d:1c:9c:24:d1:fd:ea:9d:d1:a3:8d:2a:
                    42:76:db
                Exponent: 65537 (0x10001)
        X509v3 extensions:
            X509v3 Basic Constraints: 
                CA:FALSE
            Netscape Comment: 
                VPN User Certificate
            Netscape Cert Type: 
                SSL Client
            X509v3 Key Usage: 
                Digital Signature
            X509v3 Extended Key Usage: 
                TLS Web Client Authentication
            X509v3 Subject Key Identifier: 
                36:9F:32:C6:A1:24:2B:C8:FB:EB:C3:85:F6:A5:7C:4D:9C:FC:D5:89
            X509v3 Authority Key Identifier: 
                keyid:86:4F:B8:6D:18:2A:1B:3C:8F:27:34:29:F0:81:9F:BA:6E:61:0E:E1
                DirName:/C=CH/ST=Zug/L=Zug/O=Perfect Privacy/CN=Perfect Privacy/emailAddress=admin@perfect-privacy.com
                serial:FA:11:B5:C4:AA:69:AF:69

    Signature Algorithm: sha512WithRSAEncryption
         2e:cd:58:1a:db:fd:36:03:62:bb:37:fd:3e:57:0f:ea:65:73:
         12:30:64:d1:81:21:18:05:6a:c2:14:07:a0:53:9b:a7:ed:7b:
         43:4b:87:1e:d4:4e:2f:56:89:b5:d7:06:8c:73:8c:a8:a1:66:
         8e:b6:c0:99:e6:4b:c9:59:ac:34:e9:1e:60:ec:b7:fc:ff:84:
         56:4e:97:45:8b:40:6a:e3:93:7e:e3:5c:ea:f3:40:77:bd:5d:
         99:ee:c9:5c:aa:46:1d:98:a3:53:41:51:ad:f7:4a:b2:b3:53:
         68:51:74:c0:26:d6:e2:4a:0f:61:e5:a8:28:ec:7a:aa:e1:53:
         89:fb:19:36:2f:6c:52:2d:6d:ad:22:f6:73:1d:9a:0a:ec:9c:
         ea:80:1d:9f:ad:8e:20:21:73:a6:6d:0d:5f:69:33:05:b1:9f:
         fe:bd:ea:71:d1:f5:82:bb:6c:3d:cb:07:71:9c:cf:98:09:48:
         de:0c:10:91:67:a5:39:36:d4:ec:d8:e3:e8:03:a9:de:75:cb:
         6a:d7:ee:8b:4d:d3:47:fe:17:02:48:90:d9:cd:ac:d8:e6:4c:
         1d:e5:79:c0:7a:14:59:bc:44:81:ba:96:86:b6:d8:97:4d:7a:
         1c:fb:1f:7f:e1:29:b3:d4:16:9d:29:ff:00:35:8a:14:a3:05:
         b9:50:01:73:36:b4:77:69:fb:dc:d8:da:a2:32:05:ac:e4:0a:
         41:e9:58:d2:0b:d1:ab:87:80:32:80:f8:34:13:69:cd:44:ae:
         aa:88:bc:0c:18:c2:d9:d5:a3:33:7a:84:c5:12:1b:41:74:80:
         bd:0b:43:91:25:5f:9d:ef:69:92:96:e5:12:b9:30:bf:03:6f:
         37:d1:13:08:c3:ad:cc:4a:85:b6:6d:fa:91:d2:e7:c4:b8:98:
         32:41:5c:70:4a:64:cb:19:8a:10:bd:35:70:b3:9b:83:23:80:
         24:6c:a9:e4:87:b4:68:f0:20:cb:2c:b6:a2:d8:04:3e:42:3e:
         07:00:e3:84:91:28:3b:21:9d:24:c3:36:db:e2:03:d2:6a:38:
         aa:03:b4:c4:6d:48:68:fb:90:11:b8:0c:27:15:91:97:32:f7:
         f8:8e:b5:67:a8:73:21:11:5c:de:8d:6e:2f:d5:56:82:c5:33:
         7c:4b:c4:ab:97:5c:8b:7e:10:c7:3d:bd:6c:2b:ad:b4:20:c7:
         5d:3a:6b:75:57:54:79:d3:5a:f9:a5:89:0a:aa:b3:1e:34:3b:
         e8:7f:b1:e2:9d:ec:fa:0b:be:99:34:92:6f:0b:27:7d:04:84:
         4b:37:6c:4a:f4:e8:a3:1c:b4:a4:54:69:45:c0:1b:d5:7b:9a:
         3d:5e:a2:18:36:ef:13:9b
-----BEGIN CERTIFICATE-----
MIIG4DCCBMigAwIBAgIIZxwbO5RskRswDQYJKoZIhvcNAQENBQAwgYcxCzAJBgNV
BAYTAkNIMQwwCgYDVQQIEwNadWcxDDAKBgNVBAcTA1p1ZzEYMBYGA1UEChMPUGVy
ZmVjdCBQcml2YWN5MRgwFgYDVQQDEw9QZXJmZWN0IFByaXZhY3kxKDAmBgkqhkiG
9w0BCQEWGWFkbWluQHBlcmZlY3QtcHJpdmFjeS5jb20wHhcNMjMwNjA4MDAwMDAw
WhcNMjUwMjAyMDAwMDAwWjCBjDELMAkGA1UEBhMCQ0gxDDAKBgNVBAgTA1p1ZzEY
MBYGA1UEChMPUGVyZmVjdCBQcml2YWN5MSswKQYDVQQDFCJDbGllbnRfY2hpY2Fn
by5wZXJmZWN0LXByaXZhY3kuY29tMSgwJgYJKoZIhvcNAQkBFhlhZG1pbkBwZXJm
ZWN0LXByaXZhY3kuY29tMIICIjANBgkqhkiG9w0BAQEFAAOCAg8AMIICCgKCAgEA
sShYfLHte/WjU2DyR/S56YZbSVv1kqDQT6zclKj9hfKNtmQY/S0F7n8UgiVVBtjN
zemyRQ3noNcOAq3D58IzBHPKt52foscY59P0nz/VmjpQcFwZMcbVOuvMPs+X0wti
SCzjSosyMCw6SWHjnGRbYx2x7U0lodUd4pWWjW4JbKdpjZTHWyel/5Uh/smuV2RT
QCabps1C5YkEmZ57SjGz8BV14BPNlCMAVUWRWq2iBlTr8JC3IHUTH3L5X4EobXww
6028jE8n7aMDw1j7BLDbmF6/SEdouRqgmykjK1I8iWQNo0FZERTCAHM0zZO6cfQk
lZOBItOUe4x9KfldjVQA0qA5oLYE5+518Ch/57jcXWjw/bdk1tuvlxBCyvy0lhxE
tfoMPkShGX3Z8T457nMM1fb9Wh4xlXELiwVDU+skHnbJC/jgPZTIMnDjNVM9Ta+8
ez2VFaV0tSjWs9mBxKMsSj5qXlqXiOe0yOZtUimM8WT/0l6fTLpwP2pd9XlD+kpu
p4wrYI8+E/flTAyU4w1+ned2rB9etLVByPG2g0xYohqhKk2AgHrpPDC5nnbGOz71
l1BsooVHpL6/b3krOnD9rqI8otKETItZmbPWS7NNb+v1l6h+Kp1xJ/Jeus/dTuyJ
+Okwv0VWtEZWuGJOm10+yZMNHJwk0f3qndGjjSpCdtsCAwEAAaOCAUcwggFDMAkG
A1UdEwQCMAAwIwYJYIZIAYb4QgENBBYWFFZQTiBVc2VyIENlcnRpZmljYXRlMBEG
CWCGSAGG+EIBAQQEAwIHgDALBgNVHQ8EBAMCB4AwEwYDVR0lBAwwCgYIKwYBBQUH
AwIwHQYDVR0OBBYEFDafMsahJCvI++vDhfalfE2c/NWJMIG8BgNVHSMEgbQwgbGA
FIZPuG0YKhs8jyc0KfCBn7puYQ7hoYGNpIGKMIGHMQswCQYDVQQGEwJDSDEMMAoG
A1UECBMDWnVnMQwwCgYDVQQHEwNadWcxGDAWBgNVBAoTD1BlcmZlY3QgUHJpdmFj
eTEYMBYGA1UEAxMPUGVyZmVjdCBQcml2YWN5MSgwJgYJKoZIhvcNAQkBFhlhZG1p
bkBwZXJmZWN0LXByaXZhY3kuY29tggkA+hG1xKppr2kwDQYJKoZIhvcNAQENBQAD
ggIBAC7NWBrb/TYDYrs3/T5XD+plcxIwZNGBIRgFasIUB6BTm6fte0NLhx7UTi9W
ibXXBoxzjKihZo62wJnmS8lZrDTpHmDst/z/hFZOl0WLQGrjk37jXOrzQHe9XZnu
yVyqRh2Yo1NBUa33SrKzU2hRdMAm1uJKD2HlqCjseqrhU4n7GTYvbFItba0i9nMd
mgrsnOqAHZ+tjiAhc6ZtDV9pMwWxn/696nHR9YK7bD3LB3Gcz5gJSN4MEJFnpTk2
1OzY4+gDqd51y2rX7otN00f+FwJIkNnNrNjmTB3lecB6FFm8RIG6loa22JdNehz7
H3/hKbPUFp0p/wA1ihSjBblQAXM2tHdp+9zY2qIyBazkCkHpWNIL0auHgDKA+DQT
ac1ErqqIvAwYwtnVozN6hMUSG0F0gL0LQ5ElX53vaZKW5RK5ML8DbzfREwjDrcxK
hbZt+pHS58S4mDJBXHBKZMsZihC9NXCzm4MjgCRsqeSHtGjwIMsstqLYBD5CPgcA
44SRKDshnSTDNtviA9JqOKoDtMRtSGj7kBG4DCcVkZcy9/iOtWeocyERXN6Nbi/V
VoLFM3xLxKuXXIt+EMc9vWwrrbQgx106a3VXVHnTWvmliQqqsx40O+h/seKd7PoL
vpk0km8LJ30EhEs3bEr06KMctKRUaUXAG9V7mj1eohg27xOb
-----END CERTIFICATE-----
