Certificate:
    Data:
        Version: 3 (0x2)
        Serial Number:
            c2:88:a5:80:96:4c:49:67
    Signature Algorithm: sha512WithRSAEncryption
        Issuer: C=CH, ST=Zug, L=Zug, O=Perfect Privacy, CN=Perfect Privacy/emailAddress=admin@perfect-privacy.com
        Validity
            Not Before: Jan 26 00:00:00 2023 GMT
            Not After : Sep 22 00:00:00 2024 GMT
        Subject: C=CH, ST=Zug, O=Perfect Privacy, CN=Client_calais.perfect-privacy.com/emailAddress=admin@perfect-privacy.com
        Subject Public Key Info:
            Public Key Algorithm: rsaEncryption
                Public-Key: (4096 bit)
                Modulus:
                    00:b4:8f:97:a5:f7:71:d9:65:2c:cd:87:36:f0:2a:
                    8c:25:58:d1:d5:76:ee:89:16:0f:1b:7f:dc:ff:27:
                    e0:2f:7f:51:3f:85:d1:c4:66:0e:29:39:db:0a:11:
                    b6:ad:86:74:36:1a:0c:d9:0d:86:d4:0f:e5:62:98:
                    f5:b6:48:a1:b7:4c:b1:8a:53:cf:7d:7d:42:bb:19:
                    ad:b0:fe:64:1c:29:95:e4:66:4e:ea:f9:54:42:1d:
                    65:38:c7:c3:5a:90:ae:b4:cd:d6:df:fa:bc:68:e8:
                    89:72:4f:04:2e:7f:63:d4:39:2b:45:46:f2:cb:9d:
                    b6:52:a5:b1:53:93:5b:d2:6d:47:b9:94:97:25:9d:
                    79:11:90:09:97:39:3e:3f:ad:cf:5b:73:77:04:0e:
                    2f:e5:f1:93:a6:88:f1:6b:44:69:c0:71:86:9c:b0:
                    32:db:59:44:b9:4b:b0:ac:4d:30:49:52:ba:47:03:
                    4a:2c:a7:cc:36:d9:92:23:99:e5:4a:e3:71:96:d9:
                    7f:5d:93:e3:c3:39:cf:9c:61:d6:cc:53:0a:8f:a5:
                    81:82:93:5d:00:14:a6:bd:4d:cc:c1:32:eb:e0:b3:
                    30:8b:fc:4f:37:08:76:8e:08:30:77:aa:be:c9:65:
                    42:c5:5e:28:42:48:db:7a:07:13:df:80:28:79:25:
                    3f:3f:f5:8e:21:3a:03:4b:6e:19:c7:4b:ee:e9:67:
                    b2:d5:8b:27:d7:7a:54:b0:b0:d9:d7:bd:4c:da:bc:
                    59:4e:20:e9:96:3a:30:5d:4f:ba:21:54:10:18:af:
                    3a:88:05:be:2f:24:4c:31:d0:90:44:92:ca:f5:86:
                    7b:92:1c:05:f4:a9:af:f1:a4:9a:de:b4:55:93:ac:
                    cf:67:7b:e9:77:e6:0b:31:7e:75:76:ca:10:bf:b9:
                    3d:e7:b1:9d:7f:5e:5a:56:44:c1:6f:0f:45:e2:1d:
                    4b:ec:6d:4a:c9:86:d5:fe:e2:9b:2d:4d:13:fa:ef:
                    8c:3f:50:19:b0:6d:05:52:c4:a6:cc:6c:97:9f:bb:
                    49:36:af:e8:72:04:6b:be:8a:02:67:6b:f6:bb:af:
                    a7:21:65:f3:63:de:a2:6c:ca:fc:88:69:09:ce:18:
                    86:08:9e:8c:27:9d:4a:11:07:8f:89:ac:e5:68:3b:
                    a9:40:bb:63:34:70:75:28:69:39:7e:2c:8d:88:17:
                    76:21:07:cf:39:f9:9e:17:15:fa:c8:06:a1:69:06:
                    09:3e:a2:27:1c:48:90:2c:f8:68:67:b8:f1:2c:d8:
                    32:5d:8d:7e:de:a8:ec:f1:05:cf:b6:12:6b:f9:20:
                    ba:6a:f7:02:e8:f7:60:66:02:62:6e:6e:cd:0f:31:
                    2b:f3:a3
                Exponent: 65537 (0x10001)
        X509v3 extensions:
            X509v3 Basic Constraints: 
                CA:FALSE
            Netscape Comment: 
                VPN User Certificate
            Netscape Cert Type: 
                SSL Client
            X509v3 Key Usage: 
                Digital Signature
            X509v3 Extended Key Usage: 
                TLS Web Client Authentication
            X509v3 Subject Key Identifier: 
                25:87:31:1A:E2:CA:0E:F9:B8:8B:9E:49:47:21:71:88:97:96:DA:FE
            X509v3 Authority Key Identifier: 
                keyid:86:4F:B8:6D:18:2A:1B:3C:8F:27:34:29:F0:81:9F:BA:6E:61:0E:E1
                DirName:/C=CH/ST=Zug/L=Zug/O=Perfect Privacy/CN=Perfect Privacy/emailAddress=admin@perfect-privacy.com
                serial:FA:11:B5:C4:AA:69:AF:69

    Signature Algorithm: sha512WithRSAEncryption
         6e:f6:fb:ab:c7:85:de:9e:e2:ed:f8:cd:90:b3:2a:61:ca:ba:
         56:d2:69:f3:6a:7b:02:75:61:b9:12:b6:7f:0b:63:d2:85:d4:
         7c:c4:08:82:3d:67:16:50:68:ba:a4:b7:af:6c:10:1c:76:2e:
         fb:d5:09:b7:04:aa:6a:af:18:d4:cd:35:1b:0f:17:de:00:76:
         30:43:dc:a5:0c:af:0e:ac:ad:ae:18:78:80:da:ba:3d:a2:bc:
         42:1b:43:a4:5a:9c:df:5c:8a:69:35:73:9d:94:5f:9a:cd:bf:
         9a:11:f0:7b:af:5b:93:c0:ca:e1:3d:00:87:cc:23:87:f6:da:
         8d:4c:82:48:5b:99:98:f7:57:5d:16:3d:11:e5:49:01:09:80:
         d9:37:9d:d2:90:fa:aa:4c:b1:95:2b:45:19:eb:31:e5:f0:8d:
         2c:3d:20:41:f9:5a:df:70:9e:ad:c0:54:9a:5f:03:ba:ea:34:
         f1:ed:b0:95:a9:64:92:05:90:2a:be:73:8f:8a:36:59:77:2c:
         6b:1a:83:41:3a:1a:23:9f:e7:3c:2b:d4:6e:c9:80:86:eb:08:
         9c:13:b3:87:c7:4c:74:77:70:82:3c:f5:57:dc:97:28:65:47:
         a4:fd:6d:d3:6d:45:ae:4e:35:57:c5:60:d4:72:9c:76:3c:1a:
         f2:3c:e4:08:86:01:7f:35:df:80:06:a5:0e:34:cb:72:4e:e3:
         f7:cc:dc:fc:89:b1:ab:75:86:86:e9:2c:28:46:29:17:9e:63:
         c7:ce:a7:5b:f4:bb:4c:de:e2:92:26:fb:34:6d:c1:b4:db:9b:
         ef:50:eb:b8:06:e5:09:a5:67:be:bd:a9:7f:c3:49:4c:d1:c8:
         76:b9:97:bc:45:c3:a3:9d:a8:8f:8d:fe:71:f5:c4:25:62:4f:
         b2:a4:cb:2d:8d:c2:5e:64:1f:e2:5b:cc:e5:43:80:fb:4d:df:
         5c:bd:24:db:8c:1a:c8:03:d7:ab:4e:28:d1:c9:0d:83:5c:f8:
         ff:1a:7d:7f:08:bf:12:b2:0d:a9:11:da:82:17:80:d9:34:d7:
         8a:aa:97:f9:6b:aa:b6:a2:97:96:eb:c0:64:54:82:5a:15:ec:
         26:59:53:1a:04:24:ca:26:75:f8:35:05:10:1e:00:11:a9:02:
         b2:11:64:1d:a0:e2:3a:29:e4:12:1b:dc:63:b8:6d:4f:93:57:
         5e:01:ac:03:57:f5:c1:d2:0a:c1:5c:12:a1:51:4c:28:55:f0:
         a3:52:c2:9b:72:8e:97:50:8e:b6:f7:d9:6e:8d:5d:8a:e3:55:
         c9:42:f0:12:3d:60:00:62:2f:c2:13:47:7e:f1:30:d8:30:f3:
         57:22:d4:92:20:02:7a:f2
-----BEGIN CERTIFICATE-----
MIIG4DCCBMigAwIBAgIJAMKIpYCWTElnMA0GCSqGSIb3DQEBDQUAMIGHMQswCQYD
VQQGEwJDSDEMMAoGA1UECBMDWnVnMQwwCgYDVQQHEwNadWcxGDAWBgNVBAoTD1Bl
cmZlY3QgUHJpdmFjeTEYMBYGA1UEAxMPUGVyZmVjdCBQcml2YWN5MSgwJgYJKoZI
hvcNAQkBFhlhZG1pbkBwZXJmZWN0LXByaXZhY3kuY29tMB4XDTIzMDEyNjAwMDAw
MFoXDTI0MDkyMjAwMDAwMFowgYsxCzAJBgNVBAYTAkNIMQwwCgYDVQQIEwNadWcx
GDAWBgNVBAoTD1BlcmZlY3QgUHJpdmFjeTEqMCgGA1UEAxQhQ2xpZW50X2NhbGFp
cy5wZXJmZWN0LXByaXZhY3kuY29tMSgwJgYJKoZIhvcNAQkBFhlhZG1pbkBwZXJm
ZWN0LXByaXZhY3kuY29tMIICIjANBgkqhkiG9w0BAQEFAAOCAg8AMIICCgKCAgEA
tI+Xpfdx2WUszYc28CqMJVjR1XbuiRYPG3/c/yfgL39RP4XRxGYOKTnbChG2rYZ0
NhoM2Q2G1A/lYpj1tkiht0yxilPPfX1CuxmtsP5kHCmV5GZO6vlUQh1lOMfDWpCu
tM3W3/q8aOiJck8ELn9j1DkrRUbyy522UqWxU5Nb0m1HuZSXJZ15EZAJlzk+P63P
W3N3BA4v5fGTpojxa0RpwHGGnLAy21lEuUuwrE0wSVK6RwNKLKfMNtmSI5nlSuNx
ltl/XZPjwznPnGHWzFMKj6WBgpNdABSmvU3MwTLr4LMwi/xPNwh2jggwd6q+yWVC
xV4oQkjbegcT34AoeSU/P/WOIToDS24Zx0vu6Wey1Ysn13pUsLDZ171M2rxZTiDp
ljowXU+6IVQQGK86iAW+LyRMMdCQRJLK9YZ7khwF9Kmv8aSa3rRVk6zPZ3vpd+YL
MX51dsoQv7k957Gdf15aVkTBbw9F4h1L7G1KyYbV/uKbLU0T+u+MP1AZsG0FUsSm
zGyXn7tJNq/ocgRrvooCZ2v2u6+nIWXzY96ibMr8iGkJzhiGCJ6MJ51KEQePiazl
aDupQLtjNHB1KGk5fiyNiBd2IQfPOfmeFxX6yAahaQYJPqInHEiQLPhoZ7jxLNgy
XY1+3qjs8QXPthJr+SC6avcC6PdgZgJibm7NDzEr86MCAwEAAaOCAUcwggFDMAkG
A1UdEwQCMAAwIwYJYIZIAYb4QgENBBYWFFZQTiBVc2VyIENlcnRpZmljYXRlMBEG
CWCGSAGG+EIBAQQEAwIHgDALBgNVHQ8EBAMCB4AwEwYDVR0lBAwwCgYIKwYBBQUH
AwIwHQYDVR0OBBYEFCWHMRriyg75uIueSUchcYiXltr+MIG8BgNVHSMEgbQwgbGA
FIZPuG0YKhs8jyc0KfCBn7puYQ7hoYGNpIGKMIGHMQswCQYDVQQGEwJDSDEMMAoG
A1UECBMDWnVnMQwwCgYDVQQHEwNadWcxGDAWBgNVBAoTD1BlcmZlY3QgUHJpdmFj
eTEYMBYGA1UEAxMPUGVyZmVjdCBQcml2YWN5MSgwJgYJKoZIhvcNAQkBFhlhZG1p
bkBwZXJmZWN0LXByaXZhY3kuY29tggkA+hG1xKppr2kwDQYJKoZIhvcNAQENBQAD
ggIBAG72+6vHhd6e4u34zZCzKmHKulbSafNqewJ1YbkStn8LY9KF1HzECII9ZxZQ
aLqkt69sEBx2LvvVCbcEqmqvGNTNNRsPF94AdjBD3KUMrw6sra4YeIDauj2ivEIb
Q6RanN9cimk1c52UX5rNv5oR8HuvW5PAyuE9AIfMI4f22o1MgkhbmZj3V10WPRHl
SQEJgNk3ndKQ+qpMsZUrRRnrMeXwjSw9IEH5Wt9wnq3AVJpfA7rqNPHtsJWpZJIF
kCq+c4+KNll3LGsag0E6GiOf5zwr1G7JgIbrCJwTs4fHTHR3cII89VfclyhlR6T9
bdNtRa5ONVfFYNRynHY8GvI85AiGAX8134AGpQ40y3JO4/fM3PyJsat1hobpLChG
KReeY8fOp1v0u0ze4pIm+zRtwbTbm+9Q67gG5QmlZ769qX/DSUzRyHa5l7xFw6Od
qI+N/nH1xCViT7Kkyy2Nwl5kH+JbzOVDgPtN31y9JNuMGsgD16tOKNHJDYNc+P8a
fX8IvxKyDakR2oIXgNk014qql/lrqrail5brwGRUgloV7CZZUxoEJMomdfg1BRAe
ABGpArIRZB2g4jop5BIb3GO4bU+TV14BrANX9cHSCsFcEqFRTChV8KNSwptyjpdQ
jrb32W6NXYrjVclC8BI9YABiL8ITR37xMNgw81ci1JIgAnry
-----END CERTIFICATE-----
