Certificate:
    Data:
        Version: 3 (0x2)
        Serial Number: 6960878389015486111 (0x609a0203b5f61e9f)
    Signature Algorithm: sha512WithRSAEncryption
        Issuer: C=CH, ST=Zug, L=Zug, O=Perfect Privacy, CN=Perfect Privacy/emailAddress=admin@perfect-privacy.com
        Validity
            Not Before: Jan 13 00:00:00 2023 GMT
            Not After : Sep  9 00:00:00 2024 GMT
        Subject: C=CH, ST=Zug, O=Perfect Privacy, CN=Client_copenhagen.perfect-privacy.com/emailAddress=admin@perfect-privacy.com
        Subject Public Key Info:
            Public Key Algorithm: rsaEncryption
                Public-Key: (4096 bit)
                Modulus:
                    00:d4:91:46:78:5b:8f:4c:ce:b9:86:c7:04:83:77:
                    71:84:a1:8d:45:04:27:a4:e5:ad:59:30:b2:bf:db:
                    0e:58:99:9f:09:74:1c:a9:74:4c:a2:f2:6a:82:78:
                    e3:d1:9a:8f:80:92:c0:2e:7c:0c:2f:b4:af:f5:5e:
                    45:db:23:c6:8e:82:29:09:ef:9b:59:e9:0f:61:15:
                    28:84:9d:5c:92:82:8c:bd:89:74:ab:0d:e6:ba:05:
                    29:53:50:9e:46:89:02:ee:f3:f3:90:54:06:e9:c6:
                    a9:84:8f:b8:48:bd:4e:d5:cc:09:3e:e3:5e:99:27:
                    09:fc:95:4f:c9:c9:4f:eb:f1:fd:e4:3a:ef:c3:a3:
                    87:34:38:d1:03:aa:ee:62:5f:bd:77:93:0a:0c:9b:
                    09:aa:58:3c:7b:ec:cf:23:d8:4a:8f:ba:7d:e4:86:
                    0c:a4:7c:ef:cf:19:21:10:cb:b2:11:28:c5:a5:3d:
                    3c:93:29:62:e9:b9:4c:a2:11:ff:46:04:3d:fd:c4:
                    17:2a:5c:5c:38:58:c1:34:28:93:cb:8a:23:59:32:
                    83:72:91:f5:c0:98:78:dc:8f:05:ab:2a:1e:13:86:
                    0a:37:b2:c5:f1:a7:5e:29:8e:a9:55:45:9f:3b:05:
                    ec:a1:29:c8:00:7c:00:58:57:ba:e8:20:54:90:2c:
                    a0:80:63:43:57:36:cd:d9:71:19:a3:df:d7:95:3b:
                    2b:52:47:c3:15:5b:f5:3d:20:e1:7e:9b:b4:00:5a:
                    99:77:83:9f:83:f6:d0:ae:c9:67:36:99:03:e7:a7:
                    4d:cf:48:52:50:79:87:ab:18:c4:d8:61:02:10:dc:
                    13:2f:48:15:f6:6f:04:43:a2:ed:fc:0a:e1:1a:69:
                    6f:25:cb:ca:3a:ea:ab:06:a6:50:d9:9d:a8:7d:28:
                    fa:db:8a:20:23:09:ed:01:1d:d8:d9:1c:c7:6b:3e:
                    ac:36:2b:f8:68:50:b3:b5:da:df:16:fa:a2:c7:4f:
                    7e:ad:3f:6f:91:97:d3:ee:83:8c:54:5b:36:77:c9:
                    82:d1:d2:7a:21:0e:ed:40:73:65:e7:f5:21:b7:72:
                    52:b3:77:ab:20:85:ce:71:76:8c:ee:ee:26:1e:15:
                    fb:5f:d5:78:69:34:d7:2a:72:40:02:a0:fe:9d:16:
                    61:e3:c6:44:f6:e0:53:9e:61:2d:73:0c:83:5a:f9:
                    45:da:33:16:7a:00:4f:5b:d7:fa:4f:7a:68:b2:27:
                    cc:d2:7d:34:17:13:10:ad:64:db:93:0a:7d:56:95:
                    30:a5:ee:61:46:ef:fb:e8:79:fa:95:d1:f9:2c:75:
                    1c:98:fe:fe:eb:3b:d8:da:f8:c8:34:82:17:90:27:
                    f0:02:51
                Exponent: 65537 (0x10001)
        X509v3 extensions:
            X509v3 Basic Constraints: 
                CA:FALSE
            Netscape Comment: 
                VPN User Certificate
            Netscape Cert Type: 
                SSL Client
            X509v3 Key Usage: 
                Digital Signature
            X509v3 Extended Key Usage: 
                TLS Web Client Authentication
            X509v3 Subject Key Identifier: 
                F8:3E:FD:9E:EF:57:30:B7:54:B5:4A:17:4D:24:02:71:EC:AE:65:5B
            X509v3 Authority Key Identifier: 
                keyid:86:4F:B8:6D:18:2A:1B:3C:8F:27:34:29:F0:81:9F:BA:6E:61:0E:E1
                DirName:/C=CH/ST=Zug/L=Zug/O=Perfect Privacy/CN=Perfect Privacy/emailAddress=admin@perfect-privacy.com
                serial:FA:11:B5:C4:AA:69:AF:69

    Signature Algorithm: sha512WithRSAEncryption
         46:79:4e:da:21:0c:0a:62:5e:72:cc:2d:b5:52:70:9e:64:ba:
         8f:cb:c9:a2:21:ae:1a:95:9e:f3:88:ad:97:f2:0f:40:b0:ea:
         44:d7:71:ed:09:02:c0:76:80:b4:2b:96:89:2a:ff:dd:a3:5a:
         96:7c:97:4b:6c:0d:bb:92:f1:19:71:dd:be:d3:53:ff:fd:67:
         19:f2:45:12:62:95:71:fe:47:c3:1d:ea:16:95:97:cb:8b:e2:
         66:23:a1:64:01:cd:fa:a6:59:4c:85:38:79:51:11:79:23:a9:
         0f:83:f1:42:4c:ac:5b:9b:09:f6:52:66:09:ef:19:75:4a:7f:
         58:da:ae:d3:43:bf:1b:0e:32:f4:52:8e:13:24:5a:9a:c7:cb:
         00:d7:46:84:4b:f5:50:72:24:8f:e5:0f:9f:6d:17:92:6a:73:
         0b:fa:b8:e7:0f:8b:6e:f3:d9:c6:d4:bf:c8:7e:04:c0:a6:1e:
         e9:cc:70:c7:c0:fa:f0:75:16:8c:c2:84:bb:3e:1e:ba:bd:f5:
         5a:b6:7d:43:62:42:94:eb:ab:a3:ca:91:ca:b9:16:99:6e:aa:
         1b:f3:b6:84:02:ab:2c:37:b7:85:c7:73:8f:1c:e6:95:b9:48:
         ec:a4:9c:1d:10:1f:89:93:be:a2:38:27:96:0c:6e:11:15:7f:
         e5:b5:b4:6a:23:5c:28:de:43:8e:40:d3:6c:5a:58:36:8f:5f:
         02:62:78:f7:8b:c6:a9:73:ea:d6:07:47:dd:49:e7:d2:9b:77:
         e9:d9:ab:30:11:40:61:f6:5e:71:ed:88:0c:e3:6b:ee:99:e2:
         8a:d3:2f:77:79:96:d4:7b:25:36:d9:4d:65:31:df:8f:cc:f4:
         47:87:08:65:61:93:be:a4:69:60:db:9c:57:19:f5:bf:96:52:
         8c:a3:bf:57:7a:f2:17:b0:27:5c:79:0e:4b:35:52:80:2e:cf:
         1d:17:11:d0:99:b0:2e:ca:24:d2:a8:ad:f2:1f:99:34:9c:2a:
         73:0f:f0:89:8e:dd:3e:96:ab:35:03:c7:b6:4a:d7:9d:3d:d6:
         a4:e5:12:85:b6:4f:bc:c6:f2:dc:29:26:80:f2:f8:fb:b6:d9:
         4c:e6:3f:a1:41:28:55:59:9f:98:4a:e7:31:21:34:c7:11:9b:
         e6:16:0f:36:a9:41:96:bd:3a:e4:8b:13:5f:f5:ac:b8:45:74:
         9f:97:4d:c3:cd:c8:c7:de:69:e8:cc:89:c4:b7:0d:87:a5:51:
         df:65:05:63:2b:69:37:a7:33:43:14:1a:56:a0:b6:79:e3:10:
         ea:f0:4e:05:ed:c0:d1:2e:99:d3:00:fc:93:a2:13:ad:66:e7:
         50:d3:69:41:06:b0:36:2b
-----BEGIN CERTIFICATE-----
MIIG4zCCBMugAwIBAgIIYJoCA7X2Hp8wDQYJKoZIhvcNAQENBQAwgYcxCzAJBgNV
BAYTAkNIMQwwCgYDVQQIEwNadWcxDDAKBgNVBAcTA1p1ZzEYMBYGA1UEChMPUGVy
ZmVjdCBQcml2YWN5MRgwFgYDVQQDEw9QZXJmZWN0IFByaXZhY3kxKDAmBgkqhkiG
9w0BCQEWGWFkbWluQHBlcmZlY3QtcHJpdmFjeS5jb20wHhcNMjMwMTEzMDAwMDAw
WhcNMjQwOTA5MDAwMDAwWjCBjzELMAkGA1UEBhMCQ0gxDDAKBgNVBAgTA1p1ZzEY
MBYGA1UEChMPUGVyZmVjdCBQcml2YWN5MS4wLAYDVQQDFCVDbGllbnRfY29wZW5o
YWdlbi5wZXJmZWN0LXByaXZhY3kuY29tMSgwJgYJKoZIhvcNAQkBFhlhZG1pbkBw
ZXJmZWN0LXByaXZhY3kuY29tMIICIjANBgkqhkiG9w0BAQEFAAOCAg8AMIICCgKC
AgEA1JFGeFuPTM65hscEg3dxhKGNRQQnpOWtWTCyv9sOWJmfCXQcqXRMovJqgnjj
0ZqPgJLALnwML7Sv9V5F2yPGjoIpCe+bWekPYRUohJ1ckoKMvYl0qw3mugUpU1Ce
RokC7vPzkFQG6caphI+4SL1O1cwJPuNemScJ/JVPyclP6/H95Drvw6OHNDjRA6ru
Yl+9d5MKDJsJqlg8e+zPI9hKj7p95IYMpHzvzxkhEMuyESjFpT08kyli6blMohH/
RgQ9/cQXKlxcOFjBNCiTy4ojWTKDcpH1wJh43I8FqyoeE4YKN7LF8adeKY6pVUWf
OwXsoSnIAHwAWFe66CBUkCyggGNDVzbN2XEZo9/XlTsrUkfDFVv1PSDhfpu0AFqZ
d4Ofg/bQrslnNpkD56dNz0hSUHmHqxjE2GECENwTL0gV9m8EQ6Lt/ArhGmlvJcvK
OuqrBqZQ2Z2ofSj624ogIwntAR3Y2RzHaz6sNiv4aFCztdrfFvqix09+rT9vkZfT
7oOMVFs2d8mC0dJ6IQ7tQHNl5/Uht3JSs3erIIXOcXaM7u4mHhX7X9V4aTTXKnJA
AqD+nRZh48ZE9uBTnmEtcwyDWvlF2jMWegBPW9f6T3posifM0n00FxMQrWTbkwp9
VpUwpe5hRu/76Hn6ldH5LHUcmP7+6zvY2vjINIIXkCfwAlECAwEAAaOCAUcwggFD
MAkGA1UdEwQCMAAwIwYJYIZIAYb4QgENBBYWFFZQTiBVc2VyIENlcnRpZmljYXRl
MBEGCWCGSAGG+EIBAQQEAwIHgDALBgNVHQ8EBAMCB4AwEwYDVR0lBAwwCgYIKwYB
BQUHAwIwHQYDVR0OBBYEFPg+/Z7vVzC3VLVKF00kAnHsrmVbMIG8BgNVHSMEgbQw
gbGAFIZPuG0YKhs8jyc0KfCBn7puYQ7hoYGNpIGKMIGHMQswCQYDVQQGEwJDSDEM
MAoGA1UECBMDWnVnMQwwCgYDVQQHEwNadWcxGDAWBgNVBAoTD1BlcmZlY3QgUHJp
dmFjeTEYMBYGA1UEAxMPUGVyZmVjdCBQcml2YWN5MSgwJgYJKoZIhvcNAQkBFhlh
ZG1pbkBwZXJmZWN0LXByaXZhY3kuY29tggkA+hG1xKppr2kwDQYJKoZIhvcNAQEN
BQADggIBAEZ5TtohDApiXnLMLbVScJ5kuo/LyaIhrhqVnvOIrZfyD0Cw6kTXce0J
AsB2gLQrlokq/92jWpZ8l0tsDbuS8Rlx3b7TU//9ZxnyRRJilXH+R8Md6haVl8uL
4mYjoWQBzfqmWUyFOHlREXkjqQ+D8UJMrFubCfZSZgnvGXVKf1jartNDvxsOMvRS
jhMkWprHywDXRoRL9VByJI/lD59tF5Jqcwv6uOcPi27z2cbUv8h+BMCmHunMcMfA
+vB1FozChLs+Hrq99Vq2fUNiQpTrq6PKkcq5FpluqhvztoQCqyw3t4XHc48c5pW5
SOyknB0QH4mTvqI4J5YMbhEVf+W1tGojXCjeQ45A02xaWDaPXwJiePeLxqlz6tYH
R91J59Kbd+nZqzARQGH2XnHtiAzja+6Z4orTL3d5ltR7JTbZTWUx34/M9EeHCGVh
k76kaWDbnFcZ9b+WUoyjv1d68hewJ1x5Dks1UoAuzx0XEdCZsC7KJNKorfIfmTSc
KnMP8ImO3T6WqzUDx7ZK15091qTlEoW2T7zG8twpJoDy+Pu22UzmP6FBKFVZn5hK
5zEhNMcRm+YWDzapQZa9OuSLE1/1rLhFdJ+XTcPNyMfeaejMicS3DYelUd9lBWMr
aTenM0MUGlagtnnjEOrwTgXtwNEumdMA/JOiE61m51DTaUEGsDYr
-----END CERTIFICATE-----
