Certificate:
    Data:
        Version: 3 (0x2)
        Serial Number:
            e2:0e:4e:a1:48:3f:f1:3d
    Signature Algorithm: sha512WithRSAEncryption
        Issuer: C=CH, ST=Zug, L=Zug, O=Perfect Privacy, CN=Perfect Privacy/emailAddress=admin@perfect-privacy.com
        Validity
            Not Before: Jun  2 00:00:00 2024 GMT
            Not After : Jan 28 00:00:00 2026 GMT
        Subject: C=CH, ST=Zug, O=Perfect Privacy, CN=Client_copenhagen.perfect-privacy.com/emailAddress=admin@perfect-privacy.com
        Subject Public Key Info:
            Public Key Algorithm: rsaEncryption
                Public-Key: (4096 bit)
                Modulus:
                    00:dd:7c:65:b2:bb:0a:aa:47:b7:9d:03:f8:c8:52:
                    a8:ca:c3:8e:5e:25:61:b0:0e:62:ef:23:f7:48:24:
                    4d:0b:c7:ce:80:de:17:4c:96:cf:fd:72:39:63:46:
                    b4:b8:ea:db:ad:c9:4d:e7:3c:f1:ae:e1:79:de:c1:
                    0b:bf:f3:cc:01:6e:36:de:90:80:27:4c:4b:86:35:
                    6e:15:9c:41:0f:07:e7:ea:de:de:aa:36:f8:d3:e5:
                    29:ca:66:1c:67:f3:cb:3a:98:a1:7c:d0:25:bc:7c:
                    c0:b2:e6:06:31:25:b0:cb:01:8e:3c:21:2c:e3:c5:
                    9f:b5:a6:83:1c:20:ea:6c:05:ee:5f:62:b7:94:0f:
                    69:e1:0a:a2:63:10:79:1a:04:21:c5:b6:a0:c5:db:
                    06:25:63:aa:6c:c4:4c:ec:53:67:5c:3f:17:f8:69:
                    24:f6:43:77:54:d7:27:ac:39:f9:1b:e1:4c:93:9c:
                    f1:f9:58:b1:46:14:dc:ea:71:78:39:ce:2b:0a:67:
                    45:a6:68:21:1d:da:a4:3b:34:aa:55:1f:c9:f4:d9:
                    d6:73:b8:4b:38:d6:a1:c9:40:bd:0a:fd:79:42:14:
                    a6:8a:ea:cb:94:71:b9:85:80:e2:aa:79:5b:b6:1a:
                    91:f8:ff:24:c6:9f:10:5c:6e:75:1f:22:00:01:c9:
                    5c:ac:4e:b3:e5:d6:00:41:c6:fa:31:5c:6a:66:31:
                    45:0d:2f:3b:c9:92:50:cc:0f:b2:8b:f9:98:24:c0:
                    d5:3a:84:20:1b:e7:41:74:6c:c4:a6:44:a8:06:94:
                    51:2f:21:9e:90:93:8b:17:40:33:6b:c7:b8:f8:29:
                    7c:9b:2c:e3:ac:c3:23:80:da:1c:b6:bd:a6:8e:90:
                    2b:60:16:44:35:f9:55:a5:64:0b:4c:0b:57:2c:ff:
                    a8:dd:4c:2d:03:d1:b8:40:93:c8:5c:5e:36:09:a9:
                    7f:47:3b:5a:3d:04:21:1a:3a:6e:0f:6e:c4:f7:bd:
                    ea:c6:8e:a1:22:36:99:19:a2:11:13:a1:c6:78:5f:
                    aa:90:23:e0:7c:55:ab:d4:6c:6e:b8:38:60:8e:46:
                    31:5f:4b:38:12:4b:1b:0c:9e:77:29:f2:74:e3:5c:
                    48:bf:5b:47:d0:34:e3:5e:35:13:85:a0:53:53:a2:
                    b8:be:dd:3f:16:7c:9c:b9:30:2f:d7:fc:cc:53:9a:
                    ac:13:91:f1:e7:49:35:76:c6:30:f7:d2:e3:93:87:
                    da:5c:a6:9f:78:bc:37:3d:b8:26:4f:d4:67:b9:80:
                    f3:f4:6b:89:cc:e7:db:ce:f3:4e:40:21:fa:2a:46:
                    80:59:dd:79:7f:d9:98:60:5b:90:64:d6:dd:3e:03:
                    11:af:b9
                Exponent: 65537 (0x10001)
        X509v3 extensions:
            X509v3 Basic Constraints: 
                CA:FALSE
            Netscape Comment: 
                VPN User Certificate
            Netscape Cert Type: 
                SSL Client
            X509v3 Key Usage: 
                Digital Signature
            X509v3 Extended Key Usage: 
                TLS Web Client Authentication
            X509v3 Subject Key Identifier: 
                20:22:4C:C5:A8:8F:93:96:11:32:7F:37:41:E4:BD:20:8F:78:E3:7D
            X509v3 Authority Key Identifier: 
                keyid:86:4F:B8:6D:18:2A:1B:3C:8F:27:34:29:F0:81:9F:BA:6E:61:0E:E1
                DirName:/C=CH/ST=Zug/L=Zug/O=Perfect Privacy/CN=Perfect Privacy/emailAddress=admin@perfect-privacy.com
                serial:FA:11:B5:C4:AA:69:AF:69

    Signature Algorithm: sha512WithRSAEncryption
         7d:7a:94:c1:5d:17:13:6c:f2:f6:a9:fe:39:d1:ab:d2:c1:3b:
         1b:5f:d8:16:8c:4c:d4:b8:14:7a:de:96:28:74:f5:38:c9:8b:
         d0:2f:be:e3:02:34:6f:9e:84:02:10:a6:4e:f0:a4:d1:9a:7f:
         e6:9f:ed:69:77:d3:e4:12:cd:06:53:cd:4f:72:9b:19:bf:3b:
         a8:8c:de:14:a9:79:3f:27:0b:c4:6a:23:87:b2:e7:94:e2:5f:
         d2:d2:68:d6:19:c4:99:db:4d:ce:4e:1f:27:da:a5:bd:c8:22:
         90:d3:1b:60:47:f4:bd:6d:70:64:2b:21:6c:e9:2e:36:93:bf:
         59:86:a3:68:d7:bb:6e:41:2d:b9:aa:35:61:a3:ff:cb:fe:bc:
         b1:1c:cb:de:de:44:1b:38:cf:e8:d4:cb:24:f4:c7:3c:a2:91:
         c0:a0:ac:f5:4a:f9:53:c6:5f:a7:8c:aa:57:53:99:dd:5b:f9:
         98:75:ff:79:71:3e:f5:33:d2:01:ab:95:71:da:34:64:e8:d1:
         38:1a:26:cb:af:93:93:95:6b:84:0c:6f:6b:aa:9e:e0:c9:9b:
         1a:be:e0:fd:0a:c7:ff:75:89:7a:e6:42:75:48:83:0e:3c:93:
         ce:64:24:f2:a4:5b:61:23:88:f6:48:23:63:e2:c2:a0:66:a5:
         b7:19:a4:5e:cc:de:f4:74:ff:c7:72:15:4d:ed:a2:28:e9:b4:
         6d:a7:bc:40:8d:98:16:ce:50:f5:ec:68:e7:66:ae:4d:01:7d:
         52:3c:88:79:b6:e5:d3:4b:7c:3e:80:0f:e5:2b:2d:13:7c:59:
         d6:b5:32:33:d5:c1:8f:53:de:10:ec:95:18:97:cc:37:46:f4:
         ad:d2:ab:91:fd:78:d5:0a:7f:67:de:eb:26:7e:f1:7a:65:03:
         52:8d:f6:8d:51:8e:9c:69:af:b9:1c:1a:d5:eb:80:41:5c:de:
         56:ac:7a:a6:0e:b8:27:1b:4f:18:91:1d:56:7e:b4:b1:75:f1:
         db:33:00:b6:c5:89:78:a1:5a:f5:25:62:49:6f:36:df:94:9d:
         23:ec:93:e4:ff:1c:7e:5b:ae:b6:a4:ba:b9:2c:46:0b:52:af:
         43:89:eb:90:d9:55:d5:10:99:7c:17:6a:3a:e3:2d:9d:96:50:
         d9:98:7c:a6:41:e3:9a:fe:5a:b9:68:fe:c6:86:75:c7:f9:82:
         88:93:26:55:20:c8:d9:10:d8:ce:da:95:f6:71:09:0b:be:d6:
         79:9c:f1:45:ac:1f:d2:1c:66:8b:11:29:7b:87:66:6f:e1:f2:
         d8:d9:0a:d7:52:7d:52:37:d7:47:4e:77:43:69:6b:9d:83:d6:
         20:2a:6b:7b:24:77:02:30
-----BEGIN CERTIFICATE-----
MIIG5DCCBMygAwIBAgIJAOIOTqFIP/E9MA0GCSqGSIb3DQEBDQUAMIGHMQswCQYD
VQQGEwJDSDEMMAoGA1UECBMDWnVnMQwwCgYDVQQHEwNadWcxGDAWBgNVBAoTD1Bl
cmZlY3QgUHJpdmFjeTEYMBYGA1UEAxMPUGVyZmVjdCBQcml2YWN5MSgwJgYJKoZI
hvcNAQkBFhlhZG1pbkBwZXJmZWN0LXByaXZhY3kuY29tMB4XDTI0MDYwMjAwMDAw
MFoXDTI2MDEyODAwMDAwMFowgY8xCzAJBgNVBAYTAkNIMQwwCgYDVQQIEwNadWcx
GDAWBgNVBAoTD1BlcmZlY3QgUHJpdmFjeTEuMCwGA1UEAxQlQ2xpZW50X2NvcGVu
aGFnZW4ucGVyZmVjdC1wcml2YWN5LmNvbTEoMCYGCSqGSIb3DQEJARYZYWRtaW5A
cGVyZmVjdC1wcml2YWN5LmNvbTCCAiIwDQYJKoZIhvcNAQEBBQADggIPADCCAgoC
ggIBAN18ZbK7CqpHt50D+MhSqMrDjl4lYbAOYu8j90gkTQvHzoDeF0yWz/1yOWNG
tLjq263JTec88a7hed7BC7/zzAFuNt6QgCdMS4Y1bhWcQQ8H5+re3qo2+NPlKcpm
HGfzyzqYoXzQJbx8wLLmBjElsMsBjjwhLOPFn7Wmgxwg6mwF7l9it5QPaeEKomMQ
eRoEIcW2oMXbBiVjqmzETOxTZ1w/F/hpJPZDd1TXJ6w5+RvhTJOc8flYsUYU3Opx
eDnOKwpnRaZoIR3apDs0qlUfyfTZ1nO4SzjWoclAvQr9eUIUporqy5RxuYWA4qp5
W7Yakfj/JMafEFxudR8iAAHJXKxOs+XWAEHG+jFcamYxRQ0vO8mSUMwPsov5mCTA
1TqEIBvnQXRsxKZEqAaUUS8hnpCTixdAM2vHuPgpfJss46zDI4DaHLa9po6QK2AW
RDX5VaVkC0wLVyz/qN1MLQPRuECTyFxeNgmpf0c7Wj0EIRo6bg9uxPe96saOoSI2
mRmiEROhxnhfqpAj4HxVq9Rsbrg4YI5GMV9LOBJLGwyedynydONcSL9bR9A04141
E4WgU1OiuL7dPxZ8nLkwL9f8zFOarBOR8edJNXbGMPfS45OH2lymn3i8Nz24Jk/U
Z7mA8/Rriczn287zTkAh+ipGgFndeX/ZmGBbkGTW3T4DEa+5AgMBAAGjggFHMIIB
QzAJBgNVHRMEAjAAMCMGCWCGSAGG+EIBDQQWFhRWUE4gVXNlciBDZXJ0aWZpY2F0
ZTARBglghkgBhvhCAQEEBAMCB4AwCwYDVR0PBAQDAgeAMBMGA1UdJQQMMAoGCCsG
AQUFBwMCMB0GA1UdDgQWBBQgIkzFqI+TlhEyfzdB5L0gj3jjfTCBvAYDVR0jBIG0
MIGxgBSGT7htGCobPI8nNCnwgZ+6bmEO4aGBjaSBijCBhzELMAkGA1UEBhMCQ0gx
DDAKBgNVBAgTA1p1ZzEMMAoGA1UEBxMDWnVnMRgwFgYDVQQKEw9QZXJmZWN0IFBy
aXZhY3kxGDAWBgNVBAMTD1BlcmZlY3QgUHJpdmFjeTEoMCYGCSqGSIb3DQEJARYZ
YWRtaW5AcGVyZmVjdC1wcml2YWN5LmNvbYIJAPoRtcSqaa9pMA0GCSqGSIb3DQEB
DQUAA4ICAQB9epTBXRcTbPL2qf450avSwTsbX9gWjEzUuBR63pYodPU4yYvQL77j
AjRvnoQCEKZO8KTRmn/mn+1pd9PkEs0GU81PcpsZvzuojN4UqXk/JwvEaiOHsueU
4l/S0mjWGcSZ203OTh8n2qW9yCKQ0xtgR/S9bXBkKyFs6S42k79ZhqNo17tuQS25
qjVho//L/ryxHMve3kQbOM/o1Msk9Mc8opHAoKz1SvlTxl+njKpXU5ndW/mYdf95
cT71M9IBq5Vx2jRk6NE4GibLr5OTlWuEDG9rqp7gyZsavuD9Csf/dYl65kJ1SIMO
PJPOZCTypFthI4j2SCNj4sKgZqW3GaRezN70dP/HchVN7aIo6bRtp7xAjZgWzlD1
7GjnZq5NAX1SPIh5tuXTS3w+gA/lKy0TfFnWtTIz1cGPU94Q7JUYl8w3RvSt0quR
/XjVCn9n3usmfvF6ZQNSjfaNUY6caa+5HBrV64BBXN5WrHqmDrgnG08YkR1WfrSx
dfHbMwC2xYl4oVr1JWJJbzbflJ0j7JPk/xx+W662pLq5LEYLUq9DieuQ2VXVEJl8
F2o64y2dllDZmHymQeOa/lq5aP7GhnXH+YKIkyZVIMjZENjO2pX2cQkLvtZ5nPFF
rB/SHGaLESl7h2Zv4fLY2QrXUn1SN9dHTndDaWudg9YgKmt7JHcCMA==
-----END CERTIFICATE-----
