Certificate:
    Data:
        Version: 3 (0x2)
        Serial Number:
            f1:53:5d:d6:6b:21:8f:c2
    Signature Algorithm: sha512WithRSAEncryption
        Issuer: C=CH, ST=Zug, L=Zug, O=Perfect Privacy, CN=Perfect Privacy/emailAddress=admin@perfect-privacy.com
        Validity
            Not Before: Dec 31 00:00:00 2022 GMT
            Not After : Aug 27 00:00:00 2024 GMT
        Subject: C=CH, ST=Zug, O=Perfect Privacy, CN=Client_dallas.perfect-privacy.com/emailAddress=admin@perfect-privacy.com
        Subject Public Key Info:
            Public Key Algorithm: rsaEncryption
                Public-Key: (4096 bit)
                Modulus:
                    00:d2:e7:6f:73:3d:87:bb:46:67:54:76:b8:65:b3:
                    a0:e1:81:9a:e4:b6:a3:e3:cc:7d:41:cf:9b:fd:16:
                    21:2c:6d:44:be:0b:2d:36:76:38:4e:95:96:85:15:
                    c1:26:6e:04:ad:eb:ed:20:c1:dc:a0:3f:b9:84:8f:
                    84:5c:6d:6a:4a:9e:06:87:cb:96:01:87:46:5c:8d:
                    48:ef:5e:b6:d5:d5:43:42:9e:13:01:83:45:ff:28:
                    84:c5:f5:7a:24:e7:f3:6e:49:93:bb:db:12:2a:ab:
                    66:e6:2c:31:28:a3:0c:52:cb:9b:9b:d0:69:e4:eb:
                    ab:72:fe:4b:8a:0d:09:c7:af:12:05:de:8c:6c:3e:
                    f3:89:e7:32:c3:87:74:b6:11:43:87:51:5a:9f:4d:
                    ef:40:c2:4e:58:85:50:43:05:bf:f6:22:bc:cd:95:
                    02:b1:9a:b7:8e:03:90:fc:48:63:4c:24:cf:19:19:
                    2b:97:af:38:b2:e7:db:d5:ac:4f:51:1e:1d:8d:e1:
                    af:c4:a5:6d:3f:8a:d8:54:30:86:4f:3d:c8:43:17:
                    31:a2:05:fe:a0:b7:02:e3:41:db:57:79:d3:18:2b:
                    5e:05:0b:c0:60:a7:e6:54:6d:7e:5f:e2:c8:04:7c:
                    49:24:65:b2:67:49:33:f8:6c:29:d8:be:fb:fb:0b:
                    1b:fc:fc:d0:1a:8a:df:f5:f4:dc:75:0b:69:d2:8a:
                    2c:0e:f8:29:9c:e6:a5:09:c2:3b:8b:e3:35:d4:a8:
                    4e:93:a3:85:a6:0a:d7:cf:9d:4e:07:a1:0e:16:cc:
                    72:41:c3:dc:22:6e:dc:c0:8c:f6:5d:f1:f1:b9:df:
                    cc:32:fc:98:83:f4:9c:3a:2f:77:7b:71:89:8d:49:
                    b8:ed:fd:c6:9f:fd:34:64:23:0d:b0:0f:be:91:e6:
                    07:26:d4:6c:fd:e5:94:1f:24:d6:f7:ef:d5:32:7b:
                    75:6c:30:e0:b9:2a:bf:72:97:f5:ef:db:93:20:c8:
                    a6:9e:50:59:37:4c:79:d2:08:7d:3b:2b:22:f3:e0:
                    fd:96:7d:35:94:fd:53:2b:28:27:88:75:67:21:14:
                    fd:d6:fa:67:19:c8:f5:17:5d:37:0b:86:24:cf:3f:
                    54:94:08:75:84:44:e8:4f:7c:b1:27:f8:30:ef:c3:
                    ee:5a:77:41:40:13:be:6f:50:0e:d4:ce:10:45:60:
                    1f:d9:44:5d:06:60:a4:c8:e2:30:45:98:c7:bf:29:
                    7a:4c:d7:45:6c:06:e2:93:bc:c4:c7:87:b8:fc:a5:
                    c1:33:55:07:d1:96:4c:01:e3:dd:8d:0b:64:a7:60:
                    4f:e3:38:50:00:38:b9:ee:be:a2:00:2d:6b:ed:c2:
                    38:e1:8f
                Exponent: 65537 (0x10001)
        X509v3 extensions:
            X509v3 Basic Constraints: 
                CA:FALSE
            Netscape Comment: 
                VPN User Certificate
            Netscape Cert Type: 
                SSL Client
            X509v3 Key Usage: 
                Digital Signature
            X509v3 Extended Key Usage: 
                TLS Web Client Authentication
            X509v3 Subject Key Identifier: 
                33:F0:AF:EF:F9:C2:C4:BC:C0:0F:61:E5:2D:8E:34:E1:14:83:13:60
            X509v3 Authority Key Identifier: 
                keyid:86:4F:B8:6D:18:2A:1B:3C:8F:27:34:29:F0:81:9F:BA:6E:61:0E:E1
                DirName:/C=CH/ST=Zug/L=Zug/O=Perfect Privacy/CN=Perfect Privacy/emailAddress=admin@perfect-privacy.com
                serial:FA:11:B5:C4:AA:69:AF:69

    Signature Algorithm: sha512WithRSAEncryption
         88:2b:2e:c7:23:65:b6:6b:66:ed:ff:98:ab:87:4e:00:2b:20:
         a4:d6:ce:d4:da:57:e2:16:9d:ea:4b:ec:cf:36:8d:4c:98:17:
         fc:b1:1d:b7:50:b9:1d:bc:95:50:14:dc:07:fe:8e:10:d1:8f:
         7a:b7:68:6b:c8:33:8d:b0:7a:b8:d7:5c:51:1c:17:85:fb:a5:
         84:9d:a3:2d:dd:4b:3b:eb:fc:06:e7:08:2c:d9:c9:c7:98:e1:
         e6:fa:f3:81:e7:f8:c9:9e:33:57:1e:da:f9:78:8d:ca:5a:20:
         58:f8:fb:0d:66:45:c8:5b:dd:3c:c3:4d:60:8b:7f:3d:0e:50:
         51:cb:ae:22:a7:7c:08:64:e5:f2:29:47:04:f9:2c:ce:79:ae:
         16:18:95:23:ed:fd:b4:ee:1e:dc:5f:4d:7f:87:f8:3a:6e:5b:
         28:58:5e:07:2b:d7:16:14:d1:8c:3f:83:7f:35:ff:59:98:1e:
         b1:0c:48:ef:30:b2:be:a6:98:9b:28:46:70:4e:db:6e:65:42:
         f8:2b:c7:ed:ad:87:24:68:f9:ad:30:49:53:29:d1:00:33:c9:
         8e:14:0d:d1:69:a2:01:d7:23:60:60:d3:39:ce:78:43:58:72:
         7f:4b:c0:ac:ac:74:b5:24:32:b1:c2:8d:17:76:87:3c:f1:d2:
         27:ee:b3:6f:f1:f1:58:d1:bd:1f:96:78:fd:73:f0:cc:db:84:
         b9:71:2d:18:ca:2b:d0:b2:8d:c6:39:29:7d:f8:4b:48:de:28:
         b7:22:25:11:14:43:41:e7:2a:3a:18:cc:74:a2:7b:cf:17:a4:
         c4:9b:b5:f4:a4:af:11:d1:3b:19:28:ce:67:d6:87:1b:22:e7:
         24:73:35:35:bd:9f:bb:96:85:aa:9b:ec:2b:8c:94:f4:d5:80:
         6b:f9:a6:32:a5:c8:5d:5e:a9:e8:23:a0:92:3d:49:cd:ea:10:
         f6:a3:dd:54:e8:9b:63:be:76:5a:36:c1:6b:39:98:60:c9:28:
         48:0d:18:13:77:f1:ee:86:82:93:b7:fc:d3:02:98:6e:bd:82:
         6f:dc:84:66:12:02:3d:8d:76:51:cf:62:dd:a0:14:e6:ef:86:
         6c:b3:05:e8:18:94:81:f9:dd:bf:62:ee:ec:a7:6d:3c:b8:d2:
         3a:bf:08:0e:e3:62:0f:ff:f6:38:d6:f7:46:ef:21:08:3a:05:
         6c:dd:d6:bc:de:f5:b4:11:d6:a4:3d:0b:46:91:d4:ab:83:37:
         ea:fa:fe:dc:64:0e:f6:02:60:65:be:1a:f2:95:ad:bd:e6:0d:
         f7:b5:f6:4c:d6:df:63:c8:19:d3:dd:cc:42:8e:dc:b5:bb:f0:
         a2:c4:27:7f:ba:f7:23:9e
-----BEGIN CERTIFICATE-----
MIIG4DCCBMigAwIBAgIJAPFTXdZrIY/CMA0GCSqGSIb3DQEBDQUAMIGHMQswCQYD
VQQGEwJDSDEMMAoGA1UECBMDWnVnMQwwCgYDVQQHEwNadWcxGDAWBgNVBAoTD1Bl
cmZlY3QgUHJpdmFjeTEYMBYGA1UEAxMPUGVyZmVjdCBQcml2YWN5MSgwJgYJKoZI
hvcNAQkBFhlhZG1pbkBwZXJmZWN0LXByaXZhY3kuY29tMB4XDTIyMTIzMTAwMDAw
MFoXDTI0MDgyNzAwMDAwMFowgYsxCzAJBgNVBAYTAkNIMQwwCgYDVQQIEwNadWcx
GDAWBgNVBAoTD1BlcmZlY3QgUHJpdmFjeTEqMCgGA1UEAxQhQ2xpZW50X2RhbGxh
cy5wZXJmZWN0LXByaXZhY3kuY29tMSgwJgYJKoZIhvcNAQkBFhlhZG1pbkBwZXJm
ZWN0LXByaXZhY3kuY29tMIICIjANBgkqhkiG9w0BAQEFAAOCAg8AMIICCgKCAgEA
0udvcz2Hu0ZnVHa4ZbOg4YGa5Laj48x9Qc+b/RYhLG1EvgstNnY4TpWWhRXBJm4E
revtIMHcoD+5hI+EXG1qSp4Gh8uWAYdGXI1I71621dVDQp4TAYNF/yiExfV6JOfz
bkmTu9sSKqtm5iwxKKMMUsubm9Bp5Ourcv5Lig0Jx68SBd6MbD7ziecyw4d0thFD
h1Fan03vQMJOWIVQQwW/9iK8zZUCsZq3jgOQ/EhjTCTPGRkrl684sufb1axPUR4d
jeGvxKVtP4rYVDCGTz3IQxcxogX+oLcC40HbV3nTGCteBQvAYKfmVG1+X+LIBHxJ
JGWyZ0kz+Gwp2L77+wsb/PzQGorf9fTcdQtp0oosDvgpnOalCcI7i+M11KhOk6OF
pgrXz51OB6EOFsxyQcPcIm7cwIz2XfHxud/MMvyYg/ScOi93e3GJjUm47f3Gn/00
ZCMNsA++keYHJtRs/eWUHyTW9+/VMnt1bDDguSq/cpf179uTIMimnlBZN0x50gh9
Oysi8+D9ln01lP1TKygniHVnIRT91vpnGcj1F103C4Ykzz9UlAh1hEToT3yxJ/gw
78PuWndBQBO+b1AO1M4QRWAf2URdBmCkyOIwRZjHvyl6TNdFbAbik7zEx4e4/KXB
M1UH0ZZMAePdjQtkp2BP4zhQADi57r6iAC1r7cI44Y8CAwEAAaOCAUcwggFDMAkG
A1UdEwQCMAAwIwYJYIZIAYb4QgENBBYWFFZQTiBVc2VyIENlcnRpZmljYXRlMBEG
CWCGSAGG+EIBAQQEAwIHgDALBgNVHQ8EBAMCB4AwEwYDVR0lBAwwCgYIKwYBBQUH
AwIwHQYDVR0OBBYEFDPwr+/5wsS8wA9h5S2ONOEUgxNgMIG8BgNVHSMEgbQwgbGA
FIZPuG0YKhs8jyc0KfCBn7puYQ7hoYGNpIGKMIGHMQswCQYDVQQGEwJDSDEMMAoG
A1UECBMDWnVnMQwwCgYDVQQHEwNadWcxGDAWBgNVBAoTD1BlcmZlY3QgUHJpdmFj
eTEYMBYGA1UEAxMPUGVyZmVjdCBQcml2YWN5MSgwJgYJKoZIhvcNAQkBFhlhZG1p
bkBwZXJmZWN0LXByaXZhY3kuY29tggkA+hG1xKppr2kwDQYJKoZIhvcNAQENBQAD
ggIBAIgrLscjZbZrZu3/mKuHTgArIKTWztTaV+IWnepL7M82jUyYF/yxHbdQuR28
lVAU3Af+jhDRj3q3aGvIM42werjXXFEcF4X7pYSdoy3dSzvr/AbnCCzZyceY4eb6
84Hn+MmeM1ce2vl4jcpaIFj4+w1mRchb3TzDTWCLfz0OUFHLriKnfAhk5fIpRwT5
LM55rhYYlSPt/bTuHtxfTX+H+DpuWyhYXgcr1xYU0Yw/g381/1mYHrEMSO8wsr6m
mJsoRnBO225lQvgrx+2thyRo+a0wSVMp0QAzyY4UDdFpogHXI2Bg0znOeENYcn9L
wKysdLUkMrHCjRd2hzzx0ifus2/x8VjRvR+WeP1z8MzbhLlxLRjKK9CyjcY5KX34
S0jeKLciJREUQ0HnKjoYzHSie88XpMSbtfSkrxHROxkozmfWhxsi5yRzNTW9n7uW
haqb7CuMlPTVgGv5pjKlyF1eqegjoJI9Sc3qEPaj3VTom2O+dlo2wWs5mGDJKEgN
GBN38e6GgpO3/NMCmG69gm/chGYSAj2NdlHPYt2gFObvhmyzBegYlIH53b9i7uyn
bTy40jq/CA7jYg//9jjW90bvIQg6BWzd1rze9bQR1qQ9C0aR1KuDN+r6/txkDvYC
YGW+GvKVrb3mDfe19kzW32PIGdPdzEKO3LW78KLEJ3+69yOe
-----END CERTIFICATE-----
