Certificate:
    Data:
        Version: 3 (0x2)
        Serial Number:
            c4:5d:fc:db:03:6b:34:85
    Signature Algorithm: sha512WithRSAEncryption
        Issuer: C=CH, ST=Zug, L=Zug, O=Perfect Privacy, CN=Perfect Privacy/emailAddress=admin@perfect-privacy.com
        Validity
            Not Before: Jun 23 00:00:00 2023 GMT
            Not After : Feb 17 00:00:00 2025 GMT
        Subject: C=CH, ST=Zug, O=Perfect Privacy, CN=Client_dallas.perfect-privacy.com/emailAddress=admin@perfect-privacy.com
        Subject Public Key Info:
            Public Key Algorithm: rsaEncryption
                Public-Key: (4096 bit)
                Modulus:
                    00:e7:b1:ef:2a:3e:60:ac:94:fd:67:02:aa:24:9c:
                    da:f7:45:a9:dc:e6:92:d7:94:08:e8:aa:21:2d:8e:
                    c1:4b:17:93:f3:02:9f:0e:70:d1:cc:dc:5f:dd:3a:
                    cd:e6:29:03:7b:1e:88:37:7c:f2:85:04:02:0d:39:
                    6e:a1:f7:9d:10:14:d7:e2:18:c6:9a:40:34:ef:eb:
                    8b:85:ee:46:d3:b8:8d:38:b1:67:02:fa:f5:32:31:
                    55:7e:14:78:6d:fd:5c:2f:be:20:a3:0f:8e:f9:f7:
                    6e:d5:f2:37:fe:33:5e:27:39:d5:05:cd:6d:6e:66:
                    6f:40:6a:ce:f2:70:08:2c:57:5d:46:33:d4:cb:09:
                    5e:3f:57:92:6d:af:30:9c:84:5d:85:82:a8:61:7b:
                    20:04:4c:91:3a:64:7e:07:a0:9a:64:21:12:c0:40:
                    d4:08:56:d9:91:d3:ef:1c:bc:73:47:db:67:89:6e:
                    f6:58:2f:f2:cc:1b:7e:cf:f0:08:a8:90:04:51:ea:
                    d9:3f:99:a7:33:40:04:e6:3d:5b:00:b5:1f:a5:38:
                    a1:94:a6:d4:04:b7:7b:ea:78:45:20:c1:48:27:ad:
                    ca:80:1e:53:7e:43:c1:df:cb:e1:67:9f:47:c0:35:
                    c6:12:22:a7:1c:05:a3:1a:dc:35:bc:91:c6:be:e1:
                    e4:c4:a7:67:2f:e4:e7:74:45:d9:35:e5:c5:b6:55:
                    2c:30:aa:fd:ad:89:17:06:49:60:6c:97:d4:b6:c4:
                    de:0d:30:2a:e7:41:1d:be:e6:6a:43:d9:43:2e:6e:
                    cd:76:78:7e:60:13:f4:45:23:2b:06:dc:7d:7a:89:
                    85:16:0b:f1:e9:a7:51:a1:e8:7e:c9:28:c8:b5:bf:
                    cd:46:b7:50:54:31:7e:d0:7e:8d:99:92:c5:3e:c1:
                    1c:37:54:39:92:29:95:a6:4c:44:c5:68:e6:f8:72:
                    8b:fd:db:bf:c6:99:05:de:b9:3a:b2:47:25:38:e0:
                    00:bf:d1:d9:df:d8:92:fc:35:2e:fc:76:95:b1:ac:
                    6a:3e:9b:b2:fd:45:a9:88:e6:c0:16:5a:f2:dd:e7:
                    89:68:54:d4:23:e2:1c:3e:61:3e:e9:8e:d7:db:4f:
                    32:68:98:c9:a0:f1:fa:51:60:a5:60:1c:54:0b:22:
                    3a:c2:0d:c6:96:89:66:ca:39:76:c7:10:c5:44:f3:
                    02:b0:df:4e:02:75:82:d7:0c:dc:20:f5:a7:a9:2c:
                    dd:ad:6c:ae:d3:3a:17:9c:a5:9b:6d:35:d7:b5:12:
                    46:56:80:a5:f7:a6:84:ea:93:63:01:79:8c:59:9f:
                    5d:22:c6:ef:f2:a4:e6:05:7a:01:31:53:3a:fd:7c:
                    ca:f9:a3
                Exponent: 65537 (0x10001)
        X509v3 extensions:
            X509v3 Basic Constraints: 
                CA:FALSE
            Netscape Comment: 
                VPN User Certificate
            Netscape Cert Type: 
                SSL Client
            X509v3 Key Usage: 
                Digital Signature
            X509v3 Extended Key Usage: 
                TLS Web Client Authentication
            X509v3 Subject Key Identifier: 
                60:75:F5:37:9B:D0:4E:5F:C8:C6:73:10:69:E5:BB:09:9E:EC:3B:1D
            X509v3 Authority Key Identifier: 
                keyid:86:4F:B8:6D:18:2A:1B:3C:8F:27:34:29:F0:81:9F:BA:6E:61:0E:E1
                DirName:/C=CH/ST=Zug/L=Zug/O=Perfect Privacy/CN=Perfect Privacy/emailAddress=admin@perfect-privacy.com
                serial:FA:11:B5:C4:AA:69:AF:69

    Signature Algorithm: sha512WithRSAEncryption
         55:93:92:ac:3b:5a:21:c8:c6:c0:9d:d3:1c:1a:cd:63:bd:c5:
         69:f7:97:b9:89:c2:e7:5c:22:d4:00:87:9c:eb:b6:2f:6a:d0:
         97:75:05:fb:33:15:fb:9d:13:39:73:56:ed:66:4b:88:68:a6:
         47:65:a9:2f:24:00:ad:ad:6e:c2:f4:7c:84:d4:20:ee:fe:d2:
         d2:55:5d:e2:22:4f:a3:e3:4c:b0:e2:37:aa:59:5d:a6:40:ca:
         42:f9:24:c8:3b:de:76:9b:dc:54:4f:38:2c:c2:25:63:f2:82:
         97:e7:65:74:27:cf:4b:2c:d6:70:92:74:16:68:52:90:64:3f:
         97:44:91:4f:2c:5d:7a:29:25:bd:2d:5b:e2:9f:b2:17:fd:d2:
         c1:bc:4b:2b:0c:25:13:a9:ef:8f:e9:45:7d:94:7b:1d:cb:e4:
         b9:9c:d6:c0:79:69:fc:ce:4c:8a:7c:2c:f5:fc:a4:1e:88:02:
         32:ea:f0:b1:21:78:a1:67:9d:fd:c5:54:fc:3e:3d:2a:b1:48:
         b7:67:68:78:24:4b:ab:ae:5e:8b:e8:0b:a0:70:b1:8e:a5:b4:
         d8:f1:1b:e5:30:04:97:01:67:65:88:4b:5d:d8:bd:d9:98:f0:
         1c:da:40:02:4c:d6:1f:b8:22:73:85:33:2c:79:fb:17:d1:cd:
         44:94:79:2c:5c:7b:65:54:21:6b:3c:03:fd:23:62:db:09:48:
         1a:d5:1c:f8:cd:fd:29:7c:18:55:7f:e6:5b:a0:6f:96:da:77:
         14:5c:c4:9d:76:a0:b3:c8:65:cc:fd:c6:1c:80:03:3c:2f:80:
         e0:ad:ee:4e:35:ba:f4:ac:31:4a:df:a5:fc:52:83:b9:c3:09:
         9f:3a:94:9b:16:f0:4f:92:47:4f:57:0f:59:cd:11:66:1f:32:
         35:80:e8:f0:6a:a0:d5:50:fa:70:de:8a:1e:1c:27:55:55:e1:
         52:bd:aa:a9:4c:8e:c7:20:1b:a8:f3:a3:83:ab:fb:a7:42:4f:
         96:cf:ed:31:88:bf:c4:eb:34:08:8e:da:9c:5e:b9:24:35:3b:
         f6:f1:b5:5b:8b:54:0f:5c:3f:9d:07:1c:f9:34:dd:5d:9a:61:
         b8:33:df:3e:69:a3:67:ad:a4:04:15:cd:43:7a:59:1e:95:2a:
         a2:a6:b6:c9:56:80:66:4b:a0:34:9c:a9:2c:88:f8:7f:ff:9f:
         91:b6:8b:ad:65:27:f3:a8:28:0f:93:a0:fe:39:20:bd:39:6d:
         52:95:7b:52:3d:34:02:fc:5d:85:e7:04:c7:56:bb:af:95:cd:
         26:63:aa:09:eb:d2:0c:b6:89:b1:7f:af:52:80:57:e2:54:71:
         38:9f:eb:8f:da:fc:07:26
-----BEGIN CERTIFICATE-----
MIIG4DCCBMigAwIBAgIJAMRd/NsDazSFMA0GCSqGSIb3DQEBDQUAMIGHMQswCQYD
VQQGEwJDSDEMMAoGA1UECBMDWnVnMQwwCgYDVQQHEwNadWcxGDAWBgNVBAoTD1Bl
cmZlY3QgUHJpdmFjeTEYMBYGA1UEAxMPUGVyZmVjdCBQcml2YWN5MSgwJgYJKoZI
hvcNAQkBFhlhZG1pbkBwZXJmZWN0LXByaXZhY3kuY29tMB4XDTIzMDYyMzAwMDAw
MFoXDTI1MDIxNzAwMDAwMFowgYsxCzAJBgNVBAYTAkNIMQwwCgYDVQQIEwNadWcx
GDAWBgNVBAoTD1BlcmZlY3QgUHJpdmFjeTEqMCgGA1UEAxQhQ2xpZW50X2RhbGxh
cy5wZXJmZWN0LXByaXZhY3kuY29tMSgwJgYJKoZIhvcNAQkBFhlhZG1pbkBwZXJm
ZWN0LXByaXZhY3kuY29tMIICIjANBgkqhkiG9w0BAQEFAAOCAg8AMIICCgKCAgEA
57HvKj5grJT9ZwKqJJza90Wp3OaS15QI6KohLY7BSxeT8wKfDnDRzNxf3TrN5ikD
ex6IN3zyhQQCDTluofedEBTX4hjGmkA07+uLhe5G07iNOLFnAvr1MjFVfhR4bf1c
L74gow+O+fdu1fI3/jNeJznVBc1tbmZvQGrO8nAILFddRjPUywleP1eSba8wnIRd
hYKoYXsgBEyROmR+B6CaZCESwEDUCFbZkdPvHLxzR9tniW72WC/yzBt+z/AIqJAE
UerZP5mnM0AE5j1bALUfpTihlKbUBLd76nhFIMFIJ63KgB5TfkPB38vhZ59HwDXG
EiKnHAWjGtw1vJHGvuHkxKdnL+TndEXZNeXFtlUsMKr9rYkXBklgbJfUtsTeDTAq
50EdvuZqQ9lDLm7Ndnh+YBP0RSMrBtx9eomFFgvx6adRoeh+ySjItb/NRrdQVDF+
0H6NmZLFPsEcN1Q5kimVpkxExWjm+HKL/du/xpkF3rk6skclOOAAv9HZ39iS/DUu
/HaVsaxqPpuy/UWpiObAFlry3eeJaFTUI+IcPmE+6Y7X208yaJjJoPH6UWClYBxU
CyI6wg3Glolmyjl2xxDFRPMCsN9OAnWC1wzcIPWnqSzdrWyu0zoXnKWbbTXXtRJG
VoCl96aE6pNjAXmMWZ9dIsbv8qTmBXoBMVM6/XzK+aMCAwEAAaOCAUcwggFDMAkG
A1UdEwQCMAAwIwYJYIZIAYb4QgENBBYWFFZQTiBVc2VyIENlcnRpZmljYXRlMBEG
CWCGSAGG+EIBAQQEAwIHgDALBgNVHQ8EBAMCB4AwEwYDVR0lBAwwCgYIKwYBBQUH
AwIwHQYDVR0OBBYEFGB19Teb0E5fyMZzEGnluwme7DsdMIG8BgNVHSMEgbQwgbGA
FIZPuG0YKhs8jyc0KfCBn7puYQ7hoYGNpIGKMIGHMQswCQYDVQQGEwJDSDEMMAoG
A1UECBMDWnVnMQwwCgYDVQQHEwNadWcxGDAWBgNVBAoTD1BlcmZlY3QgUHJpdmFj
eTEYMBYGA1UEAxMPUGVyZmVjdCBQcml2YWN5MSgwJgYJKoZIhvcNAQkBFhlhZG1p
bkBwZXJmZWN0LXByaXZhY3kuY29tggkA+hG1xKppr2kwDQYJKoZIhvcNAQENBQAD
ggIBAFWTkqw7WiHIxsCd0xwazWO9xWn3l7mJwudcItQAh5zrti9q0Jd1BfszFfud
EzlzVu1mS4hopkdlqS8kAK2tbsL0fITUIO7+0tJVXeIiT6PjTLDiN6pZXaZAykL5
JMg73nab3FRPOCzCJWPygpfnZXQnz0ss1nCSdBZoUpBkP5dEkU8sXXopJb0tW+Kf
shf90sG8SysMJROp74/pRX2Uex3L5Lmc1sB5afzOTIp8LPX8pB6IAjLq8LEheKFn
nf3FVPw+PSqxSLdnaHgkS6uuXovoC6BwsY6ltNjxG+UwBJcBZ2WIS13YvdmY8Bza
QAJM1h+4InOFMyx5+xfRzUSUeSxce2VUIWs8A/0jYtsJSBrVHPjN/Sl8GFV/5lug
b5badxRcxJ12oLPIZcz9xhyAAzwvgOCt7k41uvSsMUrfpfxSg7nDCZ86lJsW8E+S
R09XD1nNEWYfMjWA6PBqoNVQ+nDeih4cJ1VV4VK9qqlMjscgG6jzo4Or+6dCT5bP
7TGIv8TrNAiO2pxeuSQ1O/bxtVuLVA9cP50HHPk03V2aYbgz3z5po2etpAQVzUN6
WR6VKqKmtslWgGZLoDScqSyI+H//n5G2i61lJ/OoKA+ToP45IL05bVKVe1I9NAL8
XYXnBMdWu6+VzSZjqgnr0gy2ibF/r1KAV+JUcTif64/a/Acm
-----END CERTIFICATE-----
