Certificate:
    Data:
        Version: 3 (0x2)
        Serial Number: 5661110631609860936 (0x4e904e20274b0348)
    Signature Algorithm: sha512WithRSAEncryption
        Issuer: C=CH, ST=Zug, L=Zug, O=Perfect Privacy, CN=Perfect Privacy/emailAddress=admin@perfect-privacy.com
        Validity
            Not Before: Feb 26 00:00:00 2023 GMT
            Not After : Oct 23 00:00:00 2024 GMT
        Subject: C=CH, ST=Zug, O=Perfect Privacy, CN=Client_dallas.perfect-privacy.com/emailAddress=admin@perfect-privacy.com
        Subject Public Key Info:
            Public Key Algorithm: rsaEncryption
                Public-Key: (4096 bit)
                Modulus:
                    00:b2:1c:d8:b4:98:35:fc:1b:d1:cc:3f:53:32:3f:
                    2d:9a:d8:d7:c5:d9:de:e3:21:ea:d2:32:07:c1:2d:
                    53:35:61:c3:63:ff:07:bb:f9:ed:e0:e7:8c:de:86:
                    e9:da:5b:0d:db:c0:e8:bc:cf:96:7e:ec:87:45:bd:
                    2a:72:3d:d4:ba:e4:4b:c2:6a:d0:e7:70:74:2d:6f:
                    f1:8e:cd:46:7c:59:da:e8:e8:86:73:dc:5e:b7:ba:
                    d0:4d:ad:3d:59:d2:8f:48:24:57:41:1f:03:84:05:
                    25:b2:b5:8c:f4:c0:77:66:72:74:4f:ea:f5:32:25:
                    37:b1:84:46:7e:3f:8d:d6:bc:91:2c:e9:96:55:e8:
                    dc:d2:12:60:88:0f:f1:e1:b2:98:4c:d4:6a:f6:3e:
                    a2:d8:4b:2f:8d:ce:9b:74:56:a9:19:c0:17:4b:b4:
                    0b:15:95:d9:c8:1b:41:d8:49:31:31:cb:a6:e1:0a:
                    18:03:8e:5a:e1:2e:dd:56:90:a0:19:4e:34:12:2c:
                    53:cd:97:02:8f:a2:c2:c9:1c:d8:52:95:88:21:77:
                    fd:9c:11:4f:ac:a7:41:0c:fe:f3:fd:d2:68:09:a6:
                    85:90:40:61:9b:08:26:aa:b1:88:d0:eb:1e:8f:20:
                    55:37:13:a4:07:4c:55:48:0d:64:79:1d:47:2d:d4:
                    23:82:4e:30:a9:36:d3:d8:1b:d3:54:cf:d5:3a:a7:
                    13:88:c1:b9:75:4a:60:62:28:a9:75:7e:29:2b:27:
                    1b:7b:fd:da:2b:85:10:aa:49:d9:6b:88:bc:c8:41:
                    2b:94:8c:8e:2b:1b:f5:af:75:e2:57:36:85:22:e7:
                    0d:ec:16:50:50:35:e7:54:97:e0:64:4a:47:17:94:
                    67:f1:32:95:6d:bd:41:8c:ff:e7:12:79:86:31:91:
                    42:13:b2:8c:c6:32:22:6b:6c:dd:bb:aa:45:14:f1:
                    e7:fd:d0:7b:2b:e9:4f:b9:7b:81:bd:96:d4:00:f7:
                    27:91:57:78:7b:94:71:c3:b1:a1:39:e7:f6:2c:20:
                    ee:65:53:96:65:43:1b:63:c4:41:76:4f:6c:65:64:
                    12:76:ca:4c:2e:43:d5:f8:09:d9:a2:cd:b7:bc:08:
                    cb:d6:58:f4:84:13:84:a8:f6:78:6c:0b:a8:0a:e4:
                    f8:45:68:29:f9:30:2a:d2:fd:a8:a9:80:d0:98:80:
                    11:f7:93:e3:88:07:3f:24:71:40:1b:42:ef:94:d7:
                    2f:9e:30:23:97:ad:fe:01:13:e2:92:a1:b2:17:c3:
                    9b:58:7d:3b:e0:2f:59:dd:e4:18:ae:5f:06:3d:e0:
                    62:7e:4e:7a:41:3f:81:05:96:19:b6:59:09:e7:41:
                    46:ce:ed
                Exponent: 65537 (0x10001)
        X509v3 extensions:
            X509v3 Basic Constraints: 
                CA:FALSE
            Netscape Comment: 
                VPN User Certificate
            Netscape Cert Type: 
                SSL Client
            X509v3 Key Usage: 
                Digital Signature
            X509v3 Extended Key Usage: 
                TLS Web Client Authentication
            X509v3 Subject Key Identifier: 
                93:DA:05:50:23:19:FE:E3:66:4C:7D:11:E6:FD:ED:2E:F6:2E:10:7F
            X509v3 Authority Key Identifier: 
                keyid:86:4F:B8:6D:18:2A:1B:3C:8F:27:34:29:F0:81:9F:BA:6E:61:0E:E1
                DirName:/C=CH/ST=Zug/L=Zug/O=Perfect Privacy/CN=Perfect Privacy/emailAddress=admin@perfect-privacy.com
                serial:FA:11:B5:C4:AA:69:AF:69

    Signature Algorithm: sha512WithRSAEncryption
         65:11:5c:d0:43:cb:28:db:4c:14:96:25:ec:3e:0a:70:60:04:
         07:34:5e:2b:ec:53:ea:88:e4:00:b7:64:b0:27:fd:ee:58:f4:
         17:d0:37:29:5a:9a:ec:70:b5:15:c5:2a:c1:99:9a:5a:ed:4c:
         6d:ff:e5:40:8e:3c:61:4a:44:b2:e6:67:98:f8:a5:d8:e6:06:
         88:cb:80:75:b1:9a:34:06:33:65:89:01:ea:a9:d7:71:80:b6:
         8c:93:91:d4:6d:98:6b:fe:1d:54:c7:9b:b3:41:fe:fc:e2:72:
         2e:91:fa:a6:a3:34:ff:d6:11:5c:f2:66:8b:b7:19:40:1d:d0:
         d5:22:17:31:37:f8:55:0a:68:55:2c:4f:e6:f8:9f:ac:04:7a:
         a1:99:91:02:59:fc:f2:a7:12:34:c5:d1:44:46:36:c6:03:3e:
         a1:3a:f6:08:ee:a6:14:6f:e3:59:78:f4:93:3a:0e:a5:9d:00:
         e5:6f:96:44:de:ec:0b:7f:5f:b0:32:2d:0d:11:56:39:97:ae:
         56:68:f0:65:60:f9:98:9d:d6:1b:89:8b:aa:48:24:9a:a1:3a:
         ec:2c:fe:1e:48:bc:2a:4b:94:9e:f8:2f:05:ba:ba:fe:49:68:
         31:7e:f2:f4:8b:a0:6b:2b:e1:39:fe:99:a3:63:b0:0f:6f:6f:
         46:0c:d2:d8:b2:0f:d3:98:c5:e1:7e:78:4c:0a:3a:49:a9:b9:
         4f:ad:28:81:53:f8:a8:bf:a6:5a:d2:fa:5d:24:74:e3:df:c2:
         38:80:53:22:9b:7e:d2:75:14:d0:9a:e9:06:75:10:fb:7a:d4:
         e8:bd:32:70:c1:ba:8c:8c:43:96:90:08:cf:9f:d1:07:4f:b9:
         bc:04:e4:cf:45:8b:bf:78:d7:64:00:2a:4d:43:c6:e8:87:14:
         c2:01:bc:b5:95:4c:21:73:1c:a0:01:bc:11:5f:b1:b4:7b:e3:
         4a:d6:9f:1d:cd:8c:9b:04:cf:06:4e:fb:be:6c:84:4c:a1:04:
         3b:90:d2:06:b5:24:2a:4c:55:c5:91:30:75:35:01:47:6e:4b:
         2b:bc:e8:c1:93:db:78:c3:e0:47:40:b7:93:6f:ce:63:98:be:
         d6:bb:b8:ba:21:01:30:57:99:2e:4b:6b:50:9c:8b:99:98:65:
         10:22:7e:4e:93:a2:b4:98:66:1a:f5:5e:2e:40:4a:40:29:51:
         e3:53:37:f0:76:05:aa:61:2f:36:5c:2c:5a:52:4f:fb:a6:be:
         29:b2:88:fe:a0:b0:c5:41:a1:fc:45:3d:0f:5e:d9:9b:72:e2:
         41:00:aa:b6:90:0c:d3:d0:94:1c:56:6a:93:81:24:57:19:c3:
         5b:2c:72:16:e7:4f:f2:2a
-----BEGIN CERTIFICATE-----
MIIG3zCCBMegAwIBAgIITpBOICdLA0gwDQYJKoZIhvcNAQENBQAwgYcxCzAJBgNV
BAYTAkNIMQwwCgYDVQQIEwNadWcxDDAKBgNVBAcTA1p1ZzEYMBYGA1UEChMPUGVy
ZmVjdCBQcml2YWN5MRgwFgYDVQQDEw9QZXJmZWN0IFByaXZhY3kxKDAmBgkqhkiG
9w0BCQEWGWFkbWluQHBlcmZlY3QtcHJpdmFjeS5jb20wHhcNMjMwMjI2MDAwMDAw
WhcNMjQxMDIzMDAwMDAwWjCBizELMAkGA1UEBhMCQ0gxDDAKBgNVBAgTA1p1ZzEY
MBYGA1UEChMPUGVyZmVjdCBQcml2YWN5MSowKAYDVQQDFCFDbGllbnRfZGFsbGFz
LnBlcmZlY3QtcHJpdmFjeS5jb20xKDAmBgkqhkiG9w0BCQEWGWFkbWluQHBlcmZl
Y3QtcHJpdmFjeS5jb20wggIiMA0GCSqGSIb3DQEBAQUAA4ICDwAwggIKAoICAQCy
HNi0mDX8G9HMP1MyPy2a2NfF2d7jIerSMgfBLVM1YcNj/we7+e3g54zehunaWw3b
wOi8z5Z+7IdFvSpyPdS65EvCatDncHQtb/GOzUZ8Wdro6IZz3F63utBNrT1Z0o9I
JFdBHwOEBSWytYz0wHdmcnRP6vUyJTexhEZ+P43WvJEs6ZZV6NzSEmCID/HhsphM
1Gr2PqLYSy+Nzpt0VqkZwBdLtAsVldnIG0HYSTExy6bhChgDjlrhLt1WkKAZTjQS
LFPNlwKPosLJHNhSlYghd/2cEU+sp0EM/vP90mgJpoWQQGGbCCaqsYjQ6x6PIFU3
E6QHTFVIDWR5HUct1COCTjCpNtPYG9NUz9U6pxOIwbl1SmBiKKl1fikrJxt7/dor
hRCqSdlriLzIQSuUjI4rG/WvdeJXNoUi5w3sFlBQNedUl+BkSkcXlGfxMpVtvUGM
/+cSeYYxkUITsozGMiJrbN27qkUU8ef90Hsr6U+5e4G9ltQA9yeRV3h7lHHDsaE5
5/YsIO5lU5ZlQxtjxEF2T2xlZBJ2ykwuQ9X4Cdmizbe8CMvWWPSEE4So9nhsC6gK
5PhFaCn5MCrS/aipgNCYgBH3k+OIBz8kcUAbQu+U1y+eMCOXrf4BE+KSobIXw5tY
fTvgL1nd5BiuXwY94GJ+TnpBP4EFlhm2WQnnQUbO7QIDAQABo4IBRzCCAUMwCQYD
VR0TBAIwADAjBglghkgBhvhCAQ0EFhYUVlBOIFVzZXIgQ2VydGlmaWNhdGUwEQYJ
YIZIAYb4QgEBBAQDAgeAMAsGA1UdDwQEAwIHgDATBgNVHSUEDDAKBggrBgEFBQcD
AjAdBgNVHQ4EFgQUk9oFUCMZ/uNmTH0R5v3tLvYuEH8wgbwGA1UdIwSBtDCBsYAU
hk+4bRgqGzyPJzQp8IGfum5hDuGhgY2kgYowgYcxCzAJBgNVBAYTAkNIMQwwCgYD
VQQIEwNadWcxDDAKBgNVBAcTA1p1ZzEYMBYGA1UEChMPUGVyZmVjdCBQcml2YWN5
MRgwFgYDVQQDEw9QZXJmZWN0IFByaXZhY3kxKDAmBgkqhkiG9w0BCQEWGWFkbWlu
QHBlcmZlY3QtcHJpdmFjeS5jb22CCQD6EbXEqmmvaTANBgkqhkiG9w0BAQ0FAAOC
AgEAZRFc0EPLKNtMFJYl7D4KcGAEBzReK+xT6ojkALdksCf97lj0F9A3KVqa7HC1
FcUqwZmaWu1Mbf/lQI48YUpEsuZnmPil2OYGiMuAdbGaNAYzZYkB6qnXcYC2jJOR
1G2Ya/4dVMebs0H+/OJyLpH6pqM0/9YRXPJmi7cZQB3Q1SIXMTf4VQpoVSxP5vif
rAR6oZmRAln88qcSNMXRREY2xgM+oTr2CO6mFG/jWXj0kzoOpZ0A5W+WRN7sC39f
sDItDRFWOZeuVmjwZWD5mJ3WG4mLqkgkmqE67Cz+Hki8KkuUnvgvBbq6/kloMX7y
9IugayvhOf6Zo2OwD29vRgzS2LIP05jF4X54TAo6Sam5T60ogVP4qL+mWtL6XSR0
49/COIBTIpt+0nUU0JrpBnUQ+3rU6L0ycMG6jIxDlpAIz5/RB0+5vATkz0WLv3jX
ZAAqTUPG6IcUwgG8tZVMIXMcoAG8EV+xtHvjStafHc2MmwTPBk77vmyETKEEO5DS
BrUkKkxVxZEwdTUBR25LK7zowZPbeMPgR0C3k2/OY5i+1ru4uiEBMFeZLktrUJyL
mZhlECJ+TpOitJhmGvVeLkBKQClR41M38HYFqmEvNlwsWlJP+6a+KbKI/qCwxUGh
/EU9D17Zm3LiQQCqtpAM09CUHFZqk4EkVxnDWyxyFudP8io=
-----END CERTIFICATE-----
