Certificate:
    Data:
        Version: 3 (0x2)
        Serial Number:
            fd:50:61:81:77:20:30:2c
    Signature Algorithm: sha512WithRSAEncryption
        Issuer: C=CH, ST=Zug, L=Zug, O=Perfect Privacy, CN=Perfect Privacy/emailAddress=admin@perfect-privacy.com
        Validity
            Not Before: Jul  3 00:00:00 2023 GMT
            Not After : Feb 27 00:00:00 2025 GMT
        Subject: C=CH, ST=Zug, O=Perfect Privacy, CN=Client_erfurt.perfect-privacy.com/emailAddress=admin@perfect-privacy.com
        Subject Public Key Info:
            Public Key Algorithm: rsaEncryption
                Public-Key: (4096 bit)
                Modulus:
                    00:d1:2d:05:d7:af:9a:1d:24:d2:01:28:44:2b:70:
                    25:b3:10:03:5f:b6:3b:b5:63:38:b6:43:4e:8c:09:
                    4f:e7:a4:b2:5a:ba:33:d5:78:e8:c9:9c:f9:f8:94:
                    ec:4a:78:99:18:79:e9:97:a1:62:16:04:17:b3:fc:
                    37:56:0d:45:6e:38:39:26:9e:4f:6f:e9:23:30:ac:
                    97:f8:a0:71:d6:b5:d5:04:b8:dd:02:ab:ce:07:ad:
                    5a:45:63:1c:da:90:c9:43:17:d6:90:55:97:c7:40:
                    8b:ef:0d:06:2c:80:85:48:27:4e:5d:1e:1a:a1:14:
                    9f:81:b9:8c:d5:16:6e:52:77:e7:e0:b7:3b:7c:e1:
                    ac:bd:d6:f7:ea:3f:2c:e1:4d:f3:ba:81:55:5e:06:
                    15:24:0e:fd:1d:b8:59:1e:bb:b3:55:d5:81:69:c4:
                    92:9f:50:54:88:87:be:fc:0b:ca:c3:32:8d:9d:cd:
                    93:12:3a:f9:dc:5e:a0:7e:f6:9d:d7:91:49:a8:36:
                    85:50:35:d0:63:2d:f9:35:2e:c2:3b:94:0f:7c:fd:
                    eb:85:8e:39:e5:72:63:47:1d:0c:62:c4:67:3c:2c:
                    93:5b:48:c4:e2:6f:c0:c0:52:02:dd:53:df:56:45:
                    e7:95:d6:07:28:06:58:69:d3:94:7d:be:5e:94:a1:
                    f8:15:ea:da:bc:57:5b:df:d6:4c:85:86:3e:38:f7:
                    3b:46:fc:ac:32:fc:7f:88:c0:77:06:95:4d:10:82:
                    48:24:ee:ae:54:ec:5c:98:42:2f:94:d3:65:ed:6b:
                    87:44:1f:38:ff:af:6d:1f:a6:94:f5:92:a6:19:3d:
                    97:fc:6f:d1:df:fc:40:8a:a5:d5:d6:1e:7c:8f:76:
                    9f:d1:58:35:fc:1b:6a:50:06:8c:bd:5a:c1:e6:90:
                    f7:14:19:12:33:0e:64:27:ba:9f:83:5d:2c:aa:06:
                    c3:89:c4:43:54:6a:a5:1f:cc:f0:9b:f0:3f:c4:67:
                    bd:07:b3:b0:ad:9d:04:a2:d7:f4:1d:e3:23:fc:9e:
                    e3:6a:0c:c9:b9:03:48:16:8c:71:e5:1d:05:0e:39:
                    7b:5c:b3:05:6c:3d:37:e1:ba:b1:03:c7:86:80:cf:
                    2b:6d:7c:04:63:3c:9f:33:0a:51:9a:24:2b:09:34:
                    9d:14:34:10:ab:d4:9a:78:e5:08:da:68:97:23:8b:
                    03:79:c8:31:ff:46:1a:df:32:c3:d0:16:49:39:06:
                    7a:34:9d:fd:d3:81:2c:6a:4a:99:de:97:38:10:42:
                    67:7e:c1:d2:82:07:f7:3e:51:18:b9:eb:6b:c4:4b:
                    da:dd:f1:62:83:57:fc:9b:65:6d:b1:9e:21:6f:f5:
                    1f:01:5d
                Exponent: 65537 (0x10001)
        X509v3 extensions:
            X509v3 Basic Constraints: 
                CA:FALSE
            Netscape Comment: 
                VPN User Certificate
            Netscape Cert Type: 
                SSL Client
            X509v3 Key Usage: 
                Digital Signature
            X509v3 Extended Key Usage: 
                TLS Web Client Authentication
            X509v3 Subject Key Identifier: 
                27:9A:B4:39:33:E5:DD:52:79:3B:1D:05:15:21:77:9D:D4:1E:38:57
            X509v3 Authority Key Identifier: 
                keyid:86:4F:B8:6D:18:2A:1B:3C:8F:27:34:29:F0:81:9F:BA:6E:61:0E:E1
                DirName:/C=CH/ST=Zug/L=Zug/O=Perfect Privacy/CN=Perfect Privacy/emailAddress=admin@perfect-privacy.com
                serial:FA:11:B5:C4:AA:69:AF:69

    Signature Algorithm: sha512WithRSAEncryption
         91:e4:34:ec:58:4f:b4:46:18:90:23:bb:2c:33:f6:36:a9:b3:
         89:79:92:1e:47:c5:4a:d1:25:9d:4f:d0:1d:b2:fb:0e:69:88:
         cc:80:cb:10:e4:39:78:27:36:34:49:21:b4:34:ac:a8:c4:a8:
         85:57:51:6b:27:2b:0d:58:90:d4:ae:6e:eb:83:b5:c0:c9:39:
         e9:50:af:a7:cb:84:b3:89:7e:1f:c1:a7:52:a9:52:70:2f:fa:
         66:7c:f6:8c:df:2b:ba:47:a2:5d:20:74:e4:34:0d:78:d0:86:
         e7:63:9d:fe:2d:69:81:eb:e3:62:6d:fe:92:ca:f8:3f:2d:a4:
         f9:d8:2f:6f:7b:43:23:e0:d3:38:e8:9d:8b:a1:53:b8:8c:1e:
         0b:00:6c:a9:bf:95:ae:77:35:bc:13:0b:d0:b8:6f:ed:c2:08:
         b7:5c:4f:bb:82:d2:ed:c5:85:99:40:ee:77:f3:bc:ae:dd:b7:
         42:42:4f:7d:94:1e:f2:8f:86:1d:ab:a8:3e:23:00:d8:89:f6:
         9d:ee:56:19:f9:32:e2:08:36:79:1a:dd:b6:3d:f2:4d:7d:ad:
         cd:9d:d0:39:0b:a4:67:29:b9:ac:dd:11:4f:45:51:ea:81:5f:
         64:2d:98:0f:9b:09:bb:ea:4a:a6:1f:df:28:4b:4a:b4:a8:80:
         d4:12:7b:04:01:ed:b4:5e:11:cd:b9:99:0b:ea:a7:69:9e:51:
         6a:35:7e:66:b4:53:88:1a:76:7c:eb:1a:75:92:fd:ff:dd:71:
         5c:6e:0c:2e:ff:52:2d:90:fc:7c:f1:50:5f:50:d5:8a:2e:33:
         7a:a4:48:18:ec:4e:de:95:54:4d:2e:81:97:5a:84:cb:79:3f:
         dc:26:6c:74:1d:0a:ae:28:95:06:aa:ef:e2:05:3d:9c:f5:86:
         81:56:1f:38:a2:47:03:b6:29:bf:0e:45:dc:2d:77:40:99:e9:
         8e:dd:d6:fb:ce:0d:84:22:7b:50:f5:cc:b8:77:5f:1a:5e:18:
         fe:41:d5:d9:c7:af:79:d2:ed:bc:67:0d:66:95:5c:44:80:1b:
         e8:79:e6:08:e2:cc:5d:3d:ff:9b:e6:71:7e:da:2e:13:43:0d:
         92:43:fc:74:f8:ac:c8:71:e1:53:49:e6:60:fb:c8:ca:82:e3:
         81:52:b2:b7:87:c7:2c:10:87:d1:2d:42:cd:0a:d5:47:e8:4e:
         01:12:76:9e:9c:33:80:31:6a:fc:0f:20:d5:28:2c:a3:70:a7:
         67:26:69:25:5f:46:ce:1e:e8:09:70:7e:01:03:62:d2:ff:75:
         cd:66:fa:8c:49:4c:02:86:89:fd:f4:7a:92:90:9e:52:81:d8:
         bc:0b:e9:4c:a5:7b:40:9e
-----BEGIN CERTIFICATE-----
MIIG4DCCBMigAwIBAgIJAP1QYYF3IDAsMA0GCSqGSIb3DQEBDQUAMIGHMQswCQYD
VQQGEwJDSDEMMAoGA1UECBMDWnVnMQwwCgYDVQQHEwNadWcxGDAWBgNVBAoTD1Bl
cmZlY3QgUHJpdmFjeTEYMBYGA1UEAxMPUGVyZmVjdCBQcml2YWN5MSgwJgYJKoZI
hvcNAQkBFhlhZG1pbkBwZXJmZWN0LXByaXZhY3kuY29tMB4XDTIzMDcwMzAwMDAw
MFoXDTI1MDIyNzAwMDAwMFowgYsxCzAJBgNVBAYTAkNIMQwwCgYDVQQIEwNadWcx
GDAWBgNVBAoTD1BlcmZlY3QgUHJpdmFjeTEqMCgGA1UEAxQhQ2xpZW50X2VyZnVy
dC5wZXJmZWN0LXByaXZhY3kuY29tMSgwJgYJKoZIhvcNAQkBFhlhZG1pbkBwZXJm
ZWN0LXByaXZhY3kuY29tMIICIjANBgkqhkiG9w0BAQEFAAOCAg8AMIICCgKCAgEA
0S0F16+aHSTSAShEK3AlsxADX7Y7tWM4tkNOjAlP56SyWroz1XjoyZz5+JTsSniZ
GHnpl6FiFgQXs/w3Vg1Fbjg5Jp5Pb+kjMKyX+KBx1rXVBLjdAqvOB61aRWMc2pDJ
QxfWkFWXx0CL7w0GLICFSCdOXR4aoRSfgbmM1RZuUnfn4Lc7fOGsvdb36j8s4U3z
uoFVXgYVJA79HbhZHruzVdWBacSSn1BUiIe+/AvKwzKNnc2TEjr53F6gfvad15FJ
qDaFUDXQYy35NS7CO5QPfP3rhY455XJjRx0MYsRnPCyTW0jE4m/AwFIC3VPfVkXn
ldYHKAZYadOUfb5elKH4FeravFdb39ZMhYY+OPc7RvysMvx/iMB3BpVNEIJIJO6u
VOxcmEIvlNNl7WuHRB84/69tH6aU9ZKmGT2X/G/R3/xAiqXV1h58j3af0Vg1/Btq
UAaMvVrB5pD3FBkSMw5kJ7qfg10sqgbDicRDVGqlH8zwm/A/xGe9B7OwrZ0Eotf0
HeMj/J7jagzJuQNIFoxx5R0FDjl7XLMFbD034bqxA8eGgM8rbXwEYzyfMwpRmiQr
CTSdFDQQq9SaeOUI2miXI4sDecgx/0Ya3zLD0BZJOQZ6NJ3904EsakqZ3pc4EEJn
fsHSggf3PlEYuetrxEva3fFig1f8m2VtsZ4hb/UfAV0CAwEAAaOCAUcwggFDMAkG
A1UdEwQCMAAwIwYJYIZIAYb4QgENBBYWFFZQTiBVc2VyIENlcnRpZmljYXRlMBEG
CWCGSAGG+EIBAQQEAwIHgDALBgNVHQ8EBAMCB4AwEwYDVR0lBAwwCgYIKwYBBQUH
AwIwHQYDVR0OBBYEFCeatDkz5d1SeTsdBRUhd53UHjhXMIG8BgNVHSMEgbQwgbGA
FIZPuG0YKhs8jyc0KfCBn7puYQ7hoYGNpIGKMIGHMQswCQYDVQQGEwJDSDEMMAoG
A1UECBMDWnVnMQwwCgYDVQQHEwNadWcxGDAWBgNVBAoTD1BlcmZlY3QgUHJpdmFj
eTEYMBYGA1UEAxMPUGVyZmVjdCBQcml2YWN5MSgwJgYJKoZIhvcNAQkBFhlhZG1p
bkBwZXJmZWN0LXByaXZhY3kuY29tggkA+hG1xKppr2kwDQYJKoZIhvcNAQENBQAD
ggIBAJHkNOxYT7RGGJAjuywz9japs4l5kh5HxUrRJZ1P0B2y+w5piMyAyxDkOXgn
NjRJIbQ0rKjEqIVXUWsnKw1YkNSubuuDtcDJOelQr6fLhLOJfh/Bp1KpUnAv+mZ8
9ozfK7pHol0gdOQ0DXjQhudjnf4taYHr42Jt/pLK+D8tpPnYL297QyPg0zjonYuh
U7iMHgsAbKm/la53NbwTC9C4b+3CCLdcT7uC0u3FhZlA7nfzvK7dt0JCT32UHvKP
hh2rqD4jANiJ9p3uVhn5MuIINnka3bY98k19rc2d0DkLpGcpuazdEU9FUeqBX2Qt
mA+bCbvqSqYf3yhLSrSogNQSewQB7bReEc25mQvqp2meUWo1fma0U4gadnzrGnWS
/f/dcVxuDC7/Ui2Q/HzxUF9Q1YouM3qkSBjsTt6VVE0ugZdahMt5P9wmbHQdCq4o
lQaq7+IFPZz1hoFWHziiRwO2Kb8ORdwtd0CZ6Y7d1vvODYQie1D1zLh3XxpeGP5B
1dnHr3nS7bxnDWaVXESAG+h55gjizF09/5vmcX7aLhNDDZJD/HT4rMhx4VNJ5mD7
yMqC44FSsreHxywQh9EtQs0K1UfoTgESdp6cM4AxavwPINUoLKNwp2cmaSVfRs4e
6AlwfgEDYtL/dc1m+oxJTAKGif30epKQnlKB2LwL6Uyle0Ce
-----END CERTIFICATE-----
