Certificate:
    Data:
        Version: 3 (0x2)
        Serial Number:
            81:b3:92:19:ab:55:05:a2
    Signature Algorithm: sha512WithRSAEncryption
        Issuer: C=CH, ST=Zug, L=Zug, O=Perfect Privacy, CN=Perfect Privacy/emailAddress=admin@perfect-privacy.com
        Validity
            Not Before: May 24 00:00:00 2024 GMT
            Not After : Jan 19 00:00:00 2026 GMT
        Subject: C=CH, ST=Zug, O=Perfect Privacy, CN=Client_erfurt.perfect-privacy.com/emailAddress=admin@perfect-privacy.com
        Subject Public Key Info:
            Public Key Algorithm: rsaEncryption
                Public-Key: (4096 bit)
                Modulus:
                    00:bb:fc:ee:e9:e2:fd:98:47:ed:aa:a3:8b:80:c7:
                    57:eb:52:3e:5b:e2:ca:09:c0:24:47:34:0b:7d:51:
                    bd:65:94:72:6b:0e:c5:5e:d1:a6:ee:86:23:f4:65:
                    26:07:21:23:41:75:01:9c:22:ea:3e:70:de:65:c4:
                    c7:42:27:9d:26:f3:a3:fe:31:00:32:f1:61:cd:f7:
                    36:b9:13:20:fc:f1:dc:8f:33:55:ea:b6:d0:8b:5a:
                    10:0d:99:dc:c0:8b:53:45:d8:fb:c8:19:0f:6b:bf:
                    93:d7:e5:40:3b:60:f0:57:63:75:b2:f0:ca:48:c2:
                    67:ee:a1:02:00:a0:6e:96:c2:91:6c:bf:10:dc:80:
                    09:4f:33:d5:f9:b2:00:28:80:75:a8:a6:76:29:c0:
                    5a:91:77:59:9f:59:34:aa:23:73:ed:2e:77:a7:ba:
                    4b:95:21:ef:12:b1:98:14:f2:5e:24:6a:c1:06:ce:
                    d8:cd:96:23:3c:b9:e6:a6:09:92:f1:94:20:c0:9a:
                    04:a0:72:89:83:23:4d:99:f2:5f:59:a4:d1:d0:6b:
                    0f:7b:15:a7:1c:52:a8:95:fa:92:f3:5a:ae:56:4d:
                    50:13:3e:05:2c:2f:d2:de:52:e8:a3:73:64:4b:97:
                    e6:b2:bf:2d:2e:08:97:e5:10:38:b4:0e:56:61:8a:
                    f6:6f:42:a4:dd:55:1c:32:ea:83:03:0c:b9:5f:67:
                    11:60:91:b6:cf:62:75:97:c0:cd:41:9f:f9:8d:4a:
                    78:fe:36:4f:c8:cf:c3:42:55:03:1f:6b:aa:03:ae:
                    c8:8e:47:5c:80:fe:df:fe:0b:df:95:f4:29:53:6c:
                    ef:d6:f2:95:cd:bb:d7:a3:fb:5d:fc:57:cd:6a:d7:
                    3e:94:99:3a:a1:9a:bf:23:f6:0c:7d:eb:16:cb:5b:
                    49:f5:67:56:99:12:2f:c6:52:e5:98:46:6f:19:49:
                    c7:b4:80:f7:8a:21:eb:0f:aa:6c:ef:38:7f:4d:98:
                    99:20:ff:49:6d:46:10:7f:aa:6a:70:47:6a:0e:ee:
                    8f:dc:20:11:bf:30:24:28:4f:6a:8e:ff:05:fd:64:
                    9c:d6:02:a3:3f:2e:7b:51:ac:ca:9e:86:74:2f:59:
                    24:28:90:8a:8b:46:c1:6e:5b:19:e9:02:8f:f7:5f:
                    36:a7:3d:61:43:25:b8:2a:59:15:e0:16:4c:6a:85:
                    6d:22:27:63:4a:d6:b8:a1:5f:13:98:30:14:c3:79:
                    6e:d8:73:56:4d:a9:52:c4:a6:13:7a:db:19:16:fe:
                    88:4b:69:d2:58:56:a6:6a:5a:d9:ab:8b:f0:ea:84:
                    f3:96:59:bd:21:b5:90:72:fd:47:84:49:ea:b4:ce:
                    91:98:b9
                Exponent: 65537 (0x10001)
        X509v3 extensions:
            X509v3 Basic Constraints: 
                CA:FALSE
            Netscape Comment: 
                VPN User Certificate
            Netscape Cert Type: 
                SSL Client
            X509v3 Key Usage: 
                Digital Signature
            X509v3 Extended Key Usage: 
                TLS Web Client Authentication
            X509v3 Subject Key Identifier: 
                35:CF:ED:C8:0D:93:7C:3A:AA:84:C9:14:59:8E:EB:92:D1:28:E4:E6
            X509v3 Authority Key Identifier: 
                keyid:86:4F:B8:6D:18:2A:1B:3C:8F:27:34:29:F0:81:9F:BA:6E:61:0E:E1
                DirName:/C=CH/ST=Zug/L=Zug/O=Perfect Privacy/CN=Perfect Privacy/emailAddress=admin@perfect-privacy.com
                serial:FA:11:B5:C4:AA:69:AF:69

    Signature Algorithm: sha512WithRSAEncryption
         9d:d1:cb:d2:ae:9e:2b:62:5e:d3:a9:99:3e:41:30:ee:d1:b2:
         e5:d7:41:ed:c4:74:57:a4:f9:d0:49:2e:3a:0c:ea:de:73:22:
         d9:9d:3e:3c:d5:ac:b8:0b:50:38:33:97:61:28:53:1a:48:27:
         89:30:26:73:30:af:f8:1f:f0:44:17:42:50:60:a6:60:29:9e:
         24:0f:85:e9:95:c6:2a:a5:98:b2:b0:cb:e8:c4:0d:6d:3b:e0:
         96:54:df:95:db:1c:c2:2f:34:1f:7c:a3:11:02:7e:00:21:83:
         88:f1:4b:1f:8e:fd:6a:0c:c5:d5:71:2b:1d:9e:10:65:12:9e:
         30:4d:33:84:88:e4:93:c7:5a:5c:a4:4b:87:31:57:ba:96:cc:
         49:19:d6:55:bd:d0:27:4f:52:7a:51:15:b9:29:7d:31:dd:25:
         39:48:22:12:a1:79:da:1e:3f:b0:b2:d1:cf:e5:d0:ca:83:7a:
         e6:13:a3:de:eb:9a:37:05:3d:ea:be:85:3d:e6:df:11:00:fe:
         50:8e:03:a0:07:d1:19:87:23:9b:af:66:f6:f0:0a:5b:21:66:
         66:f9:bf:98:03:89:ed:6c:09:e8:eb:23:5c:45:5e:4a:a7:be:
         a1:c5:b9:43:1a:42:9b:21:7b:7c:6a:ab:ac:e2:0f:b1:ba:13:
         d8:d4:c8:be:d6:05:ae:87:8a:50:57:f1:8d:fe:29:74:30:58:
         16:6d:09:1c:2c:12:3f:83:12:64:4f:29:f8:5e:54:9f:aa:d8:
         1a:be:aa:86:b5:ca:33:7c:9a:52:a5:48:6c:2c:68:5e:0c:1f:
         88:f9:08:40:35:be:3b:a5:8e:3e:60:1a:2a:c2:a0:c7:26:b0:
         1a:e4:c8:3c:a2:10:6d:d9:c8:52:53:d7:72:0e:f9:7a:44:9d:
         fa:ca:23:1c:b5:e5:a6:1b:1a:3a:1c:49:b0:44:27:4a:49:95:
         bc:91:29:90:35:77:1b:20:18:f2:40:c1:80:26:03:4b:9d:18:
         ca:66:37:0a:df:0a:f5:25:da:4a:d3:ee:33:33:92:c9:bc:47:
         a6:59:71:19:bd:0c:cc:0e:ca:c9:1a:2c:da:4e:4d:54:6d:02:
         34:16:cb:61:5e:f6:66:fa:39:57:4b:34:a4:61:2d:45:73:f0:
         83:9e:c6:4d:cd:28:7b:0c:a9:c0:57:3a:e3:e6:8a:26:f4:23:
         36:6b:05:ca:92:a5:6c:1e:e8:30:50:6f:ab:98:a1:df:d8:f6:
         f8:bd:0a:4f:ac:30:e9:88:ae:09:6b:81:c8:62:14:b3:a5:85:
         f3:84:97:9a:3e:b9:8e:3e:a6:08:c8:3c:81:cc:24:2e:30:d2:
         54:4e:1f:51:04:d0:20:97
-----BEGIN CERTIFICATE-----
MIIG4DCCBMigAwIBAgIJAIGzkhmrVQWiMA0GCSqGSIb3DQEBDQUAMIGHMQswCQYD
VQQGEwJDSDEMMAoGA1UECBMDWnVnMQwwCgYDVQQHEwNadWcxGDAWBgNVBAoTD1Bl
cmZlY3QgUHJpdmFjeTEYMBYGA1UEAxMPUGVyZmVjdCBQcml2YWN5MSgwJgYJKoZI
hvcNAQkBFhlhZG1pbkBwZXJmZWN0LXByaXZhY3kuY29tMB4XDTI0MDUyNDAwMDAw
MFoXDTI2MDExOTAwMDAwMFowgYsxCzAJBgNVBAYTAkNIMQwwCgYDVQQIEwNadWcx
GDAWBgNVBAoTD1BlcmZlY3QgUHJpdmFjeTEqMCgGA1UEAxQhQ2xpZW50X2VyZnVy
dC5wZXJmZWN0LXByaXZhY3kuY29tMSgwJgYJKoZIhvcNAQkBFhlhZG1pbkBwZXJm
ZWN0LXByaXZhY3kuY29tMIICIjANBgkqhkiG9w0BAQEFAAOCAg8AMIICCgKCAgEA
u/zu6eL9mEftqqOLgMdX61I+W+LKCcAkRzQLfVG9ZZRyaw7FXtGm7oYj9GUmByEj
QXUBnCLqPnDeZcTHQiedJvOj/jEAMvFhzfc2uRMg/PHcjzNV6rbQi1oQDZncwItT
Rdj7yBkPa7+T1+VAO2DwV2N1svDKSMJn7qECAKBulsKRbL8Q3IAJTzPV+bIAKIB1
qKZ2KcBakXdZn1k0qiNz7S53p7pLlSHvErGYFPJeJGrBBs7YzZYjPLnmpgmS8ZQg
wJoEoHKJgyNNmfJfWaTR0GsPexWnHFKolfqS81quVk1QEz4FLC/S3lLoo3NkS5fm
sr8tLgiX5RA4tA5WYYr2b0Kk3VUcMuqDAwy5X2cRYJG2z2J1l8DNQZ/5jUp4/jZP
yM/DQlUDH2uqA67IjkdcgP7f/gvflfQpU2zv1vKVzbvXo/td/FfNatc+lJk6oZq/
I/YMfesWy1tJ9WdWmRIvxlLlmEZvGUnHtID3iiHrD6ps7zh/TZiZIP9JbUYQf6pq
cEdqDu6P3CARvzAkKE9qjv8F/WSc1gKjPy57UazKnoZ0L1kkKJCKi0bBblsZ6QKP
9182pz1hQyW4KlkV4BZMaoVtIidjSta4oV8TmDAUw3lu2HNWTalSxKYTetsZFv6I
S2nSWFamalrZq4vw6oTzllm9IbWQcv1HhEnqtM6RmLkCAwEAAaOCAUcwggFDMAkG
A1UdEwQCMAAwIwYJYIZIAYb4QgENBBYWFFZQTiBVc2VyIENlcnRpZmljYXRlMBEG
CWCGSAGG+EIBAQQEAwIHgDALBgNVHQ8EBAMCB4AwEwYDVR0lBAwwCgYIKwYBBQUH
AwIwHQYDVR0OBBYEFDXP7cgNk3w6qoTJFFmO65LRKOTmMIG8BgNVHSMEgbQwgbGA
FIZPuG0YKhs8jyc0KfCBn7puYQ7hoYGNpIGKMIGHMQswCQYDVQQGEwJDSDEMMAoG
A1UECBMDWnVnMQwwCgYDVQQHEwNadWcxGDAWBgNVBAoTD1BlcmZlY3QgUHJpdmFj
eTEYMBYGA1UEAxMPUGVyZmVjdCBQcml2YWN5MSgwJgYJKoZIhvcNAQkBFhlhZG1p
bkBwZXJmZWN0LXByaXZhY3kuY29tggkA+hG1xKppr2kwDQYJKoZIhvcNAQENBQAD
ggIBAJ3Ry9KunitiXtOpmT5BMO7RsuXXQe3EdFek+dBJLjoM6t5zItmdPjzVrLgL
UDgzl2EoUxpIJ4kwJnMwr/gf8EQXQlBgpmApniQPhemVxiqlmLKwy+jEDW074JZU
35XbHMIvNB98oxECfgAhg4jxSx+O/WoMxdVxKx2eEGUSnjBNM4SI5JPHWlykS4cx
V7qWzEkZ1lW90CdPUnpRFbkpfTHdJTlIIhKhedoeP7Cy0c/l0MqDeuYTo97rmjcF
Peq+hT3m3xEA/lCOA6AH0RmHI5uvZvbwClshZmb5v5gDie1sCejrI1xFXkqnvqHF
uUMaQpshe3xqq6ziD7G6E9jUyL7WBa6HilBX8Y3+KXQwWBZtCRwsEj+DEmRPKfhe
VJ+q2Bq+qoa1yjN8mlKlSGwsaF4MH4j5CEA1vjuljj5gGirCoMcmsBrkyDyiEG3Z
yFJT13IO+XpEnfrKIxy15aYbGjocSbBEJ0pJlbyRKZA1dxsgGPJAwYAmA0udGMpm
NwrfCvUl2krT7jMzksm8R6ZZcRm9DMwOyskaLNpOTVRtAjQWy2Fe9mb6OVdLNKRh
LUVz8IOexk3NKHsMqcBXOuPmiib0IzZrBcqSpWwe6DBQb6uYod/Y9vi9Ck+sMOmI
rglrgchiFLOlhfOEl5o+uY4+pgjIPIHMJC4w0lROH1EE0CCX
-----END CERTIFICATE-----
