Certificate:
    Data:
        Version: 3 (0x2)
        Serial Number: 2306245123355970148 (0x20016db87e9c0a64)
    Signature Algorithm: sha512WithRSAEncryption
        Issuer: C=CH, ST=Zug, L=Zug, O=Perfect Privacy, CN=Perfect Privacy/emailAddress=admin@perfect-privacy.com
        Validity
            Not Before: Mar 11 00:00:00 2023 GMT
            Not After : Nov  5 00:00:00 2024 GMT
        Subject: C=CH, ST=Zug, O=Perfect Privacy, CN=Client_erfurt.perfect-privacy.com/emailAddress=admin@perfect-privacy.com
        Subject Public Key Info:
            Public Key Algorithm: rsaEncryption
                Public-Key: (4096 bit)
                Modulus:
                    00:9b:0a:c9:8a:ba:5f:53:17:0f:60:d7:90:70:d6:
                    e8:02:cd:8f:96:9a:e9:38:b5:86:8c:d0:fc:0c:29:
                    7c:80:3b:0f:1a:d0:ca:fa:2c:8a:6f:a2:e5:8b:78:
                    0c:a5:43:a5:63:27:db:86:4f:56:2e:f7:b9:64:24:
                    98:0d:22:7a:f2:ea:f4:38:52:3c:0f:4f:0f:fe:d2:
                    bb:74:27:31:78:50:8c:0c:19:b8:3b:f8:ec:93:8a:
                    66:3b:bb:79:1d:40:9b:a2:b9:ac:5f:36:bb:7b:55:
                    b0:5b:83:1f:6d:96:53:fe:62:f0:35:86:91:2d:05:
                    57:9f:4e:23:b5:54:cb:a3:20:5d:ba:71:d4:26:af:
                    0c:c1:03:3a:5d:99:43:54:72:e1:bc:41:8c:12:74:
                    0f:44:e5:e0:37:b7:39:e5:9c:c0:7d:77:82:8c:4e:
                    f4:1a:51:b9:3f:a3:a1:93:a8:a6:b0:96:ec:6f:b7:
                    47:d5:e2:72:b4:9f:08:a2:f0:98:06:41:07:3c:78:
                    b7:f7:cc:a8:0a:b4:ea:b6:22:66:6e:60:85:4c:b6:
                    3a:ad:8d:f9:02:b4:1f:46:39:63:b6:0a:05:d9:df:
                    80:07:29:0a:4f:c8:4b:3d:d8:8f:4a:c8:23:2b:0d:
                    dc:c1:fa:bd:b8:62:8d:30:59:fa:08:ae:35:e9:bb:
                    7f:0f:bf:20:89:38:dd:24:b4:7c:28:e7:ee:de:ef:
                    36:a7:6b:97:2a:9e:b6:b1:7b:e9:36:6a:82:ec:37:
                    6a:51:d1:81:b1:0f:6a:21:c4:3b:ab:a1:62:71:90:
                    41:6f:15:d4:07:a4:7b:cc:b0:d3:c6:a6:50:ca:aa:
                    a2:d7:37:f2:98:da:ef:8a:7b:05:65:af:26:fa:fb:
                    09:3c:f1:33:45:c2:49:fc:3d:1b:4c:ab:cc:1d:64:
                    3e:17:6c:40:04:98:8f:da:0b:a2:da:d7:56:f5:28:
                    2b:c1:36:e2:69:30:a8:2d:87:9e:a4:56:5d:bd:67:
                    f1:d3:5d:a7:64:92:66:75:df:43:bf:82:93:39:76:
                    74:e5:af:ba:f2:28:38:68:a5:9f:e9:88:f8:d7:06:
                    3d:fc:68:2c:fd:ac:99:aa:91:53:0c:af:eb:04:1b:
                    ea:68:33:df:00:de:82:db:7b:ef:e6:18:64:4a:af:
                    32:fd:54:f1:3b:5c:63:96:be:87:9e:1d:d2:9c:6c:
                    3b:30:57:d1:b6:bd:23:d7:7e:89:b0:14:30:81:44:
                    28:e1:a0:56:02:31:ed:5c:8e:33:3a:25:aa:bd:1a:
                    23:a1:93:29:3b:2a:36:4d:b4:fb:7d:9e:66:8a:a0:
                    12:f4:9c:6b:07:67:f8:97:c6:23:42:f8:2a:e3:71:
                    66:5a:85
                Exponent: 65537 (0x10001)
        X509v3 extensions:
            X509v3 Basic Constraints: 
                CA:FALSE
            Netscape Comment: 
                VPN User Certificate
            Netscape Cert Type: 
                SSL Client
            X509v3 Key Usage: 
                Digital Signature
            X509v3 Extended Key Usage: 
                TLS Web Client Authentication
            X509v3 Subject Key Identifier: 
                04:20:F9:C4:5A:02:3C:8B:B8:F5:44:DF:D6:E6:2D:9E:93:FB:F7:83
            X509v3 Authority Key Identifier: 
                keyid:86:4F:B8:6D:18:2A:1B:3C:8F:27:34:29:F0:81:9F:BA:6E:61:0E:E1
                DirName:/C=CH/ST=Zug/L=Zug/O=Perfect Privacy/CN=Perfect Privacy/emailAddress=admin@perfect-privacy.com
                serial:FA:11:B5:C4:AA:69:AF:69

    Signature Algorithm: sha512WithRSAEncryption
         45:4f:98:15:d3:49:3f:94:8d:c4:e1:e5:73:19:32:56:c8:f2:
         a5:eb:2d:37:93:54:0b:e8:63:6d:70:4c:c2:17:7c:0e:2a:f5:
         9c:19:80:40:6c:89:8a:dc:d7:48:1e:d0:81:f6:b1:e1:d1:55:
         bb:d3:59:35:eb:95:0e:55:bf:0c:3c:d0:3d:83:30:bc:7f:be:
         9c:66:fc:1d:a2:90:63:9f:56:95:d2:13:8a:fa:10:b9:19:03:
         03:9a:e2:e1:c1:08:42:4f:40:1a:e9:f0:6b:a0:84:8d:06:a3:
         5b:10:59:d8:c9:1b:c6:d6:d2:d0:88:c1:9c:fb:50:5e:65:b4:
         8e:99:af:c7:54:ec:54:f3:90:82:c0:5d:28:8e:be:c0:47:01:
         d1:9f:09:84:30:33:86:47:d8:e2:cd:ab:75:20:45:a7:84:02:
         68:d2:d2:62:33:48:d6:6b:b6:8e:50:d4:af:07:84:d6:ab:19:
         f3:b7:4b:6d:7d:17:53:96:ee:a1:cc:64:36:fd:6c:c5:fe:28:
         2e:9c:4b:5f:9b:37:74:79:c1:15:d4:b8:ff:63:14:9d:81:96:
         3f:a3:7c:9a:04:5c:9e:4f:de:a8:f3:1c:b9:01:80:62:a1:cf:
         f7:d6:55:aa:68:2e:41:e7:fb:fd:13:18:44:1c:d8:4a:de:fa:
         ab:0a:25:32:7c:6b:99:52:9c:56:c3:57:2b:2b:35:3f:ad:c5:
         89:71:83:56:9a:a3:7c:71:e6:fa:f4:7b:a5:ac:c3:41:6d:72:
         06:cb:66:62:45:93:ad:6e:b8:e3:eb:28:3b:cf:94:29:91:ba:
         38:7d:cb:23:92:17:4d:84:f0:29:cf:bc:96:b9:59:5b:68:a5:
         60:6d:3f:cc:c7:cb:c1:a4:53:d9:29:14:46:59:2c:a7:00:eb:
         67:9c:4a:c4:25:42:00:a6:23:93:8c:c1:b4:14:fd:58:c3:45:
         fd:bb:8e:88:91:18:fb:ad:d3:bf:4b:9f:47:52:5c:af:28:cc:
         95:16:67:ba:10:f2:1f:ce:08:a5:6d:b5:5c:f6:b8:6e:3c:4d:
         52:86:06:ed:c1:c4:1d:3d:f8:7b:72:d1:c9:42:ae:41:c2:40:
         08:dd:e2:85:8b:22:c7:51:66:20:ba:b0:c8:cc:d5:f0:bf:59:
         b3:43:3b:f8:26:61:c7:a2:2f:a2:cf:92:0d:0f:40:ae:50:c8:
         7e:00:51:30:67:78:ca:8c:d5:50:6c:b8:86:46:a5:81:90:30:
         59:ce:95:d9:1b:66:ad:19:4c:d0:38:10:8c:18:12:b6:81:03:
         75:a7:db:d0:84:32:f6:fc:47:55:cc:2b:b0:96:2b:7d:b5:8c:
         ed:14:19:d8:5c:cf:95:0a
-----BEGIN CERTIFICATE-----
MIIG3zCCBMegAwIBAgIIIAFtuH6cCmQwDQYJKoZIhvcNAQENBQAwgYcxCzAJBgNV
BAYTAkNIMQwwCgYDVQQIEwNadWcxDDAKBgNVBAcTA1p1ZzEYMBYGA1UEChMPUGVy
ZmVjdCBQcml2YWN5MRgwFgYDVQQDEw9QZXJmZWN0IFByaXZhY3kxKDAmBgkqhkiG
9w0BCQEWGWFkbWluQHBlcmZlY3QtcHJpdmFjeS5jb20wHhcNMjMwMzExMDAwMDAw
WhcNMjQxMTA1MDAwMDAwWjCBizELMAkGA1UEBhMCQ0gxDDAKBgNVBAgTA1p1ZzEY
MBYGA1UEChMPUGVyZmVjdCBQcml2YWN5MSowKAYDVQQDFCFDbGllbnRfZXJmdXJ0
LnBlcmZlY3QtcHJpdmFjeS5jb20xKDAmBgkqhkiG9w0BCQEWGWFkbWluQHBlcmZl
Y3QtcHJpdmFjeS5jb20wggIiMA0GCSqGSIb3DQEBAQUAA4ICDwAwggIKAoICAQCb
CsmKul9TFw9g15Bw1ugCzY+Wmuk4tYaM0PwMKXyAOw8a0Mr6LIpvouWLeAylQ6Vj
J9uGT1Yu97lkJJgNInry6vQ4UjwPTw/+0rt0JzF4UIwMGbg7+OyTimY7u3kdQJui
uaxfNrt7VbBbgx9tllP+YvA1hpEtBVefTiO1VMujIF26cdQmrwzBAzpdmUNUcuG8
QYwSdA9E5eA3tznlnMB9d4KMTvQaUbk/o6GTqKawluxvt0fV4nK0nwii8JgGQQc8
eLf3zKgKtOq2ImZuYIVMtjqtjfkCtB9GOWO2CgXZ34AHKQpPyEs92I9KyCMrDdzB
+r24Yo0wWfoIrjXpu38PvyCJON0ktHwo5+7e7zana5cqnraxe+k2aoLsN2pR0YGx
D2ohxDuroWJxkEFvFdQHpHvMsNPGplDKqqLXN/KY2u+KewVlryb6+wk88TNFwkn8
PRtMq8wdZD4XbEAEmI/aC6La11b1KCvBNuJpMKgth56kVl29Z/HTXadkkmZ130O/
gpM5dnTlr7ryKDhopZ/piPjXBj38aCz9rJmqkVMMr+sEG+poM98A3oLbe+/mGGRK
rzL9VPE7XGOWvoeeHdKcbDswV9G2vSPXfomwFDCBRCjhoFYCMe1cjjM6Jaq9GiOh
kyk7KjZNtPt9nmaKoBL0nGsHZ/iXxiNC+CrjcWZahQIDAQABo4IBRzCCAUMwCQYD
VR0TBAIwADAjBglghkgBhvhCAQ0EFhYUVlBOIFVzZXIgQ2VydGlmaWNhdGUwEQYJ
YIZIAYb4QgEBBAQDAgeAMAsGA1UdDwQEAwIHgDATBgNVHSUEDDAKBggrBgEFBQcD
AjAdBgNVHQ4EFgQUBCD5xFoCPIu49UTf1uYtnpP794MwgbwGA1UdIwSBtDCBsYAU
hk+4bRgqGzyPJzQp8IGfum5hDuGhgY2kgYowgYcxCzAJBgNVBAYTAkNIMQwwCgYD
VQQIEwNadWcxDDAKBgNVBAcTA1p1ZzEYMBYGA1UEChMPUGVyZmVjdCBQcml2YWN5
MRgwFgYDVQQDEw9QZXJmZWN0IFByaXZhY3kxKDAmBgkqhkiG9w0BCQEWGWFkbWlu
QHBlcmZlY3QtcHJpdmFjeS5jb22CCQD6EbXEqmmvaTANBgkqhkiG9w0BAQ0FAAOC
AgEARU+YFdNJP5SNxOHlcxkyVsjypestN5NUC+hjbXBMwhd8Dir1nBmAQGyJitzX
SB7Qgfax4dFVu9NZNeuVDlW/DDzQPYMwvH++nGb8HaKQY59WldITivoQuRkDA5ri
4cEIQk9AGunwa6CEjQajWxBZ2MkbxtbS0IjBnPtQXmW0jpmvx1TsVPOQgsBdKI6+
wEcB0Z8JhDAzhkfY4s2rdSBFp4QCaNLSYjNI1mu2jlDUrweE1qsZ87dLbX0XU5bu
ocxkNv1sxf4oLpxLX5s3dHnBFdS4/2MUnYGWP6N8mgRcnk/eqPMcuQGAYqHP99ZV
qmguQef7/RMYRBzYSt76qwolMnxrmVKcVsNXKys1P63FiXGDVpqjfHHm+vR7pazD
QW1yBstmYkWTrW644+soO8+UKZG6OH3LI5IXTYTwKc+8lrlZW2ilYG0/zMfLwaRT
2SkURlkspwDrZ5xKxCVCAKYjk4zBtBT9WMNF/buOiJEY+63Tv0ufR1JcryjMlRZn
uhDyH84IpW21XPa4bjxNUoYG7cHEHT34e3LRyUKuQcJACN3ihYsix1FmILqwyMzV
8L9Zs0M7+CZhx6Ivos+SDQ9ArlDIfgBRMGd4yozVUGy4hkalgZAwWc6V2RtmrRlM
0DgQjBgStoEDdafb0IQy9vxHVcwrsJYrfbWM7RQZ2FzPlQo=
-----END CERTIFICATE-----
