Certificate:
    Data:
        Version: 3 (0x2)
        Serial Number: 8477109102268280477 (0x75a4bdd09aee6e9d)
    Signature Algorithm: sha512WithRSAEncryption
        Issuer: C=CH, ST=Zug, L=Zug, O=Perfect Privacy, CN=Perfect Privacy/emailAddress=admin@perfect-privacy.com
        Validity
            Not Before: Jun 13 00:00:00 2024 GMT
            Not After : Feb  8 00:00:00 2026 GMT
        Subject: C=CH, ST=Zug, O=Perfect Privacy, CN=Client_frankfurt.perfect-privacy.com/emailAddress=admin@perfect-privacy.com
        Subject Public Key Info:
            Public Key Algorithm: rsaEncryption
                Public-Key: (4096 bit)
                Modulus:
                    00:cb:af:66:a1:63:80:be:c4:02:85:bf:23:68:89:
                    b4:d3:e4:d9:49:59:2b:ea:d4:f1:96:ce:0a:93:6f:
                    46:a3:a0:87:e0:ae:04:0c:12:fa:3a:38:60:a5:e2:
                    fc:59:34:8c:18:77:b1:88:1a:9e:81:8b:c6:7c:a2:
                    2a:5f:2d:db:a7:d8:c9:06:41:ed:5b:82:40:47:8e:
                    79:9c:48:5e:54:71:68:0e:d9:3b:41:0d:af:6a:cf:
                    c9:96:83:f9:19:0e:ef:15:88:a1:f5:5f:76:97:2a:
                    32:69:45:1b:a4:f1:bc:c6:53:db:04:cb:f8:97:14:
                    a1:11:ac:c1:1c:da:37:a0:42:1a:c4:9b:4c:12:94:
                    d6:35:ea:5a:37:af:fe:e5:6e:c6:ea:1a:b4:a4:41:
                    ac:dd:62:17:43:aa:32:7b:de:9c:5b:8c:fe:56:a4:
                    1b:46:72:35:e5:1f:38:59:d5:11:7f:ee:73:47:6a:
                    ab:e8:d9:b0:1b:73:b4:3d:bd:82:a1:03:cd:72:d6:
                    a6:27:03:75:e6:b3:d1:98:97:97:c6:9c:b4:d4:df:
                    13:c1:31:b3:31:11:0b:cf:9a:e9:02:57:2d:26:b3:
                    48:d1:04:91:44:6d:75:ac:f7:8c:bf:ef:d0:69:4c:
                    eb:46:92:8b:1e:e1:9a:c1:23:7b:5b:5b:f3:6a:7f:
                    ca:80:1e:57:67:72:f0:a9:ef:4d:45:e0:af:f5:f6:
                    80:a7:09:d0:c2:ae:c1:58:20:b7:c8:c9:95:21:ce:
                    30:2c:73:69:62:0a:9d:7b:4c:1b:b8:52:3e:fa:ad:
                    32:7f:96:84:10:73:c1:8a:9b:5e:f2:c1:48:f1:26:
                    16:b9:73:99:31:cd:c5:39:5c:3e:7f:93:ea:c7:e4:
                    2d:e0:13:93:b1:e8:28:01:0a:b4:9a:28:8d:7c:dc:
                    a6:97:01:e6:a4:f5:b4:18:50:55:58:9f:9c:40:d1:
                    f8:57:c3:18:06:63:27:f4:b4:06:de:a8:a3:b7:27:
                    95:ec:d9:18:29:12:a2:60:83:b9:86:39:db:4a:d9:
                    60:9a:2c:c7:40:ef:29:e8:f6:c6:8a:fa:f3:80:4f:
                    72:e9:27:8e:88:9e:d5:17:ba:bb:3f:68:15:a9:a0:
                    0e:d5:90:37:16:6c:6e:3a:32:75:f7:3d:fa:5e:15:
                    a7:25:51:2c:9e:bf:9e:78:6f:51:25:bc:7d:97:6d:
                    f9:8b:1b:95:ce:9e:cb:a4:be:1c:0c:6d:8c:44:63:
                    7f:5a:12:5a:7e:04:26:b9:d1:af:bb:a4:d0:40:5b:
                    e1:05:fd:fd:05:ca:49:35:d8:ae:72:2e:58:ba:26:
                    fe:54:64:6b:b2:84:43:57:a4:a1:b9:bb:5d:6d:0e:
                    94:c1:9d
                Exponent: 65537 (0x10001)
        X509v3 extensions:
            X509v3 Basic Constraints: 
                CA:FALSE
            Netscape Comment: 
                VPN User Certificate
            Netscape Cert Type: 
                SSL Client
            X509v3 Key Usage: 
                Digital Signature
            X509v3 Extended Key Usage: 
                TLS Web Client Authentication
            X509v3 Subject Key Identifier: 
                7E:F8:CA:0C:5D:18:FE:55:A4:BA:F9:DF:65:81:B7:1A:F6:B8:4F:1C
            X509v3 Authority Key Identifier: 
                keyid:86:4F:B8:6D:18:2A:1B:3C:8F:27:34:29:F0:81:9F:BA:6E:61:0E:E1
                DirName:/C=CH/ST=Zug/L=Zug/O=Perfect Privacy/CN=Perfect Privacy/emailAddress=admin@perfect-privacy.com
                serial:FA:11:B5:C4:AA:69:AF:69

    Signature Algorithm: sha512WithRSAEncryption
         9e:c5:df:87:13:cc:3f:de:7b:d6:8c:98:37:22:0d:c4:dc:81:
         bd:e5:e3:15:e3:26:5c:46:ce:04:d2:5e:66:e2:17:bf:8e:0a:
         1f:3c:83:39:bb:42:94:9d:3b:76:c6:7f:e5:78:52:7f:d9:4a:
         20:6f:1a:e5:29:b1:2e:b1:f9:2e:73:75:90:8d:0d:db:71:64:
         cd:43:d4:6a:98:61:72:19:91:93:6b:65:3b:86:f1:94:00:03:
         60:42:14:14:09:52:53:a8:24:b3:f2:28:c3:2c:ba:b6:8c:a4:
         15:b5:f2:64:6a:ad:6a:00:8e:05:d9:38:f1:e2:35:ac:77:86:
         35:d7:22:5d:f9:d9:71:c1:37:1e:a0:9c:28:59:3d:be:2f:91:
         85:2f:41:3e:d4:2e:9b:a9:3e:bb:25:3a:46:ee:a0:94:b1:ba:
         d0:63:5a:53:f7:94:bd:62:80:e2:d6:fb:49:b8:fe:3f:1c:d2:
         c4:ea:e9:9d:17:bf:82:23:f2:c5:80:d5:19:50:8f:c1:77:83:
         ac:db:81:ab:6a:cd:9a:27:48:bb:e5:f9:3c:04:9d:6c:82:06:
         b4:29:73:7c:db:d3:b9:cb:1f:8a:0b:75:ba:17:c6:a5:cc:34:
         88:15:38:16:ea:34:9a:3e:c6:dd:b6:a4:75:4c:e4:b9:e9:87:
         b1:01:e1:40:72:46:c8:80:85:d2:51:d8:ad:7e:23:21:1a:90:
         d9:ef:e0:47:d0:27:3a:66:26:63:5c:db:1b:6d:5d:2b:4c:af:
         ad:6c:a4:ba:69:a0:0d:89:65:e2:42:7b:3e:04:ac:76:e4:61:
         df:55:f0:e2:a2:ab:31:53:f1:62:60:02:87:fb:25:a0:d5:ac:
         51:87:eb:43:a1:a4:c8:43:f3:8c:3b:dd:31:a4:ab:5d:89:da:
         f0:83:94:ee:35:d1:95:69:8d:4e:ba:64:77:aa:3c:98:50:b9:
         9c:b2:4e:50:17:b1:ea:a1:b4:d8:0d:32:a9:4d:a3:a9:2c:c3:
         6a:2f:00:32:df:bb:cb:1c:b8:56:18:73:56:29:9e:ca:05:90:
         3f:a5:a8:07:ee:24:1f:be:be:bd:f3:57:6d:54:66:ae:91:db:
         68:42:29:71:3b:8b:d4:e6:17:2d:be:9f:85:17:42:d6:bb:74:
         97:13:b2:9c:c5:a6:d0:ce:97:38:06:a1:34:5b:63:ad:f1:59:
         10:41:66:82:f2:a6:4a:79:9e:07:5c:cc:85:18:37:59:0e:c2:
         6e:83:33:7a:55:32:22:a2:88:1c:91:a0:27:37:09:b5:a2:ae:
         9b:1f:ea:31:81:80:79:7c:4a:46:3b:6c:ac:95:99:35:f0:af:
         54:8e:02:bd:83:b9:08:9d
-----BEGIN CERTIFICATE-----
MIIG4jCCBMqgAwIBAgIIdaS90Jrubp0wDQYJKoZIhvcNAQENBQAwgYcxCzAJBgNV
BAYTAkNIMQwwCgYDVQQIEwNadWcxDDAKBgNVBAcTA1p1ZzEYMBYGA1UEChMPUGVy
ZmVjdCBQcml2YWN5MRgwFgYDVQQDEw9QZXJmZWN0IFByaXZhY3kxKDAmBgkqhkiG
9w0BCQEWGWFkbWluQHBlcmZlY3QtcHJpdmFjeS5jb20wHhcNMjQwNjEzMDAwMDAw
WhcNMjYwMjA4MDAwMDAwWjCBjjELMAkGA1UEBhMCQ0gxDDAKBgNVBAgTA1p1ZzEY
MBYGA1UEChMPUGVyZmVjdCBQcml2YWN5MS0wKwYDVQQDFCRDbGllbnRfZnJhbmtm
dXJ0LnBlcmZlY3QtcHJpdmFjeS5jb20xKDAmBgkqhkiG9w0BCQEWGWFkbWluQHBl
cmZlY3QtcHJpdmFjeS5jb20wggIiMA0GCSqGSIb3DQEBAQUAA4ICDwAwggIKAoIC
AQDLr2ahY4C+xAKFvyNoibTT5NlJWSvq1PGWzgqTb0ajoIfgrgQMEvo6OGCl4vxZ
NIwYd7GIGp6Bi8Z8oipfLdun2MkGQe1bgkBHjnmcSF5UcWgO2TtBDa9qz8mWg/kZ
Du8ViKH1X3aXKjJpRRuk8bzGU9sEy/iXFKERrMEc2jegQhrEm0wSlNY16lo3r/7l
bsbqGrSkQazdYhdDqjJ73pxbjP5WpBtGcjXlHzhZ1RF/7nNHaqvo2bAbc7Q9vYKh
A81y1qYnA3Xms9GYl5fGnLTU3xPBMbMxEQvPmukCVy0ms0jRBJFEbXWs94y/79Bp
TOtGkose4ZrBI3tbW/Nqf8qAHldncvCp701F4K/19oCnCdDCrsFYILfIyZUhzjAs
c2liCp17TBu4Uj76rTJ/loQQc8GKm17ywUjxJha5c5kxzcU5XD5/k+rH5C3gE5Ox
6CgBCrSaKI183KaXAeak9bQYUFVYn5xA0fhXwxgGYyf0tAbeqKO3J5Xs2RgpEqJg
g7mGOdtK2WCaLMdA7yno9saK+vOAT3LpJ46IntUXurs/aBWpoA7VkDcWbG46MnX3
PfpeFaclUSyev554b1ElvH2XbfmLG5XOnsukvhwMbYxEY39aElp+BCa50a+7pNBA
W+EF/f0Fykk12K5yLli6Jv5UZGuyhENXpKG5u11tDpTBnQIDAQABo4IBRzCCAUMw
CQYDVR0TBAIwADAjBglghkgBhvhCAQ0EFhYUVlBOIFVzZXIgQ2VydGlmaWNhdGUw
EQYJYIZIAYb4QgEBBAQDAgeAMAsGA1UdDwQEAwIHgDATBgNVHSUEDDAKBggrBgEF
BQcDAjAdBgNVHQ4EFgQUfvjKDF0Y/lWkuvnfZYG3Gva4TxwwgbwGA1UdIwSBtDCB
sYAUhk+4bRgqGzyPJzQp8IGfum5hDuGhgY2kgYowgYcxCzAJBgNVBAYTAkNIMQww
CgYDVQQIEwNadWcxDDAKBgNVBAcTA1p1ZzEYMBYGA1UEChMPUGVyZmVjdCBQcml2
YWN5MRgwFgYDVQQDEw9QZXJmZWN0IFByaXZhY3kxKDAmBgkqhkiG9w0BCQEWGWFk
bWluQHBlcmZlY3QtcHJpdmFjeS5jb22CCQD6EbXEqmmvaTANBgkqhkiG9w0BAQ0F
AAOCAgEAnsXfhxPMP9571oyYNyINxNyBveXjFeMmXEbOBNJeZuIXv44KHzyDObtC
lJ07dsZ/5XhSf9lKIG8a5SmxLrH5LnN1kI0N23FkzUPUaphhchmRk2tlO4bxlAAD
YEIUFAlSU6gks/Iowyy6toykFbXyZGqtagCOBdk48eI1rHeGNdciXfnZccE3HqCc
KFk9vi+RhS9BPtQum6k+uyU6Ru6glLG60GNaU/eUvWKA4tb7Sbj+PxzSxOrpnRe/
giPyxYDVGVCPwXeDrNuBq2rNmidIu+X5PASdbIIGtClzfNvTucsfigt1uhfGpcw0
iBU4Fuo0mj7G3bakdUzkuemHsQHhQHJGyICF0lHYrX4jIRqQ2e/gR9AnOmYmY1zb
G21dK0yvrWykummgDYll4kJ7PgSsduRh31Xw4qKrMVPxYmACh/sloNWsUYfrQ6Gk
yEPzjDvdMaSrXYna8IOU7jXRlWmNTrpkd6o8mFC5nLJOUBex6qG02A0yqU2jqSzD
ai8AMt+7yxy4VhhzVimeygWQP6WoB+4kH76+vfNXbVRmrpHbaEIpcTuL1OYXLb6f
hRdC1rt0lxOynMWm0M6XOAahNFtjrfFZEEFmgvKmSnmeB1zMhRg3WQ7CboMzelUy
IqKIHJGgJzcJtaKumx/qMYGAeXxKRjtsrJWZNfCvVI4CvYO5CJ0=
-----END CERTIFICATE-----
