Certificate:
    Data:
        Version: 3 (0x2)
        Serial Number: 3700829480033299625 (0x335bfccde3adaca9)
    Signature Algorithm: sha512WithRSAEncryption
        Issuer: C=CH, ST=Zug, L=Zug, O=Perfect Privacy, CN=Perfect Privacy/emailAddress=admin@perfect-privacy.com
        Validity
            Not Before: Jun 12 00:00:00 2023 GMT
            Not After : Feb  6 00:00:00 2025 GMT
        Subject: C=CH, ST=Zug, O=Perfect Privacy, CN=Client_frankfurt.perfect-privacy.com/emailAddress=admin@perfect-privacy.com
        Subject Public Key Info:
            Public Key Algorithm: rsaEncryption
                Public-Key: (4096 bit)
                Modulus:
                    00:c1:e0:ea:36:c8:d7:02:de:8c:15:f9:cf:b8:b3:
                    b5:5f:21:3f:21:bc:f5:bc:1c:31:1d:de:3d:20:8a:
                    a6:96:bb:e1:fa:b8:76:45:bb:dc:f5:5b:28:59:33:
                    2d:86:2e:2c:17:88:bc:79:88:47:7e:89:60:38:1a:
                    62:07:3f:e1:d0:66:1a:4a:cd:d0:cb:e3:d2:50:3b:
                    5e:97:ce:92:66:f5:0b:ba:5d:d4:fb:6c:b3:2e:94:
                    71:67:6a:9f:bc:35:6f:22:20:a9:bc:5a:9d:10:92:
                    42:b5:1f:36:6c:3c:15:97:d3:9f:53:fb:54:3c:fd:
                    f6:e4:1e:35:2c:ee:cc:8f:d8:63:08:c3:d2:c2:d5:
                    fc:8b:e5:8c:ad:ad:2c:05:39:84:86:2a:07:08:dd:
                    ec:b7:b8:ad:62:b4:4f:cb:b7:10:81:07:89:ca:4c:
                    d4:9a:85:43:77:f9:ff:fe:0a:1f:0a:1e:2a:5f:39:
                    f9:39:9e:df:ce:8d:50:c0:2f:cb:88:88:f2:15:c9:
                    89:8a:f4:6d:79:b0:26:19:ce:fb:7d:fc:73:11:74:
                    02:34:bf:32:53:f5:d7:06:0b:bd:f4:fa:16:27:6e:
                    d6:b5:33:ae:d4:10:a3:ea:78:b5:c9:2a:1a:95:f3:
                    da:25:bf:24:30:24:27:76:f0:15:30:b7:87:bb:a3:
                    80:fd:7c:1c:15:80:7f:f7:4b:80:16:3c:cb:e5:54:
                    ef:0b:be:90:3c:db:32:ff:7b:93:c6:5a:b4:5c:2b:
                    f5:9a:2e:a8:8e:89:19:0e:9a:72:bf:e5:5c:0d:01:
                    4a:2d:60:3d:f7:c1:be:75:30:05:fc:e4:82:9f:9f:
                    10:19:69:a6:bd:3f:aa:d6:33:5c:52:a7:3c:a8:c4:
                    c0:02:dc:74:89:9b:c3:75:77:76:e0:13:51:90:bb:
                    ba:79:bf:7b:c5:3f:31:e3:17:cf:6e:9b:d4:40:17:
                    b7:9a:db:a4:55:b1:64:11:11:22:70:08:8b:22:96:
                    16:ac:87:3c:1a:ba:54:f3:36:7a:fc:53:a2:0f:e3:
                    cd:55:3a:c6:2a:2e:ed:b5:8b:db:68:b4:90:fc:8d:
                    9b:5c:d4:f2:d3:fb:c1:38:fb:f1:55:fb:a4:df:29:
                    62:24:68:a6:59:a9:27:c7:00:a9:b1:9e:72:14:51:
                    55:ce:d5:ff:ce:16:50:6f:59:7c:74:ae:81:82:ab:
                    7e:28:5b:b8:0d:3f:29:42:0e:c5:77:35:70:0c:77:
                    45:d6:a2:f5:fd:7d:91:82:b7:61:dd:5d:14:c8:af:
                    f6:1a:f8:44:6e:ce:f8:62:38:71:e4:ef:5c:21:27:
                    7d:91:50:88:70:7c:69:04:81:7b:3e:a4:e7:cd:4a:
                    5d:2d:45
                Exponent: 65537 (0x10001)
        X509v3 extensions:
            X509v3 Basic Constraints: 
                CA:FALSE
            Netscape Comment: 
                VPN User Certificate
            Netscape Cert Type: 
                SSL Client
            X509v3 Key Usage: 
                Digital Signature
            X509v3 Extended Key Usage: 
                TLS Web Client Authentication
            X509v3 Subject Key Identifier: 
                FC:B9:C0:29:C2:D6:5E:DC:5E:CF:A2:9F:79:85:23:F1:D6:5B:BE:CD
            X509v3 Authority Key Identifier: 
                keyid:86:4F:B8:6D:18:2A:1B:3C:8F:27:34:29:F0:81:9F:BA:6E:61:0E:E1
                DirName:/C=CH/ST=Zug/L=Zug/O=Perfect Privacy/CN=Perfect Privacy/emailAddress=admin@perfect-privacy.com
                serial:FA:11:B5:C4:AA:69:AF:69

    Signature Algorithm: sha512WithRSAEncryption
         23:1f:73:32:bd:83:00:78:8a:eb:f4:34:35:50:f2:6b:b8:c5:
         23:c0:be:93:65:e4:e4:45:99:a8:54:5a:14:01:61:db:c1:6b:
         0f:73:4c:d5:0d:87:d3:7f:55:fb:83:d6:8a:f8:fb:7d:7d:4d:
         c4:bc:4e:c5:81:87:cf:29:af:ad:b3:87:4e:a2:58:77:37:8d:
         48:37:37:05:80:80:48:31:c5:d6:52:ec:7e:e2:46:0f:6b:b7:
         fb:e9:3d:3d:ea:aa:0d:71:1d:ba:2e:f3:d1:f4:1e:f5:c4:2e:
         35:84:d5:eb:88:09:b4:58:ab:b6:b7:72:0e:5f:94:61:b4:87:
         64:8d:e0:64:58:86:55:c5:29:10:f8:87:cd:32:9a:bd:16:4e:
         83:b7:09:8f:2f:6e:96:24:82:37:06:75:41:36:30:d5:06:8e:
         1e:93:8c:18:02:f2:58:70:06:41:b9:8e:a0:d9:ee:9b:76:26:
         33:20:74:3e:25:53:0b:a1:5d:63:12:46:34:a0:62:8f:67:01:
         83:9a:c6:9d:6b:ca:a3:b4:24:6f:af:48:ef:73:93:45:56:36:
         01:2b:b8:d5:05:97:aa:8d:c8:f4:e2:f7:c0:d2:e5:fb:fb:b3:
         81:4a:b7:16:df:e2:66:06:c1:45:37:39:08:4a:98:6f:d4:0b:
         2d:1c:b3:7c:4f:0c:fd:a7:ed:7f:5f:e5:f7:cb:65:5d:30:91:
         89:e9:98:f4:6c:30:1d:02:f8:e0:c4:4c:8e:98:98:de:ab:92:
         07:3e:cc:41:77:2c:df:a8:dd:b7:c8:9e:93:f9:d1:0d:2c:8a:
         8e:45:ba:7c:d0:21:a8:24:28:ba:db:ca:4c:07:4d:99:f6:be:
         12:a8:a4:b7:9a:28:b6:e2:d9:4d:fe:e9:eb:38:40:48:f0:58:
         f3:e1:a7:7f:b5:3e:85:e6:a0:b2:33:e5:a7:f3:38:01:ed:64:
         32:37:13:2d:a9:0c:14:b5:e4:1d:61:a5:d8:0f:4b:12:91:64:
         4e:34:ee:34:90:21:79:71:a7:a9:25:2f:a8:db:f2:d3:34:ac:
         81:02:40:c9:ee:e0:5e:36:4b:92:02:a3:d6:90:cf:fa:1b:4e:
         08:63:bd:35:d8:f5:a7:86:df:7e:fb:b2:67:51:70:c2:af:a6:
         85:34:b9:8d:15:91:cc:bd:2f:25:fe:5e:cc:6d:93:f2:ef:19:
         70:28:79:2b:e6:15:37:c1:75:4b:67:ad:e6:e8:c0:64:da:c7:
         70:1c:43:cb:b4:ca:a5:04:ee:56:46:72:20:58:f9:b3:d4:a2:
         81:2f:1c:7e:ae:1c:9f:ab:dd:09:5a:ca:6e:f3:49:3e:d7:4b:
         f0:00:6a:39:36:1e:ec:7e
-----BEGIN CERTIFICATE-----
MIIG4jCCBMqgAwIBAgIIM1v8zeOtrKkwDQYJKoZIhvcNAQENBQAwgYcxCzAJBgNV
BAYTAkNIMQwwCgYDVQQIEwNadWcxDDAKBgNVBAcTA1p1ZzEYMBYGA1UEChMPUGVy
ZmVjdCBQcml2YWN5MRgwFgYDVQQDEw9QZXJmZWN0IFByaXZhY3kxKDAmBgkqhkiG
9w0BCQEWGWFkbWluQHBlcmZlY3QtcHJpdmFjeS5jb20wHhcNMjMwNjEyMDAwMDAw
WhcNMjUwMjA2MDAwMDAwWjCBjjELMAkGA1UEBhMCQ0gxDDAKBgNVBAgTA1p1ZzEY
MBYGA1UEChMPUGVyZmVjdCBQcml2YWN5MS0wKwYDVQQDFCRDbGllbnRfZnJhbmtm
dXJ0LnBlcmZlY3QtcHJpdmFjeS5jb20xKDAmBgkqhkiG9w0BCQEWGWFkbWluQHBl
cmZlY3QtcHJpdmFjeS5jb20wggIiMA0GCSqGSIb3DQEBAQUAA4ICDwAwggIKAoIC
AQDB4Oo2yNcC3owV+c+4s7VfIT8hvPW8HDEd3j0giqaWu+H6uHZFu9z1WyhZMy2G
LiwXiLx5iEd+iWA4GmIHP+HQZhpKzdDL49JQO16XzpJm9Qu6XdT7bLMulHFnap+8
NW8iIKm8Wp0QkkK1HzZsPBWX059T+1Q8/fbkHjUs7syP2GMIw9LC1fyL5YytrSwF
OYSGKgcI3ey3uK1itE/LtxCBB4nKTNSahUN3+f/+Ch8KHipfOfk5nt/OjVDAL8uI
iPIVyYmK9G15sCYZzvt9/HMRdAI0vzJT9dcGC730+hYnbta1M67UEKPqeLXJKhqV
89olvyQwJCd28BUwt4e7o4D9fBwVgH/3S4AWPMvlVO8LvpA82zL/e5PGWrRcK/Wa
LqiOiRkOmnK/5VwNAUotYD33wb51MAX85IKfnxAZaaa9P6rWM1xSpzyoxMAC3HSJ
m8N1d3bgE1GQu7p5v3vFPzHjF89um9RAF7ea26RVsWQRESJwCIsilhashzwaulTz
Nnr8U6IP481VOsYqLu21i9totJD8jZtc1PLT+8E4+/FV+6TfKWIkaKZZqSfHAKmx
nnIUUVXO1f/OFlBvWXx0roGCq34oW7gNPylCDsV3NXAMd0XWovX9fZGCt2HdXRTI
r/Ya+ERuzvhiOHHk71whJ32RUIhwfGkEgXs+pOfNSl0tRQIDAQABo4IBRzCCAUMw
CQYDVR0TBAIwADAjBglghkgBhvhCAQ0EFhYUVlBOIFVzZXIgQ2VydGlmaWNhdGUw
EQYJYIZIAYb4QgEBBAQDAgeAMAsGA1UdDwQEAwIHgDATBgNVHSUEDDAKBggrBgEF
BQcDAjAdBgNVHQ4EFgQU/LnAKcLWXtxez6KfeYUj8dZbvs0wgbwGA1UdIwSBtDCB
sYAUhk+4bRgqGzyPJzQp8IGfum5hDuGhgY2kgYowgYcxCzAJBgNVBAYTAkNIMQww
CgYDVQQIEwNadWcxDDAKBgNVBAcTA1p1ZzEYMBYGA1UEChMPUGVyZmVjdCBQcml2
YWN5MRgwFgYDVQQDEw9QZXJmZWN0IFByaXZhY3kxKDAmBgkqhkiG9w0BCQEWGWFk
bWluQHBlcmZlY3QtcHJpdmFjeS5jb22CCQD6EbXEqmmvaTANBgkqhkiG9w0BAQ0F
AAOCAgEAIx9zMr2DAHiK6/Q0NVDya7jFI8C+k2Xk5EWZqFRaFAFh28FrD3NM1Q2H
039V+4PWivj7fX1NxLxOxYGHzymvrbOHTqJYdzeNSDc3BYCASDHF1lLsfuJGD2u3
++k9PeqqDXEdui7z0fQe9cQuNYTV64gJtFirtrdyDl+UYbSHZI3gZFiGVcUpEPiH
zTKavRZOg7cJjy9uliSCNwZ1QTYw1QaOHpOMGALyWHAGQbmOoNnum3YmMyB0PiVT
C6FdYxJGNKBij2cBg5rGnWvKo7Qkb69I73OTRVY2ASu41QWXqo3I9OL3wNLl+/uz
gUq3Ft/iZgbBRTc5CEqYb9QLLRyzfE8M/aftf1/l98tlXTCRiemY9GwwHQL44MRM
jpiY3quSBz7MQXcs36jdt8iek/nRDSyKjkW6fNAhqCQoutvKTAdNmfa+Eqikt5oo
tuLZTf7p6zhASPBY8+Gnf7U+heagsjPlp/M4Ae1kMjcTLakMFLXkHWGl2A9LEpFk
TjTuNJAheXGnqSUvqNvy0zSsgQJAye7gXjZLkgKj1pDP+htOCGO9Ndj1p4bffvuy
Z1Fwwq+mhTS5jRWRzL0vJf5ezG2T8u8ZcCh5K+YVN8F1S2et5ujAZNrHcBxDy7TK
pQTuVkZyIFj5s9SigS8cfq4cn6vdCVrKbvNJPtdL8ABqOTYe7H4=
-----END CERTIFICATE-----
