Certificate:
    Data:
        Version: 3 (0x2)
        Serial Number:
            f0:2e:93:09:57:ab:7a:1e
    Signature Algorithm: sha512WithRSAEncryption
        Issuer: C=CH, ST=Zug, L=Zug, O=Perfect Privacy, CN=Perfect Privacy/emailAddress=admin@perfect-privacy.com
        Validity
            Not Before: Feb 15 00:00:00 2023 GMT
            Not After : Oct 12 00:00:00 2024 GMT
        Subject: C=CH, ST=Zug, O=Perfect Privacy, CN=Client_frankfurt.perfect-privacy.com/emailAddress=admin@perfect-privacy.com
        Subject Public Key Info:
            Public Key Algorithm: rsaEncryption
                Public-Key: (4096 bit)
                Modulus:
                    00:a6:19:5b:03:96:de:99:50:11:ab:bd:df:c4:b0:
                    08:6c:4d:63:0d:0d:25:4a:12:a3:ef:d4:43:19:c6:
                    69:e0:d2:bc:d0:00:30:68:76:b3:30:42:8b:8e:f4:
                    61:36:b7:f5:d7:ac:ee:0e:67:fe:2a:a9:20:85:8b:
                    f1:e1:e7:75:79:d5:e7:68:3e:f6:7e:93:31:77:db:
                    67:17:b1:29:3d:84:b9:93:3f:93:c5:e9:29:7c:ca:
                    3d:7b:41:84:41:81:60:4e:a0:ad:63:c4:6b:28:72:
                    f7:ed:6d:c6:73:81:74:b2:d3:8e:e3:4d:07:f4:59:
                    45:8d:f5:ac:44:94:47:fe:a6:86:ab:85:b5:43:68:
                    58:f1:69:ba:eb:89:12:bd:dc:d4:0a:5c:19:4e:ab:
                    6e:cd:69:c1:40:22:05:28:cb:6c:66:10:da:96:c7:
                    b5:9f:52:2a:49:9b:fc:20:b0:f8:ae:81:fc:ac:d7:
                    de:15:47:b5:98:7a:11:e6:4d:2b:1f:84:eb:b0:5f:
                    a4:e9:66:42:45:40:11:8f:77:3f:16:b2:e1:65:5b:
                    82:c3:2a:2c:fe:1b:61:47:8e:55:98:5c:9f:57:3a:
                    39:09:f8:f0:45:c2:f8:bd:55:66:48:a4:78:09:60:
                    3f:d9:e4:67:5d:21:89:6c:f5:eb:a6:18:5e:89:5a:
                    1f:e0:7a:2f:ea:6e:df:45:4d:1e:a8:bb:d2:a4:72:
                    94:22:50:f8:bb:d0:54:2e:4d:b7:94:ed:d7:4b:58:
                    1e:47:05:4b:8e:5a:94:10:65:ed:0e:9d:1e:8e:90:
                    b2:16:3c:d5:bf:ef:1e:b3:e4:3f:63:77:33:43:21:
                    a1:af:5e:6b:3d:56:09:25:11:46:46:4d:b2:bd:d4:
                    94:03:0f:4a:4d:dd:b4:f2:52:b9:c8:9a:6d:fb:b9:
                    f3:4f:b3:3c:14:82:dc:27:5f:83:67:ec:c1:bd:72:
                    d8:2a:87:66:61:75:ef:4a:c2:16:33:66:63:33:39:
                    6d:32:99:9e:2e:60:77:64:44:82:fb:5b:93:88:9d:
                    8f:1f:5b:68:4a:d7:9c:94:b9:35:d1:5a:eb:cd:06:
                    03:64:d3:07:aa:8f:25:83:bb:f2:ae:28:49:cb:f4:
                    0d:cd:89:b1:ac:b0:5a:37:b6:e7:d9:40:06:c3:15:
                    17:01:05:eb:ef:9c:6f:ef:95:0e:63:b9:9f:0d:a8:
                    f0:c8:b4:5c:24:32:13:e2:58:3e:a9:86:b2:d0:11:
                    f7:4e:30:50:3f:4f:40:1d:da:0f:51:b7:1d:3c:81:
                    36:19:b8:d8:2c:de:01:a9:13:c7:9c:6f:8a:ae:94:
                    e8:1b:a2:98:2c:b5:ab:ad:e2:f0:c1:3a:23:da:e8:
                    77:cc:07
                Exponent: 65537 (0x10001)
        X509v3 extensions:
            X509v3 Basic Constraints: 
                CA:FALSE
            Netscape Comment: 
                VPN User Certificate
            Netscape Cert Type: 
                SSL Client
            X509v3 Key Usage: 
                Digital Signature
            X509v3 Extended Key Usage: 
                TLS Web Client Authentication
            X509v3 Subject Key Identifier: 
                73:BC:BA:7A:28:AF:E0:59:98:26:4F:9C:66:58:55:1F:44:E6:89:59
            X509v3 Authority Key Identifier: 
                keyid:86:4F:B8:6D:18:2A:1B:3C:8F:27:34:29:F0:81:9F:BA:6E:61:0E:E1
                DirName:/C=CH/ST=Zug/L=Zug/O=Perfect Privacy/CN=Perfect Privacy/emailAddress=admin@perfect-privacy.com
                serial:FA:11:B5:C4:AA:69:AF:69

    Signature Algorithm: sha512WithRSAEncryption
         15:a4:97:0b:e9:eb:9d:6a:1b:47:34:c4:95:b8:d1:d9:55:6c:
         a8:35:dd:58:4b:9a:cf:9d:1e:94:8c:db:92:a1:fc:5b:9d:5d:
         d5:36:38:12:76:a0:dc:8a:46:17:9d:c4:9b:f2:cc:58:1f:b1:
         f3:10:42:f2:24:05:f5:25:64:ca:47:3c:47:7e:af:2f:ed:ef:
         32:c5:e3:7d:9d:fe:83:27:67:50:60:9d:94:ce:3d:2b:2a:61:
         00:90:ed:bb:ea:c1:25:2d:cd:a0:ee:66:65:32:0f:61:b9:4d:
         64:93:f9:bc:60:22:de:13:84:12:db:9d:5a:f4:fc:01:2e:fe:
         82:2e:51:67:f7:64:18:2d:83:4e:68:cf:64:ac:8a:b4:93:a2:
         93:b5:97:aa:0d:bf:f8:9e:b3:f0:fb:b9:3c:79:60:f3:14:45:
         93:4f:1e:5e:13:f4:5d:1f:43:e5:49:db:22:a5:2b:e1:5f:e5:
         da:cb:ab:7f:0b:4e:01:99:d1:21:5a:e3:4b:34:e1:04:d5:05:
         30:b4:9e:b5:8c:61:b5:08:51:93:7a:a7:62:b2:88:fe:b3:0a:
         22:5e:d9:8a:20:fe:63:ec:c8:b9:1c:5c:f7:3a:d8:d2:4f:43:
         b4:eb:05:0c:4d:b7:93:43:b6:86:96:1d:1f:95:ff:58:29:86:
         bd:b8:e3:db:62:37:e8:36:de:52:d4:6b:48:46:e5:14:e6:71:
         42:b9:c5:34:61:b4:6d:a7:a5:4c:b5:b7:94:7e:c5:1f:71:0d:
         13:77:9a:13:57:f1:ce:2f:0a:55:02:a0:5f:c0:d3:ee:07:81:
         ac:34:dc:54:ab:30:7d:f8:58:1b:4e:b9:97:91:da:81:4e:69:
         8a:16:19:7a:61:4a:dc:95:1a:36:ee:3c:0e:48:c4:4d:30:87:
         c9:2e:75:3d:57:f8:b2:f0:35:45:78:2d:1d:ee:78:5c:47:5e:
         e1:28:be:42:32:a3:c3:ba:52:3b:51:cb:60:aa:18:c4:90:8a:
         fd:5e:23:5e:9a:01:26:33:63:df:4b:f7:2a:a8:1e:d4:96:4e:
         40:da:d7:94:9e:29:89:7f:df:6e:db:3b:73:fe:27:cb:4b:d1:
         1f:86:7f:29:58:28:a8:3a:b2:48:b3:47:2f:65:d6:56:ea:65:
         4a:89:b2:4f:78:89:21:6e:61:a5:c7:40:b1:9b:3d:ff:9c:a3:
         3f:c6:12:eb:1c:61:70:32:a1:12:1c:5d:c4:5d:00:2d:94:2f:
         75:03:88:5d:56:98:3c:62:be:e7:a9:3a:1a:8a:9d:a9:22:35:
         70:e8:94:90:cd:16:f9:ec:43:90:29:01:3a:f8:a8:28:de:81:
         6c:a2:f6:9a:5e:21:51:3b
-----BEGIN CERTIFICATE-----
MIIG4zCCBMugAwIBAgIJAPAukwlXq3oeMA0GCSqGSIb3DQEBDQUAMIGHMQswCQYD
VQQGEwJDSDEMMAoGA1UECBMDWnVnMQwwCgYDVQQHEwNadWcxGDAWBgNVBAoTD1Bl
cmZlY3QgUHJpdmFjeTEYMBYGA1UEAxMPUGVyZmVjdCBQcml2YWN5MSgwJgYJKoZI
hvcNAQkBFhlhZG1pbkBwZXJmZWN0LXByaXZhY3kuY29tMB4XDTIzMDIxNTAwMDAw
MFoXDTI0MTAxMjAwMDAwMFowgY4xCzAJBgNVBAYTAkNIMQwwCgYDVQQIEwNadWcx
GDAWBgNVBAoTD1BlcmZlY3QgUHJpdmFjeTEtMCsGA1UEAxQkQ2xpZW50X2ZyYW5r
ZnVydC5wZXJmZWN0LXByaXZhY3kuY29tMSgwJgYJKoZIhvcNAQkBFhlhZG1pbkBw
ZXJmZWN0LXByaXZhY3kuY29tMIICIjANBgkqhkiG9w0BAQEFAAOCAg8AMIICCgKC
AgEAphlbA5bemVARq73fxLAIbE1jDQ0lShKj79RDGcZp4NK80AAwaHazMEKLjvRh
Nrf116zuDmf+KqkghYvx4ed1edXnaD72fpMxd9tnF7EpPYS5kz+TxekpfMo9e0GE
QYFgTqCtY8RrKHL37W3Gc4F0stOO400H9FlFjfWsRJRH/qaGq4W1Q2hY8Wm664kS
vdzUClwZTqtuzWnBQCIFKMtsZhDalse1n1IqSZv8ILD4roH8rNfeFUe1mHoR5k0r
H4TrsF+k6WZCRUARj3c/FrLhZVuCwyos/hthR45VmFyfVzo5CfjwRcL4vVVmSKR4
CWA/2eRnXSGJbPXrphheiVof4Hov6m7fRU0eqLvSpHKUIlD4u9BULk23lO3XS1ge
RwVLjlqUEGXtDp0ejpCyFjzVv+8es+Q/Y3czQyGhr15rPVYJJRFGRk2yvdSUAw9K
Td208lK5yJpt+7nzT7M8FILcJ1+DZ+zBvXLYKodmYXXvSsIWM2ZjMzltMpmeLmB3
ZESC+1uTiJ2PH1toSteclLk10VrrzQYDZNMHqo8lg7vyrihJy/QNzYmxrLBaN7bn
2UAGwxUXAQXr75xv75UOY7mfDajwyLRcJDIT4lg+qYay0BH3TjBQP09AHdoPUbcd
PIE2GbjYLN4BqRPHnG+KrpToG6KYLLWrreLwwToj2uh3zAcCAwEAAaOCAUcwggFD
MAkGA1UdEwQCMAAwIwYJYIZIAYb4QgENBBYWFFZQTiBVc2VyIENlcnRpZmljYXRl
MBEGCWCGSAGG+EIBAQQEAwIHgDALBgNVHQ8EBAMCB4AwEwYDVR0lBAwwCgYIKwYB
BQUHAwIwHQYDVR0OBBYEFHO8unoor+BZmCZPnGZYVR9E5olZMIG8BgNVHSMEgbQw
gbGAFIZPuG0YKhs8jyc0KfCBn7puYQ7hoYGNpIGKMIGHMQswCQYDVQQGEwJDSDEM
MAoGA1UECBMDWnVnMQwwCgYDVQQHEwNadWcxGDAWBgNVBAoTD1BlcmZlY3QgUHJp
dmFjeTEYMBYGA1UEAxMPUGVyZmVjdCBQcml2YWN5MSgwJgYJKoZIhvcNAQkBFhlh
ZG1pbkBwZXJmZWN0LXByaXZhY3kuY29tggkA+hG1xKppr2kwDQYJKoZIhvcNAQEN
BQADggIBABWklwvp651qG0c0xJW40dlVbKg13VhLms+dHpSM25Kh/FudXdU2OBJ2
oNyKRhedxJvyzFgfsfMQQvIkBfUlZMpHPEd+ry/t7zLF432d/oMnZ1BgnZTOPSsq
YQCQ7bvqwSUtzaDuZmUyD2G5TWST+bxgIt4ThBLbnVr0/AEu/oIuUWf3ZBgtg05o
z2SsirSTopO1l6oNv/ies/D7uTx5YPMURZNPHl4T9F0fQ+VJ2yKlK+Ff5drLq38L
TgGZ0SFa40s04QTVBTC0nrWMYbUIUZN6p2KyiP6zCiJe2Yog/mPsyLkcXPc62NJP
Q7TrBQxNt5NDtoaWHR+V/1gphr2449tiN+g23lLUa0hG5RTmcUK5xTRhtG2npUy1
t5R+xR9xDRN3mhNX8c4vClUCoF/A0+4Hgaw03FSrMH34WBtOuZeR2oFOaYoWGXph
StyVGjbuPA5IxE0wh8kudT1X+LLwNUV4LR3ueFxHXuEovkIyo8O6UjtRy2CqGMSQ
iv1eI16aASYzY99L9yqoHtSWTkDa15SeKYl/327bO3P+J8tL0R+GfylYKKg6skiz
Ry9l1lbqZUqJsk94iSFuYaXHQLGbPf+coz/GEuscYXAyoRIcXcRdAC2UL3UDiF1W
mDxivuepOhqKnakiNXDolJDNFvnsQ5ApATr4qCjegWyi9ppeIVE7
-----END CERTIFICATE-----
