Certificate:
    Data:
        Version: 3 (0x2)
        Serial Number: 2594813311947310034 (0x2402a0f5951303d2)
    Signature Algorithm: sha512WithRSAEncryption
        Issuer: C=CH, ST=Zug, L=Zug, O=Perfect Privacy, CN=Perfect Privacy/emailAddress=admin@perfect-privacy.com
        Validity
            Not Before: Dec 21 00:00:00 2022 GMT
            Not After : Aug 17 00:00:00 2024 GMT
        Subject: C=CH, ST=Zug, O=Perfect Privacy, CN=Client_frankfurt.perfect-privacy.com/emailAddress=admin@perfect-privacy.com
        Subject Public Key Info:
            Public Key Algorithm: rsaEncryption
                Public-Key: (4096 bit)
                Modulus:
                    00:e7:75:c7:ec:34:01:66:d5:52:f2:39:27:85:91:
                    e4:b8:a2:44:69:35:65:40:e0:42:b7:6e:9d:7c:35:
                    e1:7a:9e:02:c4:50:64:49:56:68:37:51:8f:72:f8:
                    e3:d1:22:96:4b:98:c5:ad:e5:e1:23:a1:4c:b7:50:
                    27:35:e0:ea:e9:9c:a6:87:db:30:f1:ed:16:1d:37:
                    68:2a:9d:dd:fb:1d:87:21:e6:a0:23:5d:52:34:3b:
                    91:3d:51:b6:a1:03:37:f8:6e:6e:c6:70:91:6c:6c:
                    fe:39:e0:c1:60:84:66:dd:68:cf:c2:22:9a:b9:99:
                    6b:48:be:a2:d0:78:78:b7:35:6a:64:ec:7a:c5:e1:
                    f9:3c:1d:f6:b1:dd:c2:b5:b4:0b:06:8d:75:5d:b3:
                    ba:64:cc:5c:86:9b:48:38:82:92:48:e9:32:80:d2:
                    4f:55:2d:db:91:ec:98:4d:d0:d0:e5:9f:b9:b6:90:
                    78:72:da:c7:a8:3c:43:d0:12:66:59:12:25:d4:ad:
                    ad:6f:7d:88:08:24:6b:4f:3c:90:07:ea:e9:fd:16:
                    c1:c7:30:4f:39:7f:76:43:6e:e8:03:c5:1f:5b:0d:
                    df:b2:ef:fe:4f:b3:a5:89:eb:05:53:82:d1:05:8e:
                    25:1c:93:d8:7c:da:90:a2:55:c9:4e:74:32:c9:b2:
                    ab:58:53:ff:9b:9f:42:06:8e:76:65:a6:4b:69:e9:
                    a0:d3:36:a8:00:71:81:03:49:3e:92:e3:55:38:cf:
                    6f:39:6d:56:0a:e1:b4:60:00:82:3d:f5:93:f7:76:
                    f8:a9:e5:9f:aa:35:f1:0d:e2:b4:91:ce:24:b8:dd:
                    1f:fd:84:7d:48:25:0e:46:bb:fe:2d:e9:85:0b:89:
                    34:4a:8e:7a:e8:ef:7b:bd:70:4a:e0:81:5a:6e:41:
                    95:e0:b5:ed:8c:6b:05:99:ad:c6:eb:27:05:32:9f:
                    9b:3c:4d:e6:df:f7:2a:4e:87:cf:e0:04:31:af:56:
                    fb:4a:0c:24:39:e5:ea:97:59:12:2c:33:58:1c:6e:
                    d1:14:7f:06:59:62:90:bf:68:b5:de:35:9b:0f:99:
                    54:2f:84:11:44:c0:ef:41:26:5a:e1:bb:35:b2:04:
                    eb:3a:b0:53:dc:81:a9:3c:83:93:56:74:f1:5a:16:
                    2c:67:54:57:de:47:02:1d:4f:80:63:ad:e8:b7:ab:
                    cc:ce:7a:bd:56:ed:bc:d0:cd:69:e0:2f:71:74:f0:
                    80:78:d7:a2:d3:17:2c:de:b3:85:9b:8b:7d:23:4c:
                    3d:b0:af:79:11:9b:d6:24:b7:21:42:de:27:10:c6:
                    b6:23:4d:e7:83:30:44:37:e8:12:51:b1:40:c8:e1:
                    f2:62:eb
                Exponent: 65537 (0x10001)
        X509v3 extensions:
            X509v3 Basic Constraints: 
                CA:FALSE
            Netscape Comment: 
                VPN User Certificate
            Netscape Cert Type: 
                SSL Client
            X509v3 Key Usage: 
                Digital Signature
            X509v3 Extended Key Usage: 
                TLS Web Client Authentication
            X509v3 Subject Key Identifier: 
                A6:53:72:60:CF:44:26:3A:DC:6C:F2:1B:8B:FD:17:30:9C:E5:F3:DA
            X509v3 Authority Key Identifier: 
                keyid:86:4F:B8:6D:18:2A:1B:3C:8F:27:34:29:F0:81:9F:BA:6E:61:0E:E1
                DirName:/C=CH/ST=Zug/L=Zug/O=Perfect Privacy/CN=Perfect Privacy/emailAddress=admin@perfect-privacy.com
                serial:FA:11:B5:C4:AA:69:AF:69

    Signature Algorithm: sha512WithRSAEncryption
         46:d8:2a:e5:71:32:f2:ad:7d:1d:1a:54:0b:62:cc:e4:4d:9b:
         d8:e8:83:06:12:c9:b8:cb:eb:45:5e:ed:30:6c:1b:d7:c1:c5:
         7c:30:90:20:d2:f5:36:64:61:f7:19:87:aa:a3:6c:02:e6:c0:
         84:40:40:93:40:c9:ca:0f:70:e6:b0:7f:5f:27:19:cd:1a:3c:
         fa:e8:79:f6:53:4f:54:d5:95:32:c8:30:a7:59:ba:18:8b:84:
         fd:43:10:39:fd:98:30:6f:ec:a0:bb:00:8a:3c:53:fb:79:8d:
         39:a9:c3:5c:8c:64:08:ad:fe:5f:16:08:4a:71:e2:80:7f:56:
         cf:39:e0:4d:e3:78:0b:90:59:72:42:05:35:0a:91:b7:0d:e8:
         66:f3:7b:f6:c5:b9:2a:a1:49:e8:cf:39:5e:47:97:25:be:19:
         64:78:1a:2f:70:b9:79:37:a6:d7:15:98:d0:71:43:81:11:44:
         11:86:dd:cf:02:96:ed:74:1b:37:58:c2:c5:a5:c6:ba:5c:ad:
         44:37:1d:a3:d5:3a:1d:03:0d:24:dd:c8:e7:2f:5e:0e:f3:03:
         d5:a7:a1:d1:4c:c7:aa:67:95:88:60:13:5c:ad:b0:0b:33:e4:
         77:ed:74:11:92:99:37:44:5e:9b:77:d2:46:3e:2e:54:a4:2f:
         ca:41:af:2e:59:4f:de:e8:4d:b6:29:0b:45:7f:21:ec:22:94:
         9c:b0:36:38:0f:7d:53:f0:23:0f:aa:5c:4b:d9:93:3e:c5:e0:
         a0:ed:3f:49:90:58:a7:99:a1:e1:ea:57:bd:6b:e0:99:bf:59:
         c6:b9:49:4c:af:e7:01:5a:2d:f7:d0:f1:9c:2e:d8:7c:55:41:
         af:0c:28:fc:58:c2:e5:42:82:4f:56:52:41:e1:9e:d2:1b:ea:
         15:ea:71:86:92:b5:c3:ba:e2:f9:2b:0c:51:c3:ef:a8:07:a7:
         25:e5:ce:00:c5:ae:00:54:5e:02:16:6e:c3:be:39:12:66:fb:
         67:40:ef:74:c1:f1:81:2b:8c:09:ee:14:50:d9:7b:14:f6:b6:
         35:08:f5:07:52:ff:81:bc:01:d1:65:4f:1f:70:1a:5d:77:54:
         59:a2:9f:88:3f:d1:08:2c:24:e0:6f:d5:1d:53:fb:b5:5b:99:
         fb:36:50:a7:ab:2e:cc:29:5a:60:46:af:fa:e3:1f:ec:c6:19:
         5d:6a:e8:fb:a4:15:a2:f7:d2:09:b5:78:ad:31:64:a5:30:30:
         72:6d:a0:6e:03:46:1f:2d:65:ae:c3:44:5a:ba:97:81:94:56:
         12:d8:47:fc:63:14:3b:30:ba:37:a2:ca:93:58:c4:01:73:4c:
         05:13:ec:b9:40:a2:56:0a
-----BEGIN CERTIFICATE-----
MIIG4jCCBMqgAwIBAgIIJAKg9ZUTA9IwDQYJKoZIhvcNAQENBQAwgYcxCzAJBgNV
BAYTAkNIMQwwCgYDVQQIEwNadWcxDDAKBgNVBAcTA1p1ZzEYMBYGA1UEChMPUGVy
ZmVjdCBQcml2YWN5MRgwFgYDVQQDEw9QZXJmZWN0IFByaXZhY3kxKDAmBgkqhkiG
9w0BCQEWGWFkbWluQHBlcmZlY3QtcHJpdmFjeS5jb20wHhcNMjIxMjIxMDAwMDAw
WhcNMjQwODE3MDAwMDAwWjCBjjELMAkGA1UEBhMCQ0gxDDAKBgNVBAgTA1p1ZzEY
MBYGA1UEChMPUGVyZmVjdCBQcml2YWN5MS0wKwYDVQQDFCRDbGllbnRfZnJhbmtm
dXJ0LnBlcmZlY3QtcHJpdmFjeS5jb20xKDAmBgkqhkiG9w0BCQEWGWFkbWluQHBl
cmZlY3QtcHJpdmFjeS5jb20wggIiMA0GCSqGSIb3DQEBAQUAA4ICDwAwggIKAoIC
AQDndcfsNAFm1VLyOSeFkeS4okRpNWVA4EK3bp18NeF6ngLEUGRJVmg3UY9y+OPR
IpZLmMWt5eEjoUy3UCc14OrpnKaH2zDx7RYdN2gqnd37HYch5qAjXVI0O5E9Ubah
Azf4bm7GcJFsbP454MFghGbdaM/CIpq5mWtIvqLQeHi3NWpk7HrF4fk8Hfax3cK1
tAsGjXVds7pkzFyGm0g4gpJI6TKA0k9VLduR7JhN0NDln7m2kHhy2seoPEPQEmZZ
EiXUra1vfYgIJGtPPJAH6un9FsHHME85f3ZDbugDxR9bDd+y7/5Ps6WJ6wVTgtEF
jiUck9h82pCiVclOdDLJsqtYU/+bn0IGjnZlpktp6aDTNqgAcYEDST6S41U4z285
bVYK4bRgAII99ZP3dvip5Z+qNfEN4rSRziS43R/9hH1IJQ5Gu/4t6YULiTRKjnro
73u9cErggVpuQZXgte2MawWZrcbrJwUyn5s8Tebf9ypOh8/gBDGvVvtKDCQ55eqX
WRIsM1gcbtEUfwZZYpC/aLXeNZsPmVQvhBFEwO9BJlrhuzWyBOs6sFPcgak8g5NW
dPFaFixnVFfeRwIdT4Bjrei3q8zOer1W7bzQzWngL3F08IB416LTFyzes4Wbi30j
TD2wr3kRm9YktyFC3icQxrYjTeeDMEQ36BJRsUDI4fJi6wIDAQABo4IBRzCCAUMw
CQYDVR0TBAIwADAjBglghkgBhvhCAQ0EFhYUVlBOIFVzZXIgQ2VydGlmaWNhdGUw
EQYJYIZIAYb4QgEBBAQDAgeAMAsGA1UdDwQEAwIHgDATBgNVHSUEDDAKBggrBgEF
BQcDAjAdBgNVHQ4EFgQUplNyYM9EJjrcbPIbi/0XMJzl89owgbwGA1UdIwSBtDCB
sYAUhk+4bRgqGzyPJzQp8IGfum5hDuGhgY2kgYowgYcxCzAJBgNVBAYTAkNIMQww
CgYDVQQIEwNadWcxDDAKBgNVBAcTA1p1ZzEYMBYGA1UEChMPUGVyZmVjdCBQcml2
YWN5MRgwFgYDVQQDEw9QZXJmZWN0IFByaXZhY3kxKDAmBgkqhkiG9w0BCQEWGWFk
bWluQHBlcmZlY3QtcHJpdmFjeS5jb22CCQD6EbXEqmmvaTANBgkqhkiG9w0BAQ0F
AAOCAgEARtgq5XEy8q19HRpUC2LM5E2b2OiDBhLJuMvrRV7tMGwb18HFfDCQINL1
NmRh9xmHqqNsAubAhEBAk0DJyg9w5rB/XycZzRo8+uh59lNPVNWVMsgwp1m6GIuE
/UMQOf2YMG/soLsAijxT+3mNOanDXIxkCK3+XxYISnHigH9WzzngTeN4C5BZckIF
NQqRtw3oZvN79sW5KqFJ6M85XkeXJb4ZZHgaL3C5eTem1xWY0HFDgRFEEYbdzwKW
7XQbN1jCxaXGulytRDcdo9U6HQMNJN3I5y9eDvMD1aeh0UzHqmeViGATXK2wCzPk
d+10EZKZN0Rem3fSRj4uVKQvykGvLllP3uhNtikLRX8h7CKUnLA2OA99U/AjD6pc
S9mTPsXgoO0/SZBYp5mh4epXvWvgmb9ZxrlJTK/nAVot99DxnC7YfFVBrwwo/FjC
5UKCT1ZSQeGe0hvqFepxhpK1w7ri+SsMUcPvqAenJeXOAMWuAFReAhZuw745Emb7
Z0DvdMHxgSuMCe4UUNl7FPa2NQj1B1L/gbwB0WVPH3AaXXdUWaKfiD/RCCwk4G/V
HVP7tVuZ+zZQp6suzClaYEav+uMf7MYZXWro+6QVovfSCbV4rTFkpTAwcm2gbgNG
Hy1lrsNEWrqXgZRWEthH/GMUOzC6N6LKk1jEAXNMBRPsuUCiVgo=
-----END CERTIFICATE-----
