Certificate:
    Data:
        Version: 3 (0x2)
        Serial Number: 4709732406630019482 (0x415c54abac53f19a)
    Signature Algorithm: sha512WithRSAEncryption
        Issuer: C=CH, ST=Zug, L=Zug, O=Perfect Privacy, CN=Perfect Privacy/emailAddress=admin@perfect-privacy.com
        Validity
            Not Before: Jul 28 00:00:00 2023 GMT
            Not After : Mar 24 00:00:00 2025 GMT
        Subject: C=CH, ST=Zug, O=Perfect Privacy, CN=Client_hamburg.perfect-privacy.com/emailAddress=admin@perfect-privacy.com
        Subject Public Key Info:
            Public Key Algorithm: rsaEncryption
                Public-Key: (4096 bit)
                Modulus:
                    00:b6:88:88:e9:f7:cb:08:cc:7a:2e:34:c6:b0:7b:
                    3c:61:07:08:47:3c:64:ba:6e:bc:e8:d2:b3:d7:d1:
                    e6:57:65:db:39:8a:f6:b7:1c:9e:78:bb:0b:ab:d6:
                    24:d1:9d:ae:e4:e8:68:a6:c5:41:21:5a:5f:b2:98:
                    55:29:b9:05:ad:c2:68:51:c8:96:6b:6b:2c:36:8c:
                    8d:fc:39:93:03:55:06:2c:9b:e3:48:8f:4c:78:23:
                    a5:6d:13:e9:8e:2c:94:28:53:25:1c:71:b1:79:5d:
                    f7:f3:69:12:a0:87:02:67:03:c9:6f:20:80:7d:16:
                    de:14:07:08:28:bc:86:ac:c6:6f:79:49:3c:b9:04:
                    9c:a7:9d:a4:ff:f9:66:49:6e:6a:8d:3b:56:bf:ba:
                    3d:f3:6c:66:88:42:c9:51:79:7d:b7:cf:84:6d:0e:
                    8d:1e:7d:37:fa:bc:b3:ed:87:5b:50:a4:b1:31:2e:
                    3e:c3:9b:5e:03:03:27:a0:97:07:13:59:e1:ef:e8:
                    f1:b4:80:bb:a9:1b:dc:2a:ec:7a:97:19:fd:eb:e4:
                    82:50:9c:3a:92:58:f1:e8:9f:74:f8:2a:41:2c:ad:
                    82:84:82:70:bb:3e:f9:90:e6:0a:45:8c:b7:5d:10:
                    2c:e4:0d:d1:bf:24:85:1d:d0:4b:0d:35:6d:0a:3c:
                    53:a4:f3:6b:4f:c2:15:ef:ef:29:b9:89:fe:a5:53:
                    17:f4:ef:92:0f:12:af:39:1a:e7:01:f2:5e:a3:49:
                    90:b8:96:4d:2f:ae:1c:41:a2:ae:d3:7c:44:e1:a4:
                    09:3e:9a:39:4f:66:c1:d5:1e:5f:c3:6a:19:0b:47:
                    9d:5d:96:30:2f:83:61:79:d7:f9:6b:2f:fd:d2:20:
                    29:75:a3:a4:af:6f:aa:f4:bb:50:10:ca:8e:07:bc:
                    8f:97:99:13:f4:a7:f1:73:6c:ba:54:bc:66:c2:1f:
                    b0:19:71:d2:d8:a0:0c:1f:e8:d4:ca:0c:3a:8b:aa:
                    ec:39:b2:95:8d:f2:db:77:a9:e7:48:dc:f7:f3:00:
                    5e:1a:c1:e4:8c:fb:09:47:7e:27:e4:8b:74:36:41:
                    62:73:30:9b:4a:2d:dd:b1:ea:a9:2b:f1:95:ba:12:
                    87:44:62:37:bf:ef:65:7e:85:e8:9d:a0:71:ab:a8:
                    d7:a9:2f:e2:bd:28:5c:88:9a:a8:6a:bb:e6:1b:ae:
                    e7:bf:d2:35:66:ca:31:56:16:13:3a:ad:ca:b1:1d:
                    c8:79:ce:1c:fa:29:d9:68:b1:9f:02:58:8d:a0:25:
                    cf:e9:e1:75:66:ae:68:12:28:5c:0b:44:2a:a2:72:
                    f4:2f:29:07:48:3b:a2:0c:33:e0:94:29:62:8c:44:
                    c1:9d:71
                Exponent: 65537 (0x10001)
        X509v3 extensions:
            X509v3 Basic Constraints: 
                CA:FALSE
            Netscape Comment: 
                VPN User Certificate
            Netscape Cert Type: 
                SSL Client
            X509v3 Key Usage: 
                Digital Signature
            X509v3 Extended Key Usage: 
                TLS Web Client Authentication
            X509v3 Subject Key Identifier: 
                BD:DF:6D:A3:9E:97:B8:35:C9:98:55:4E:C4:E4:F4:FA:17:B3:61:22
            X509v3 Authority Key Identifier: 
                keyid:86:4F:B8:6D:18:2A:1B:3C:8F:27:34:29:F0:81:9F:BA:6E:61:0E:E1
                DirName:/C=CH/ST=Zug/L=Zug/O=Perfect Privacy/CN=Perfect Privacy/emailAddress=admin@perfect-privacy.com
                serial:FA:11:B5:C4:AA:69:AF:69

    Signature Algorithm: sha512WithRSAEncryption
         8c:76:f6:1f:e0:1e:5f:c7:83:5d:32:34:34:25:39:45:c4:db:
         db:1e:e4:b8:e7:b1:7a:13:04:47:bd:92:d9:34:31:5b:f7:9a:
         88:14:b1:2b:f9:4b:84:ed:60:56:26:75:fa:e7:8e:a3:dd:9e:
         da:6e:3c:90:38:4a:d7:bc:53:50:08:47:4c:e8:03:0c:d8:9f:
         49:a3:92:3e:a2:a1:b1:23:78:4e:b6:cc:06:7d:f9:45:a2:90:
         97:0e:37:1d:56:e2:c7:ba:4a:44:fd:f7:f8:df:4c:28:77:39:
         5f:7f:07:21:bf:ba:1a:66:8e:24:98:e5:07:62:d7:eb:10:6e:
         f6:9b:0a:7a:20:03:37:06:92:14:c6:b2:66:48:c2:de:53:61:
         af:5d:43:cb:93:db:80:bd:2b:c8:a4:a1:88:26:58:6c:b2:f9:
         36:13:de:70:ef:6b:8f:08:34:f3:21:f2:67:be:db:07:7b:94:
         db:6d:6f:c0:b4:b3:2d:a4:cc:92:a6:4e:e3:e3:e6:11:2b:b5:
         72:d2:2d:e9:71:32:0c:1f:45:e9:bd:fe:a5:5d:da:da:b4:5c:
         55:0f:16:52:70:82:8c:64:f5:b3:7b:94:0b:a4:33:ab:cf:de:
         a5:ee:f8:4e:74:ee:de:73:91:dc:b8:2e:0c:d5:5c:6a:84:61:
         5a:ec:66:b2:2c:9f:d6:ae:c3:6d:a0:d1:40:89:11:f6:b1:fd:
         9b:cf:19:0b:ba:c7:cb:19:75:e3:ac:60:79:86:72:df:b7:c3:
         6b:9a:30:97:e1:0a:0b:25:47:fc:27:37:4f:19:33:20:1d:ce:
         b9:01:98:f6:4a:54:bb:ed:4b:19:29:0b:01:e3:fb:54:2c:fd:
         26:54:a0:ae:98:83:a6:aa:4e:32:7a:47:86:be:34:6e:dd:9a:
         c8:63:4f:03:11:68:1b:d2:fc:52:87:18:f3:07:ed:c9:af:b2:
         3c:d1:af:de:e7:8b:a5:1b:b8:9b:af:cb:a2:d4:be:21:1f:2e:
         dc:61:57:7b:cb:99:09:d2:be:6b:67:e4:75:52:d8:06:22:a4:
         bf:92:21:14:82:94:e0:a9:0d:da:04:e6:42:9e:16:1f:f9:78:
         d6:c8:a3:e5:7d:d3:e3:ef:44:74:ac:00:49:07:45:fb:e4:46:
         e5:26:31:2d:b0:ac:77:84:ff:cb:40:b9:53:b6:0f:bc:6d:b0:
         68:be:a8:b3:99:a3:dc:6e:47:9c:77:0e:f9:68:b3:b9:b2:16:
         1a:f1:43:3b:1d:0a:d7:21:8e:5a:05:21:96:a8:20:be:31:8b:
         db:8c:f9:54:5b:c9:91:80:11:63:80:5b:9c:c0:fe:7a:9a:1f:
         2c:98:c8:7e:de:3d:aa:64
-----BEGIN CERTIFICATE-----
MIIG4DCCBMigAwIBAgIIQVxUq6xT8ZowDQYJKoZIhvcNAQENBQAwgYcxCzAJBgNV
BAYTAkNIMQwwCgYDVQQIEwNadWcxDDAKBgNVBAcTA1p1ZzEYMBYGA1UEChMPUGVy
ZmVjdCBQcml2YWN5MRgwFgYDVQQDEw9QZXJmZWN0IFByaXZhY3kxKDAmBgkqhkiG
9w0BCQEWGWFkbWluQHBlcmZlY3QtcHJpdmFjeS5jb20wHhcNMjMwNzI4MDAwMDAw
WhcNMjUwMzI0MDAwMDAwWjCBjDELMAkGA1UEBhMCQ0gxDDAKBgNVBAgTA1p1ZzEY
MBYGA1UEChMPUGVyZmVjdCBQcml2YWN5MSswKQYDVQQDFCJDbGllbnRfaGFtYnVy
Zy5wZXJmZWN0LXByaXZhY3kuY29tMSgwJgYJKoZIhvcNAQkBFhlhZG1pbkBwZXJm
ZWN0LXByaXZhY3kuY29tMIICIjANBgkqhkiG9w0BAQEFAAOCAg8AMIICCgKCAgEA
toiI6ffLCMx6LjTGsHs8YQcIRzxkum686NKz19HmV2XbOYr2txyeeLsLq9Yk0Z2u
5OhopsVBIVpfsphVKbkFrcJoUciWa2ssNoyN/DmTA1UGLJvjSI9MeCOlbRPpjiyU
KFMlHHGxeV3382kSoIcCZwPJbyCAfRbeFAcIKLyGrMZveUk8uQScp52k//lmSW5q
jTtWv7o982xmiELJUXl9t8+EbQ6NHn03+ryz7YdbUKSxMS4+w5teAwMnoJcHE1nh
7+jxtIC7qRvcKux6lxn96+SCUJw6kljx6J90+CpBLK2ChIJwuz75kOYKRYy3XRAs
5A3RvySFHdBLDTVtCjxTpPNrT8IV7+8puYn+pVMX9O+SDxKvORrnAfJeo0mQuJZN
L64cQaKu03xE4aQJPpo5T2bB1R5fw2oZC0edXZYwL4Nhedf5ay/90iApdaOkr2+q
9LtQEMqOB7yPl5kT9Kfxc2y6VLxmwh+wGXHS2KAMH+jUygw6i6rsObKVjfLbd6nn
SNz38wBeGsHkjPsJR34n5It0NkFiczCbSi3dseqpK/GVuhKHRGI3v+9lfoXonaBx
q6jXqS/ivShciJqoarvmG67nv9I1ZsoxVhYTOq3KsR3Iec4c+inZaLGfAliNoCXP
6eF1Zq5oEihcC0QqonL0LykHSDuiDDPglClijETBnXECAwEAAaOCAUcwggFDMAkG
A1UdEwQCMAAwIwYJYIZIAYb4QgENBBYWFFZQTiBVc2VyIENlcnRpZmljYXRlMBEG
CWCGSAGG+EIBAQQEAwIHgDALBgNVHQ8EBAMCB4AwEwYDVR0lBAwwCgYIKwYBBQUH
AwIwHQYDVR0OBBYEFL3fbaOel7g1yZhVTsTk9PoXs2EiMIG8BgNVHSMEgbQwgbGA
FIZPuG0YKhs8jyc0KfCBn7puYQ7hoYGNpIGKMIGHMQswCQYDVQQGEwJDSDEMMAoG
A1UECBMDWnVnMQwwCgYDVQQHEwNadWcxGDAWBgNVBAoTD1BlcmZlY3QgUHJpdmFj
eTEYMBYGA1UEAxMPUGVyZmVjdCBQcml2YWN5MSgwJgYJKoZIhvcNAQkBFhlhZG1p
bkBwZXJmZWN0LXByaXZhY3kuY29tggkA+hG1xKppr2kwDQYJKoZIhvcNAQENBQAD
ggIBAIx29h/gHl/Hg10yNDQlOUXE29se5LjnsXoTBEe9ktk0MVv3mogUsSv5S4Tt
YFYmdfrnjqPdntpuPJA4Ste8U1AIR0zoAwzYn0mjkj6iobEjeE62zAZ9+UWikJcO
Nx1W4se6SkT99/jfTCh3OV9/ByG/uhpmjiSY5Qdi1+sQbvabCnogAzcGkhTGsmZI
wt5TYa9dQ8uT24C9K8ikoYgmWGyy+TYT3nDva48INPMh8me+2wd7lNttb8C0sy2k
zJKmTuPj5hErtXLSLelxMgwfRem9/qVd2tq0XFUPFlJwgoxk9bN7lAukM6vP3qXu
+E507t5zkdy4LgzVXGqEYVrsZrIsn9auw22g0UCJEfax/ZvPGQu6x8sZdeOsYHmG
ct+3w2uaMJfhCgslR/wnN08ZMyAdzrkBmPZKVLvtSxkpCwHj+1Qs/SZUoK6Yg6aq
TjJ6R4a+NG7dmshjTwMRaBvS/FKHGPMH7cmvsjzRr97ni6UbuJuvy6LUviEfLtxh
V3vLmQnSvmtn5HVS2AYipL+SIRSClOCpDdoE5kKeFh/5eNbIo+V90+PvRHSsAEkH
RfvkRuUmMS2wrHeE/8tAuVO2D7xtsGi+qLOZo9xuR5x3Dvlos7myFhrxQzsdCtch
jloFIZaoIL4xi9uM+VRbyZGAEWOAW5zA/nqaHyyYyH7ePapk
-----END CERTIFICATE-----
