Certificate:
    Data:
        Version: 3 (0x2)
        Serial Number: 6184443781505801582 (0x55d38eda4a06dd6e)
    Signature Algorithm: sha512WithRSAEncryption
        Issuer: C=CH, ST=Zug, L=Zug, O=Perfect Privacy, CN=Perfect Privacy/emailAddress=admin@perfect-privacy.com
        Validity
            Not Before: Jul  3 00:00:00 2024 GMT
            Not After : Feb 28 00:00:00 2026 GMT
        Subject: C=CH, ST=Zug, O=Perfect Privacy, CN=Client_hongkong.perfect-privacy.com/emailAddress=admin@perfect-privacy.com
        Subject Public Key Info:
            Public Key Algorithm: rsaEncryption
                Public-Key: (4096 bit)
                Modulus:
                    00:e2:ce:d9:f3:31:a1:d5:32:bf:8f:34:93:8d:fa:
                    8e:fd:59:47:50:0b:8d:b4:89:fe:5d:0b:f6:6e:bd:
                    e5:80:2c:5f:d0:bc:83:31:5d:33:c6:19:a5:04:fc:
                    1b:c9:72:91:cf:4f:69:9a:12:1e:f6:f8:c8:e4:76:
                    21:01:eb:aa:80:03:3d:99:81:ad:59:cb:d7:a2:b2:
                    dd:14:5d:3d:dc:b9:4a:11:ab:d9:58:72:97:7b:0f:
                    a3:7a:4a:86:8f:9f:fe:e5:e7:24:fa:b6:d8:db:1d:
                    67:0b:4e:0c:99:74:59:14:bf:c7:d3:37:e9:75:41:
                    65:a3:45:6f:af:11:f4:c1:11:ba:5f:02:7d:60:d9:
                    bc:c6:78:7c:79:34:f2:ba:59:9f:bf:9b:a1:54:4a:
                    1e:2f:10:16:28:c5:ac:8b:7e:c0:7c:2e:75:0a:a1:
                    70:ff:79:31:1d:e7:8e:8e:85:ff:3c:08:ca:4b:f2:
                    fc:ff:1f:a0:b0:21:9b:1e:40:33:44:a8:9f:6e:65:
                    4a:5a:b3:c7:35:14:0b:ae:ca:8b:bb:e5:c6:0e:98:
                    35:cd:c7:f1:a2:70:bf:8d:1f:d9:ab:87:58:d3:fc:
                    fa:90:7b:10:99:38:0f:fd:df:31:f1:a5:f5:d7:a5:
                    ff:bd:7a:0a:be:e5:b8:81:b0:79:55:21:96:53:f9:
                    80:db:a4:c9:e2:59:ad:44:16:96:6a:d6:0b:e6:15:
                    b7:46:ca:79:3f:bc:00:87:d1:98:08:aa:ce:e1:e1:
                    14:14:f9:b8:bb:18:c5:a7:33:e7:0f:35:0c:c4:52:
                    28:d6:44:c4:29:0c:cb:72:d2:95:6e:22:c9:19:56:
                    de:32:48:7d:12:f3:d6:69:c9:63:e5:f8:2c:af:54:
                    e2:0d:ed:36:f9:97:7e:cd:67:7a:8c:7c:6d:5f:28:
                    f1:e8:89:4b:37:c4:27:5c:ee:cd:67:9e:6b:4c:58:
                    61:62:21:e9:81:21:4b:9f:bd:eb:f5:12:a2:70:b3:
                    99:f7:db:c8:df:4d:2c:3e:48:99:2e:b0:a2:2f:4b:
                    68:61:e7:6e:e0:37:0d:07:71:ee:2b:cf:30:d4:56:
                    45:71:7c:ed:84:e0:c2:67:da:b5:4f:1d:2d:2b:85:
                    d8:87:f2:38:7d:d5:51:0a:f8:a1:21:22:43:44:d5:
                    eb:f8:e7:76:84:c0:43:1d:02:9f:f6:b2:d4:cc:71:
                    49:e4:2c:b6:d0:bb:dd:9c:43:96:9c:4b:e0:b1:0f:
                    ae:ba:93:ad:65:0d:98:c0:41:5d:37:ff:9b:9c:8f:
                    29:9f:57:e1:89:77:7a:51:7a:93:fa:f6:51:21:ff:
                    6a:f4:b4:e6:3f:5a:9c:09:1e:22:1e:9a:cf:f2:d3:
                    69:2d:01
                Exponent: 65537 (0x10001)
        X509v3 extensions:
            X509v3 Basic Constraints: 
                CA:FALSE
            Netscape Comment: 
                VPN User Certificate
            Netscape Cert Type: 
                SSL Client
            X509v3 Key Usage: 
                Digital Signature
            X509v3 Extended Key Usage: 
                TLS Web Client Authentication
            X509v3 Subject Key Identifier: 
                6B:C7:DD:2B:97:0F:F5:4E:CC:26:3F:4D:75:1E:BF:F2:A5:0C:07:45
            X509v3 Authority Key Identifier: 
                keyid:86:4F:B8:6D:18:2A:1B:3C:8F:27:34:29:F0:81:9F:BA:6E:61:0E:E1
                DirName:/C=CH/ST=Zug/L=Zug/O=Perfect Privacy/CN=Perfect Privacy/emailAddress=admin@perfect-privacy.com
                serial:FA:11:B5:C4:AA:69:AF:69

    Signature Algorithm: sha512WithRSAEncryption
         77:f7:ab:4c:52:b3:3b:2b:2d:62:29:ab:63:09:97:05:8a:41:
         21:44:51:56:1a:0c:7c:5c:9f:7a:e2:e4:de:e3:32:82:d9:e8:
         34:2a:f8:fa:90:10:fe:ad:4c:36:07:de:ac:96:36:1e:cf:18:
         47:3e:e3:82:56:67:b4:5d:3e:41:74:66:b9:41:57:8a:b6:d0:
         61:d3:91:2e:4f:76:10:18:9d:58:76:f8:6d:89:7a:50:06:0a:
         3f:9b:d7:41:f1:24:be:92:82:a3:a1:59:be:1a:9b:cf:7d:94:
         31:94:a6:e3:ee:a2:ee:e8:a7:b6:5b:24:b8:9d:af:6f:8a:99:
         10:6c:24:4f:30:74:9c:48:e8:3a:7b:a3:16:b9:97:ef:3b:79:
         94:74:c6:a6:ef:49:39:dd:2b:40:98:72:2e:d3:5b:f4:0c:60:
         b3:18:34:d1:ab:b5:50:e6:a1:08:46:5e:75:0b:8f:31:35:f5:
         0a:0a:d3:9c:37:36:34:da:9d:8b:35:1e:bd:73:bc:df:d2:9c:
         03:78:35:49:db:2d:ff:dc:8f:16:b7:ef:90:03:bb:5e:74:84:
         39:61:e6:03:24:bc:3a:8a:dd:ad:7d:d6:6c:cc:03:22:a1:de:
         a2:17:e0:fc:f6:db:25:26:42:51:5a:d5:c5:72:1e:67:7e:66:
         d9:28:91:3d:30:0c:06:12:cd:1f:fd:48:6f:0e:8c:cd:13:90:
         fa:f6:d7:43:a6:5f:07:0f:53:bb:b8:b8:a6:0a:84:0a:e4:db:
         6d:fa:04:f0:de:bd:f5:b1:d5:cd:6f:fc:02:cb:46:6b:4c:44:
         d6:a2:9a:0a:67:0f:9c:f2:f4:76:c5:d1:50:ee:3c:e7:ba:c2:
         5b:be:07:09:19:53:2b:5b:dc:9a:c8:b6:5d:f2:4f:44:47:59:
         3d:5e:ea:29:ba:ba:59:75:1d:95:ac:5a:76:79:74:bc:41:f6:
         3f:46:21:c4:0c:c5:c7:d8:b4:cf:c3:d7:5f:2d:39:c9:94:7d:
         75:45:d4:74:08:ec:a9:94:31:5d:6e:39:85:eb:ec:d9:c9:22:
         e9:af:ef:0a:9f:95:75:30:82:1c:8b:d4:ef:c0:98:f5:ca:18:
         45:af:8d:00:6f:5d:9b:e1:ad:87:7d:67:33:d3:76:33:ac:10:
         5b:26:df:44:38:e0:56:bc:bd:67:ce:9c:1e:85:a1:d0:8d:1f:
         5b:65:d6:5d:29:d8:b4:f9:cc:e8:5e:ee:47:ef:28:88:d7:87:
         ef:cb:bf:ef:0e:95:67:61:a2:7d:3d:60:91:e8:20:48:9c:35:
         a5:c8:75:b7:5d:85:53:a8:44:42:04:2a:18:47:40:44:b8:4a:
         f0:4d:2e:e2:bd:20:2b:44
-----BEGIN CERTIFICATE-----
MIIG4TCCBMmgAwIBAgIIVdOO2koG3W4wDQYJKoZIhvcNAQENBQAwgYcxCzAJBgNV
BAYTAkNIMQwwCgYDVQQIEwNadWcxDDAKBgNVBAcTA1p1ZzEYMBYGA1UEChMPUGVy
ZmVjdCBQcml2YWN5MRgwFgYDVQQDEw9QZXJmZWN0IFByaXZhY3kxKDAmBgkqhkiG
9w0BCQEWGWFkbWluQHBlcmZlY3QtcHJpdmFjeS5jb20wHhcNMjQwNzAzMDAwMDAw
WhcNMjYwMjI4MDAwMDAwWjCBjTELMAkGA1UEBhMCQ0gxDDAKBgNVBAgTA1p1ZzEY
MBYGA1UEChMPUGVyZmVjdCBQcml2YWN5MSwwKgYDVQQDFCNDbGllbnRfaG9uZ2tv
bmcucGVyZmVjdC1wcml2YWN5LmNvbTEoMCYGCSqGSIb3DQEJARYZYWRtaW5AcGVy
ZmVjdC1wcml2YWN5LmNvbTCCAiIwDQYJKoZIhvcNAQEBBQADggIPADCCAgoCggIB
AOLO2fMxodUyv480k436jv1ZR1ALjbSJ/l0L9m695YAsX9C8gzFdM8YZpQT8G8ly
kc9PaZoSHvb4yOR2IQHrqoADPZmBrVnL16Ky3RRdPdy5ShGr2Vhyl3sPo3pKho+f
/uXnJPq22NsdZwtODJl0WRS/x9M36XVBZaNFb68R9MERul8CfWDZvMZ4fHk08rpZ
n7+boVRKHi8QFijFrIt+wHwudQqhcP95MR3njo6F/zwIykvy/P8foLAhmx5AM0So
n25lSlqzxzUUC67Ki7vlxg6YNc3H8aJwv40f2auHWNP8+pB7EJk4D/3fMfGl9del
/716Cr7luIGweVUhllP5gNukyeJZrUQWlmrWC+YVt0bKeT+8AIfRmAiqzuHhFBT5
uLsYxacz5w81DMRSKNZExCkMy3LSlW4iyRlW3jJIfRLz1mnJY+X4LK9U4g3tNvmX
fs1neox8bV8o8eiJSzfEJ1zuzWeea0xYYWIh6YEhS5+96/USonCzmffbyN9NLD5I
mS6woi9LaGHnbuA3DQdx7ivPMNRWRXF87YTgwmfatU8dLSuF2IfyOH3VUQr4oSEi
Q0TV6/jndoTAQx0Cn/ay1MxxSeQsttC73ZxDlpxL4LEPrrqTrWUNmMBBXTf/m5yP
KZ9X4Yl3elF6k/r2USH/avS05j9anAkeIh6az/LTaS0BAgMBAAGjggFHMIIBQzAJ
BgNVHRMEAjAAMCMGCWCGSAGG+EIBDQQWFhRWUE4gVXNlciBDZXJ0aWZpY2F0ZTAR
BglghkgBhvhCAQEEBAMCB4AwCwYDVR0PBAQDAgeAMBMGA1UdJQQMMAoGCCsGAQUF
BwMCMB0GA1UdDgQWBBRrx90rlw/1TswmP011Hr/ypQwHRTCBvAYDVR0jBIG0MIGx
gBSGT7htGCobPI8nNCnwgZ+6bmEO4aGBjaSBijCBhzELMAkGA1UEBhMCQ0gxDDAK
BgNVBAgTA1p1ZzEMMAoGA1UEBxMDWnVnMRgwFgYDVQQKEw9QZXJmZWN0IFByaXZh
Y3kxGDAWBgNVBAMTD1BlcmZlY3QgUHJpdmFjeTEoMCYGCSqGSIb3DQEJARYZYWRt
aW5AcGVyZmVjdC1wcml2YWN5LmNvbYIJAPoRtcSqaa9pMA0GCSqGSIb3DQEBDQUA
A4ICAQB396tMUrM7Ky1iKatjCZcFikEhRFFWGgx8XJ964uTe4zKC2eg0Kvj6kBD+
rUw2B96sljYezxhHPuOCVme0XT5BdGa5QVeKttBh05EuT3YQGJ1YdvhtiXpQBgo/
m9dB8SS+koKjoVm+GpvPfZQxlKbj7qLu6Ke2WyS4na9vipkQbCRPMHScSOg6e6MW
uZfvO3mUdMam70k53StAmHIu01v0DGCzGDTRq7VQ5qEIRl51C48xNfUKCtOcNzY0
2p2LNR69c7zf0pwDeDVJ2y3/3I8Wt++QA7tedIQ5YeYDJLw6it2tfdZszAMiod6i
F+D89tslJkJRWtXFch5nfmbZKJE9MAwGEs0f/UhvDozNE5D69tdDpl8HD1O7uLim
CoQK5Ntt+gTw3r31sdXNb/wCy0ZrTETWopoKZw+c8vR2xdFQ7jznusJbvgcJGVMr
W9yayLZd8k9ER1k9XuopurpZdR2VrFp2eXS8QfY/RiHEDMXH2LTPw9dfLTnJlH11
RdR0COyplDFdbjmF6+zZySLpr+8Kn5V1MIIci9TvwJj1yhhFr40Ab12b4a2HfWcz
03YzrBBbJt9EOOBWvL1nzpwehaHQjR9bZdZdKdi0+czoXu5H7yiI14fvy7/vDpVn
YaJ9PWCR6CBInDWlyHW3XYVTqERCBCoYR0BEuErwTS7ivSArRA==
-----END CERTIFICATE-----
