Certificate:
    Data:
        Version: 3 (0x2)
        Serial Number:
            98:5f:99:02:da:a3:eb:6c
    Signature Algorithm: sha512WithRSAEncryption
        Issuer: C=CH, ST=Zug, L=Zug, O=Perfect Privacy, CN=Perfect Privacy/emailAddress=admin@perfect-privacy.com
        Validity
            Not Before: Jun  9 00:00:00 2023 GMT
            Not After : Feb  3 00:00:00 2025 GMT
        Subject: C=CH, ST=Zug, O=Perfect Privacy, CN=Client_hongkong.perfect-privacy.com/emailAddress=admin@perfect-privacy.com
        Subject Public Key Info:
            Public Key Algorithm: rsaEncryption
                Public-Key: (4096 bit)
                Modulus:
                    00:c6:9c:5c:f4:2b:6a:a6:bf:9a:11:a6:7f:14:06:
                    92:99:1c:ad:0f:aa:a7:67:d9:3c:cd:ab:33:0d:7b:
                    f1:6f:41:56:a0:77:24:2a:01:88:51:57:89:ec:5e:
                    ae:fd:1e:ac:52:d4:9a:50:60:b7:2a:02:71:f4:00:
                    1b:1a:d0:6f:89:4a:1b:38:df:41:d1:50:f4:3b:b9:
                    16:c5:9e:9c:d2:f5:34:5e:c2:87:d8:d5:8d:75:bb:
                    a6:26:14:6c:d5:25:fa:4d:04:e0:14:ea:14:a7:c0:
                    c5:9d:75:be:8b:0e:0f:58:c2:38:d7:fb:c2:40:46:
                    d6:de:b8:a7:22:4e:0c:e8:7f:cf:80:c7:f1:3d:cd:
                    50:19:fa:97:84:db:b5:0b:b7:42:dc:73:ee:ec:7c:
                    69:50:ba:c0:50:81:2a:f5:aa:4e:e5:d9:7f:c5:b9:
                    65:7e:18:70:c9:b1:ac:9b:e3:66:cc:4b:2b:83:82:
                    88:37:a4:31:e7:22:f5:27:b3:ae:80:b9:80:48:79:
                    2f:ec:c5:b6:3a:4e:91:69:f0:31:79:d3:18:f5:a7:
                    23:ed:01:64:d2:4d:ab:4d:c4:4c:e6:62:00:d2:38:
                    ce:48:6e:ed:c8:de:64:18:c2:07:a0:ba:09:2c:07:
                    62:d4:87:71:a4:de:70:82:3c:ba:a5:d4:09:0a:8a:
                    7b:5a:2c:35:81:b8:c8:4a:89:ba:a0:25:4d:84:e7:
                    b1:0c:e1:9c:f7:55:1b:b9:44:b3:fe:c2:aa:35:5e:
                    81:a2:49:ca:a7:c0:fd:97:10:71:ac:9b:51:7b:0f:
                    ab:d4:b5:0a:a9:01:02:70:5c:84:69:37:0f:68:9e:
                    3a:1a:61:cd:98:49:c4:16:77:71:81:13:0f:6c:26:
                    66:04:0c:7f:2c:7d:38:3b:01:13:03:8d:f2:48:f4:
                    29:84:e5:0e:fd:ee:50:56:b8:f7:73:b5:03:ad:9c:
                    5c:d3:92:6f:c2:31:64:13:c0:46:38:93:7a:a7:a8:
                    ac:31:f7:26:41:ea:06:86:24:10:09:a2:9a:3d:52:
                    23:8c:e6:31:1e:fc:e5:5c:93:b3:bd:bf:4e:0c:b3:
                    b6:6f:11:ee:19:1f:8e:f7:39:1f:9c:b8:6c:8e:7b:
                    bf:1a:2e:9d:41:bd:52:1f:fa:e2:e9:6b:69:d8:86:
                    fb:f5:ab:57:f9:8c:4b:b6:76:3c:52:56:a8:73:32:
                    3a:c0:e8:62:3f:89:75:98:ac:58:40:3b:94:fe:3b:
                    e8:9e:99:a1:0d:f4:44:50:94:12:0e:65:2e:8b:0f:
                    c0:af:05:fa:73:43:9d:da:01:d2:18:0c:30:ac:b3:
                    75:6d:5f:3f:92:5e:bc:70:8e:cf:89:7d:8a:17:b5:
                    be:e9:59
                Exponent: 65537 (0x10001)
        X509v3 extensions:
            X509v3 Basic Constraints: 
                CA:FALSE
            Netscape Comment: 
                VPN User Certificate
            Netscape Cert Type: 
                SSL Client
            X509v3 Key Usage: 
                Digital Signature
            X509v3 Extended Key Usage: 
                TLS Web Client Authentication
            X509v3 Subject Key Identifier: 
                FD:8A:B9:53:42:2F:80:74:42:C8:1D:06:AD:D8:49:80:1B:36:E8:F4
            X509v3 Authority Key Identifier: 
                keyid:86:4F:B8:6D:18:2A:1B:3C:8F:27:34:29:F0:81:9F:BA:6E:61:0E:E1
                DirName:/C=CH/ST=Zug/L=Zug/O=Perfect Privacy/CN=Perfect Privacy/emailAddress=admin@perfect-privacy.com
                serial:FA:11:B5:C4:AA:69:AF:69

    Signature Algorithm: sha512WithRSAEncryption
         88:c6:d5:5c:3c:e7:4c:b3:69:62:b9:1b:71:5a:09:e7:6a:1e:
         eb:fd:23:fb:0c:1d:a3:cc:e5:44:d1:a5:56:0c:39:4b:0d:6b:
         37:8f:72:f7:1b:42:d7:d5:74:f0:82:1e:31:2c:68:b8:a0:a2:
         04:c1:14:a3:ca:7a:64:21:52:16:da:33:75:9d:a7:a9:c0:f3:
         03:e2:ec:63:e8:b7:26:51:17:4e:64:aa:c1:12:2d:0c:2a:6e:
         f9:eb:4b:c6:57:2e:50:d4:2d:13:60:c6:4d:da:fa:cc:95:a7:
         dd:59:67:0d:e9:4b:3e:29:67:9c:da:3f:5e:ce:9d:81:4d:51:
         cb:51:73:94:38:8f:f3:02:49:37:40:da:78:f8:56:74:66:26:
         05:9a:01:b0:c2:ea:4d:64:d2:19:50:05:12:c7:be:2d:ea:16:
         d0:b1:d4:00:10:0f:7e:b4:a8:1b:e0:bc:4f:68:07:39:40:62:
         82:d6:64:49:f1:18:eb:be:d3:35:c6:da:aa:bc:90:42:cb:ea:
         fd:00:97:e7:01:ef:32:3a:99:fa:78:b8:18:60:2b:14:4b:a1:
         67:db:f3:a9:78:1a:fd:c5:51:7a:c8:e9:dd:a8:bf:8a:c6:22:
         c9:f2:5f:c2:d3:bc:67:d5:df:72:2c:95:2a:f4:fb:f6:1b:45:
         08:3e:4a:83:06:93:5d:fa:a1:ed:a9:6b:d4:af:86:a9:0d:cf:
         85:19:ec:00:52:ea:59:73:a1:9f:84:89:29:db:0c:23:36:69:
         c7:fb:b8:c3:b7:58:a7:5f:d7:8f:1e:1b:35:9c:fb:f6:f1:22:
         b7:e8:01:f3:5d:04:7a:d8:5f:31:7c:4f:a6:3f:58:3f:25:33:
         80:1e:19:6d:bf:6a:2f:ed:08:9e:e4:9d:ba:bb:3c:70:31:7e:
         02:1b:30:13:df:e5:d6:23:6a:0e:8c:0e:96:eb:2e:de:fd:c8:
         97:b2:df:81:32:c1:d2:75:05:56:5d:4a:e9:13:f9:6e:89:da:
         5e:7f:67:39:6b:93:47:34:98:28:08:14:04:cc:3d:92:28:a1:
         5f:48:c5:da:b8:89:79:c1:c0:b1:62:6a:ea:45:5d:cb:20:04:
         96:27:80:e5:2b:26:66:fd:7f:40:9a:1e:77:b4:78:3f:64:5c:
         7f:36:ea:28:ce:52:11:ae:1a:18:4e:2c:db:2d:ca:cf:d4:28:
         25:56:8e:7c:92:1a:18:9a:bc:00:24:50:6c:07:5b:c1:cb:4d:
         a4:02:6f:ff:f8:ad:53:14:4f:da:d4:9e:11:37:52:5b:b6:be:
         64:e4:b3:a2:8a:a2:5a:45:5e:bb:92:a6:f1:fc:a2:9d:ac:c4:
         94:ae:78:66:ad:47:03:c0
-----BEGIN CERTIFICATE-----
MIIG4jCCBMqgAwIBAgIJAJhfmQLao+tsMA0GCSqGSIb3DQEBDQUAMIGHMQswCQYD
VQQGEwJDSDEMMAoGA1UECBMDWnVnMQwwCgYDVQQHEwNadWcxGDAWBgNVBAoTD1Bl
cmZlY3QgUHJpdmFjeTEYMBYGA1UEAxMPUGVyZmVjdCBQcml2YWN5MSgwJgYJKoZI
hvcNAQkBFhlhZG1pbkBwZXJmZWN0LXByaXZhY3kuY29tMB4XDTIzMDYwOTAwMDAw
MFoXDTI1MDIwMzAwMDAwMFowgY0xCzAJBgNVBAYTAkNIMQwwCgYDVQQIEwNadWcx
GDAWBgNVBAoTD1BlcmZlY3QgUHJpdmFjeTEsMCoGA1UEAxQjQ2xpZW50X2hvbmdr
b25nLnBlcmZlY3QtcHJpdmFjeS5jb20xKDAmBgkqhkiG9w0BCQEWGWFkbWluQHBl
cmZlY3QtcHJpdmFjeS5jb20wggIiMA0GCSqGSIb3DQEBAQUAA4ICDwAwggIKAoIC
AQDGnFz0K2qmv5oRpn8UBpKZHK0Pqqdn2TzNqzMNe/FvQVagdyQqAYhRV4nsXq79
HqxS1JpQYLcqAnH0ABsa0G+JShs430HRUPQ7uRbFnpzS9TRewofY1Y11u6YmFGzV
JfpNBOAU6hSnwMWddb6LDg9YwjjX+8JARtbeuKciTgzof8+Ax/E9zVAZ+peE27UL
t0Lcc+7sfGlQusBQgSr1qk7l2X/FuWV+GHDJsayb42bMSyuDgog3pDHnIvUns66A
uYBIeS/sxbY6TpFp8DF50xj1pyPtAWTSTatNxEzmYgDSOM5Ibu3I3mQYwgegugks
B2LUh3Gk3nCCPLql1AkKintaLDWBuMhKibqgJU2E57EM4Zz3VRu5RLP+wqo1XoGi
ScqnwP2XEHGsm1F7D6vUtQqpAQJwXIRpNw9onjoaYc2YScQWd3GBEw9sJmYEDH8s
fTg7ARMDjfJI9CmE5Q797lBWuPdztQOtnFzTkm/CMWQTwEY4k3qnqKwx9yZB6gaG
JBAJopo9UiOM5jEe/OVck7O9v04Ms7ZvEe4ZH473OR+cuGyOe78aLp1BvVIf+uLp
a2nYhvv1q1f5jEu2djxSVqhzMjrA6GI/iXWYrFhAO5T+O+iemaEN9ERQlBIOZS6L
D8CvBfpzQ53aAdIYDDCss3VtXz+SXrxwjs+JfYoXtb7pWQIDAQABo4IBRzCCAUMw
CQYDVR0TBAIwADAjBglghkgBhvhCAQ0EFhYUVlBOIFVzZXIgQ2VydGlmaWNhdGUw
EQYJYIZIAYb4QgEBBAQDAgeAMAsGA1UdDwQEAwIHgDATBgNVHSUEDDAKBggrBgEF
BQcDAjAdBgNVHQ4EFgQU/Yq5U0IvgHRCyB0GrdhJgBs26PQwgbwGA1UdIwSBtDCB
sYAUhk+4bRgqGzyPJzQp8IGfum5hDuGhgY2kgYowgYcxCzAJBgNVBAYTAkNIMQww
CgYDVQQIEwNadWcxDDAKBgNVBAcTA1p1ZzEYMBYGA1UEChMPUGVyZmVjdCBQcml2
YWN5MRgwFgYDVQQDEw9QZXJmZWN0IFByaXZhY3kxKDAmBgkqhkiG9w0BCQEWGWFk
bWluQHBlcmZlY3QtcHJpdmFjeS5jb22CCQD6EbXEqmmvaTANBgkqhkiG9w0BAQ0F
AAOCAgEAiMbVXDznTLNpYrkbcVoJ52oe6/0j+wwdo8zlRNGlVgw5Sw1rN49y9xtC
19V08IIeMSxouKCiBMEUo8p6ZCFSFtozdZ2nqcDzA+LsY+i3JlEXTmSqwRItDCpu
+etLxlcuUNQtE2DGTdr6zJWn3VlnDelLPilnnNo/Xs6dgU1Ry1FzlDiP8wJJN0Da
ePhWdGYmBZoBsMLqTWTSGVAFEse+LeoW0LHUABAPfrSoG+C8T2gHOUBigtZkSfEY
677TNcbaqryQQsvq/QCX5wHvMjqZ+ni4GGArFEuhZ9vzqXga/cVResjp3ai/isYi
yfJfwtO8Z9XfciyVKvT79htFCD5KgwaTXfqh7alr1K+GqQ3PhRnsAFLqWXOhn4SJ
KdsMIzZpx/u4w7dYp1/Xjx4bNZz79vEit+gB810EethfMXxPpj9YPyUzgB4Zbb9q
L+0InuSdurs8cDF+AhswE9/l1iNqDowOlusu3v3Il7LfgTLB0nUFVl1K6RP5bona
Xn9nOWuTRzSYKAgUBMw9kiihX0jF2riJecHAsWJq6kVdyyAElieA5SsmZv1/QJoe
d7R4P2RcfzbqKM5SEa4aGE4s2y3Kz9QoJVaOfJIaGJq8ACRQbAdbwctNpAJv//it
UxRP2tSeETdSW7a+ZOSzooqiWkVeu5Km8fyinazElK54Zq1HA8A=
-----END CERTIFICATE-----
