Certificate:
    Data:
        Version: 3 (0x2)
        Serial Number:
            ec:81:d9:64:57:2d:f2:dc
    Signature Algorithm: sha512WithRSAEncryption
        Issuer: C=CH, ST=Zug, L=Zug, O=Perfect Privacy, CN=Perfect Privacy/emailAddress=admin@perfect-privacy.com
        Validity
            Not Before: Mar  4 00:00:00 2023 GMT
            Not After : Oct 29 00:00:00 2024 GMT
        Subject: C=CH, ST=Zug, O=Perfect Privacy, CN=Client_hamburg.perfect-privacy.com/emailAddress=admin@perfect-privacy.com
        Subject Public Key Info:
            Public Key Algorithm: rsaEncryption
                Public-Key: (4096 bit)
                Modulus:
                    00:bb:2b:25:2d:e0:78:d9:d5:c2:4f:69:ce:b7:e4:
                    03:e8:22:b4:dc:67:54:01:27:7c:c1:3e:a5:69:12:
                    8d:ad:e2:8b:8a:2d:43:c0:8b:06:2f:16:99:a6:80:
                    d7:65:50:00:65:e6:70:43:d5:3b:73:33:02:eb:3a:
                    b4:d7:ab:34:8a:01:a5:96:2b:0c:4b:a0:86:1a:c5:
                    2e:90:26:e8:c5:c0:2d:12:e9:c0:65:33:3f:62:cb:
                    ea:29:01:7d:a1:81:a2:d3:36:18:48:d6:8b:aa:b7:
                    ae:5d:a5:f6:5a:74:ed:d1:5f:f2:41:e8:37:3f:4b:
                    5b:a9:53:73:83:a7:03:34:2d:82:78:27:9a:b5:c2:
                    18:b3:75:49:47:2e:c0:c8:18:6a:7f:36:08:8b:49:
                    59:01:82:35:30:59:ff:94:ab:93:28:3b:c7:31:53:
                    ea:3a:63:65:bc:36:c0:25:3c:53:1e:7f:59:47:98:
                    a8:56:65:ab:b4:b1:ff:4f:9c:2e:d8:f8:b3:b0:60:
                    e7:4d:2b:36:92:70:0a:d7:24:76:a2:55:7b:22:ed:
                    01:be:8d:9b:8c:7b:91:f1:bb:ad:c7:ad:14:03:71:
                    ea:8e:b2:f5:69:bc:0b:3a:92:8e:d3:5c:89:27:31:
                    04:2a:19:2b:d9:30:cf:6d:14:eb:2f:a5:22:e6:51:
                    57:59:06:32:96:86:d9:82:7a:88:d7:fc:9b:8c:16:
                    25:7f:71:f5:8b:ce:00:99:75:17:de:21:87:c0:4a:
                    10:7a:c6:bd:27:af:d4:3a:a7:98:90:0a:d2:65:01:
                    ae:af:c2:13:75:7c:9e:ab:f5:91:b0:c8:ee:2a:a6:
                    73:34:b0:e4:cf:85:96:cb:10:63:e0:57:c2:83:f3:
                    82:58:a7:90:ce:46:24:f4:fd:98:d5:37:9e:b9:9e:
                    99:2d:6b:ca:82:52:90:25:6c:72:43:fc:f9:bb:8b:
                    96:a4:53:6d:63:c1:eb:c2:b4:e7:ff:74:82:c4:3c:
                    6d:22:c9:d4:e0:ef:e2:7e:05:eb:92:68:20:ef:30:
                    cd:31:c2:45:48:f6:39:a7:fc:40:30:ce:e6:e8:ae:
                    c5:b4:da:8c:69:aa:db:a6:17:68:b9:fe:fd:f6:96:
                    4f:f3:8a:31:e3:a8:1f:5c:79:2c:23:a1:57:bc:ea:
                    8b:f8:c3:85:51:85:2d:f9:eb:3f:24:7f:84:fd:8e:
                    08:15:61:07:6e:8c:34:8a:fa:6d:a5:39:ca:ce:a9:
                    59:b3:03:32:5d:48:50:eb:96:00:a5:8b:71:ba:d3:
                    44:4b:1c:8c:8e:82:8f:d1:5c:4e:01:82:b8:e8:0f:
                    6f:51:fa:46:be:c1:12:5a:98:0c:85:cc:b9:e1:36:
                    77:ee:fb
                Exponent: 65537 (0x10001)
        X509v3 extensions:
            X509v3 Basic Constraints: 
                CA:FALSE
            Netscape Comment: 
                VPN User Certificate
            Netscape Cert Type: 
                SSL Client
            X509v3 Key Usage: 
                Digital Signature
            X509v3 Extended Key Usage: 
                TLS Web Client Authentication
            X509v3 Subject Key Identifier: 
                5A:B9:52:50:12:30:77:18:84:ED:3E:56:F9:B2:7A:AD:17:AC:66:39
            X509v3 Authority Key Identifier: 
                keyid:86:4F:B8:6D:18:2A:1B:3C:8F:27:34:29:F0:81:9F:BA:6E:61:0E:E1
                DirName:/C=CH/ST=Zug/L=Zug/O=Perfect Privacy/CN=Perfect Privacy/emailAddress=admin@perfect-privacy.com
                serial:FA:11:B5:C4:AA:69:AF:69

    Signature Algorithm: sha512WithRSAEncryption
         0f:9f:e8:25:e7:3c:89:7d:74:be:64:2b:70:3b:c2:b3:fe:a2:
         d9:f9:df:38:40:99:14:c7:1f:b7:bf:1e:13:c3:02:6e:4b:cb:
         0f:97:91:7d:c2:85:07:d2:5f:6b:56:06:92:06:ea:f1:04:e5:
         35:c0:20:b6:53:d2:89:82:40:f9:59:11:67:88:ac:cd:90:79:
         bf:d9:04:f0:59:1d:cc:67:90:04:fb:ce:1b:50:47:6b:a0:c3:
         24:ff:d4:9a:40:d4:e7:27:6b:b7:2d:61:e9:23:aa:0b:0a:3d:
         c1:7c:b6:fd:5f:39:83:57:4c:8b:ae:5b:29:20:ed:c7:bf:8f:
         f1:77:ed:5b:19:de:15:2a:8f:24:7b:9f:22:b6:cc:af:83:39:
         87:93:74:78:0f:09:d1:ce:fa:a5:c5:81:8e:99:a5:f0:8a:81:
         17:db:38:d9:cc:76:9c:bd:1f:a1:79:e6:08:3c:83:a0:58:46:
         21:c5:c5:c8:ed:00:f7:f3:76:fd:99:62:ea:48:62:79:ff:c2:
         75:a1:42:c7:00:f4:eb:95:c3:5b:eb:a6:40:4f:11:5c:b0:a4:
         09:8a:41:1e:1d:0a:3f:c3:a6:66:53:18:75:31:11:2c:70:95:
         91:3b:c5:12:4d:9b:58:be:ba:ee:04:69:9f:b8:92:c0:02:4c:
         1b:74:df:2c:a2:a5:45:35:8d:3d:27:4b:e5:55:03:dc:6c:79:
         00:16:46:da:d7:5e:33:c5:e6:07:06:11:b7:53:e4:d6:bb:74:
         f9:a5:23:9b:e3:9d:40:ef:00:7f:dd:9f:2c:21:b2:0a:72:a4:
         78:1c:c9:eb:2b:27:6b:b3:05:ce:07:f3:6b:19:86:81:7f:97:
         f7:0e:2a:9d:da:76:1c:25:fb:72:f2:c8:f7:cb:52:78:06:4d:
         b1:ba:ee:4a:aa:29:3a:a0:6e:af:6f:bc:e9:49:34:90:7a:58:
         87:bc:a6:b2:1e:71:f4:14:8a:9d:0d:a4:f5:ab:6b:88:54:83:
         1e:80:b8:84:f7:8d:89:81:16:61:3e:af:0a:49:e7:0e:d5:cb:
         23:8f:ce:aa:88:df:56:8c:0a:1d:c4:85:0c:4d:16:2a:c6:58:
         f3:39:ab:d3:67:da:b2:a6:a2:b1:0e:a6:79:d6:46:ba:5f:ad:
         ce:2e:5e:0f:7f:02:39:49:8e:17:31:6f:91:9c:67:60:d3:66:
         55:03:a2:00:01:19:a1:67:3a:48:3e:8d:75:a3:64:ea:a1:88:
         21:e8:11:f1:e0:cf:f6:0b:a9:a5:86:13:44:f9:45:ef:e2:e5:
         c0:cb:25:10:86:4b:83:11:d2:37:c0:3a:1b:4b:22:c0:a3:4d:
         27:25:61:10:10:99:4b:d7
-----BEGIN CERTIFICATE-----
MIIG4TCCBMmgAwIBAgIJAOyB2WRXLfLcMA0GCSqGSIb3DQEBDQUAMIGHMQswCQYD
VQQGEwJDSDEMMAoGA1UECBMDWnVnMQwwCgYDVQQHEwNadWcxGDAWBgNVBAoTD1Bl
cmZlY3QgUHJpdmFjeTEYMBYGA1UEAxMPUGVyZmVjdCBQcml2YWN5MSgwJgYJKoZI
hvcNAQkBFhlhZG1pbkBwZXJmZWN0LXByaXZhY3kuY29tMB4XDTIzMDMwNDAwMDAw
MFoXDTI0MTAyOTAwMDAwMFowgYwxCzAJBgNVBAYTAkNIMQwwCgYDVQQIEwNadWcx
GDAWBgNVBAoTD1BlcmZlY3QgUHJpdmFjeTErMCkGA1UEAxQiQ2xpZW50X2hhbWJ1
cmcucGVyZmVjdC1wcml2YWN5LmNvbTEoMCYGCSqGSIb3DQEJARYZYWRtaW5AcGVy
ZmVjdC1wcml2YWN5LmNvbTCCAiIwDQYJKoZIhvcNAQEBBQADggIPADCCAgoCggIB
ALsrJS3geNnVwk9pzrfkA+gitNxnVAEnfME+pWkSja3ii4otQ8CLBi8WmaaA12VQ
AGXmcEPVO3MzAus6tNerNIoBpZYrDEughhrFLpAm6MXALRLpwGUzP2LL6ikBfaGB
otM2GEjWi6q3rl2l9lp07dFf8kHoNz9LW6lTc4OnAzQtgngnmrXCGLN1SUcuwMgY
an82CItJWQGCNTBZ/5Srkyg7xzFT6jpjZbw2wCU8Ux5/WUeYqFZlq7Sx/0+cLtj4
s7Bg500rNpJwCtckdqJVeyLtAb6Nm4x7kfG7rcetFANx6o6y9Wm8CzqSjtNciScx
BCoZK9kwz20U6y+lIuZRV1kGMpaG2YJ6iNf8m4wWJX9x9YvOAJl1F94hh8BKEHrG
vSev1DqnmJAK0mUBrq/CE3V8nqv1kbDI7iqmczSw5M+FlssQY+BXwoPzglinkM5G
JPT9mNU3nrmemS1ryoJSkCVsckP8+buLlqRTbWPB68K05/90gsQ8bSLJ1ODv4n4F
65JoIO8wzTHCRUj2Oaf8QDDO5uiuxbTajGmq26YXaLn+/faWT/OKMeOoH1x5LCOh
V7zqi/jDhVGFLfnrPyR/hP2OCBVhB26MNIr6baU5ys6pWbMDMl1IUOuWAKWLcbrT
REscjI6Cj9FcTgGCuOgPb1H6Rr7BElqYDIXMueE2d+77AgMBAAGjggFHMIIBQzAJ
BgNVHRMEAjAAMCMGCWCGSAGG+EIBDQQWFhRWUE4gVXNlciBDZXJ0aWZpY2F0ZTAR
BglghkgBhvhCAQEEBAMCB4AwCwYDVR0PBAQDAgeAMBMGA1UdJQQMMAoGCCsGAQUF
BwMCMB0GA1UdDgQWBBRauVJQEjB3GITtPlb5snqtF6xmOTCBvAYDVR0jBIG0MIGx
gBSGT7htGCobPI8nNCnwgZ+6bmEO4aGBjaSBijCBhzELMAkGA1UEBhMCQ0gxDDAK
BgNVBAgTA1p1ZzEMMAoGA1UEBxMDWnVnMRgwFgYDVQQKEw9QZXJmZWN0IFByaXZh
Y3kxGDAWBgNVBAMTD1BlcmZlY3QgUHJpdmFjeTEoMCYGCSqGSIb3DQEJARYZYWRt
aW5AcGVyZmVjdC1wcml2YWN5LmNvbYIJAPoRtcSqaa9pMA0GCSqGSIb3DQEBDQUA
A4ICAQAPn+gl5zyJfXS+ZCtwO8Kz/qLZ+d84QJkUxx+3vx4TwwJuS8sPl5F9woUH
0l9rVgaSBurxBOU1wCC2U9KJgkD5WRFniKzNkHm/2QTwWR3MZ5AE+84bUEdroMMk
/9SaQNTnJ2u3LWHpI6oLCj3BfLb9XzmDV0yLrlspIO3Hv4/xd+1bGd4VKo8ke58i
tsyvgzmHk3R4DwnRzvqlxYGOmaXwioEX2zjZzHacvR+heeYIPIOgWEYhxcXI7QD3
83b9mWLqSGJ5/8J1oULHAPTrlcNb66ZATxFcsKQJikEeHQo/w6ZmUxh1MREscJWR
O8USTZtYvrruBGmfuJLAAkwbdN8soqVFNY09J0vlVQPcbHkAFkba114zxeYHBhG3
U+TWu3T5pSOb451A7wB/3Z8sIbIKcqR4HMnrKydrswXOB/NrGYaBf5f3Diqd2nYc
Jfty8sj3y1J4Bk2xuu5Kqik6oG6vb7zpSTSQeliHvKayHnH0FIqdDaT1q2uIVIMe
gLiE942JgRZhPq8KSecO1csjj86qiN9WjAodxIUMTRYqxljzOavTZ9qypqKxDqZ5
1ka6X63OLl4PfwI5SY4XMW+RnGdg02ZVA6IAARmhZzpIPo11o2TqoYgh6BHx4M/2
C6mlhhNE+UXv4uXAyyUQhkuDEdI3wDobSyLAo00nJWEQEJlL1w==
-----END CERTIFICATE-----
