Certificate:
    Data:
        Version: 3 (0x2)
        Serial Number:
            fe:3d:73:e5:57:c4:90:cf
    Signature Algorithm: sha512WithRSAEncryption
        Issuer: C=CH, ST=Zug, L=Zug, O=Perfect Privacy, CN=Perfect Privacy/emailAddress=admin@perfect-privacy.com
        Validity
            Not Before: Feb 12 00:00:00 2023 GMT
            Not After : Oct  9 00:00:00 2024 GMT
        Subject: C=CH, ST=Zug, O=Perfect Privacy, CN=Client_hongkong.perfect-privacy.com/emailAddress=admin@perfect-privacy.com
        Subject Public Key Info:
            Public Key Algorithm: rsaEncryption
                Public-Key: (4096 bit)
                Modulus:
                    00:de:32:c2:d1:1e:1f:fb:98:c5:0e:67:35:b3:fe:
                    e8:39:7a:dc:d2:13:dd:3d:c1:c8:ee:67:f6:0d:b9:
                    d1:8b:c4:27:c2:e6:52:37:c1:e4:92:7f:db:23:65:
                    3c:09:79:3a:0e:1d:07:5e:76:31:a6:43:cf:76:c5:
                    06:af:18:3a:39:74:04:91:c6:f1:5f:e2:03:46:77:
                    26:e7:b7:0d:7b:3a:0e:31:37:35:09:6f:39:99:0b:
                    6c:12:0e:0b:8f:75:e4:f0:40:8e:56:00:47:fc:54:
                    e2:08:8e:65:3b:9a:cc:2f:2c:7c:81:ec:ec:ab:44:
                    ef:9c:50:86:c1:2e:d5:39:19:ee:b8:db:cd:67:00:
                    81:76:5c:37:3b:f3:8c:d8:04:40:e3:e5:a9:61:2b:
                    eb:cf:3a:8c:e2:23:6b:1f:84:a5:92:7f:68:d2:a3:
                    1c:1f:aa:9b:d9:24:af:b2:2b:16:be:28:5a:8a:e9:
                    7c:07:d2:1b:66:7e:44:01:7a:87:21:7c:78:6e:aa:
                    9b:04:49:2e:fb:1c:7e:e6:97:da:b6:18:38:c2:f5:
                    57:63:0d:5b:be:33:b6:5d:be:fa:4a:3d:89:b5:68:
                    d5:4f:6d:6d:28:65:2c:97:48:1a:b7:17:7e:82:89:
                    87:8a:74:39:d5:b0:64:86:81:4d:da:7d:09:79:f2:
                    5e:81:10:0e:90:bc:6e:4e:95:6e:1f:b5:d3:dc:61:
                    b9:15:8f:de:d2:95:36:b2:e8:01:dd:8a:bc:86:d9:
                    03:53:b4:0f:42:32:bd:7b:9c:0d:7d:2f:5d:48:90:
                    28:25:6c:7f:1a:f3:20:9c:19:32:46:b9:dc:1f:6f:
                    11:27:4d:5e:58:ab:1c:dd:45:86:4b:ab:c8:af:85:
                    e5:5d:b9:93:f7:3f:35:17:7f:56:85:97:dc:be:ee:
                    97:45:f9:ee:db:56:9d:d8:79:ca:9d:ff:af:ab:12:
                    69:5d:c6:f4:8b:3c:ee:d1:b5:42:dd:30:8a:40:68:
                    f5:61:52:b0:cb:ae:f9:fd:94:bd:2a:be:2b:98:0f:
                    4e:d0:0c:2e:b6:03:0b:a0:ce:e3:0f:53:0a:6b:10:
                    60:c6:96:6a:a8:ca:9c:d4:79:dd:c6:a7:47:19:06:
                    06:2c:a0:fc:31:e4:2d:fc:9a:8a:72:8e:f9:66:c9:
                    44:5b:8c:27:56:ff:93:59:f0:55:d7:ce:aa:f0:ba:
                    15:c0:c1:10:0d:2d:02:72:92:45:eb:54:03:86:ac:
                    06:0f:67:02:62:80:66:a5:0f:81:a5:a1:ce:27:31:
                    96:54:15:e3:24:61:05:e1:cd:3a:3d:20:89:5f:8b:
                    36:0d:a4:fc:0c:df:03:8c:ee:2a:8f:7e:3e:e1:17:
                    fc:dc:4b
                Exponent: 65537 (0x10001)
        X509v3 extensions:
            X509v3 Basic Constraints: 
                CA:FALSE
            Netscape Comment: 
                VPN User Certificate
            Netscape Cert Type: 
                SSL Client
            X509v3 Key Usage: 
                Digital Signature
            X509v3 Extended Key Usage: 
                TLS Web Client Authentication
            X509v3 Subject Key Identifier: 
                9C:E3:DA:50:82:61:15:93:35:90:66:67:74:25:4A:E3:14:7F:2A:72
            X509v3 Authority Key Identifier: 
                keyid:86:4F:B8:6D:18:2A:1B:3C:8F:27:34:29:F0:81:9F:BA:6E:61:0E:E1
                DirName:/C=CH/ST=Zug/L=Zug/O=Perfect Privacy/CN=Perfect Privacy/emailAddress=admin@perfect-privacy.com
                serial:FA:11:B5:C4:AA:69:AF:69

    Signature Algorithm: sha512WithRSAEncryption
         94:36:4d:68:0b:27:97:aa:90:7a:9b:74:a4:94:c5:34:7b:f7:
         e4:83:2f:75:ad:36:ea:25:dc:51:0d:e8:17:f0:18:8f:f6:41:
         71:97:98:c2:19:26:ea:f4:fe:be:f4:7c:cb:92:e6:d9:71:05:
         cb:dd:49:7d:a1:45:28:7c:bd:33:76:95:81:d5:79:ff:17:aa:
         56:a8:10:42:db:6c:ef:7a:4d:e6:ef:de:cc:1a:5a:4e:29:a5:
         15:71:aa:0d:dd:e1:08:e3:c4:0a:8d:46:c7:42:59:62:30:9d:
         0f:2e:45:6d:97:48:55:69:f5:f8:7c:3b:17:57:e4:36:7e:f2:
         8e:83:40:31:5d:cc:21:ae:6a:26:f6:df:53:1e:45:c5:29:89:
         44:09:72:91:0e:ad:d3:1c:78:5c:ac:64:75:c7:53:d3:b0:49:
         4d:9c:d4:09:22:a3:54:42:92:3b:41:80:c9:84:81:78:79:e7:
         5d:4a:12:6d:b6:e1:27:9a:e4:61:9a:e3:ad:bd:4d:04:5e:81:
         af:ed:5d:4d:30:06:37:ac:4e:01:19:a7:0a:cb:28:28:f5:09:
         ba:3c:b3:6e:90:6c:ed:53:83:2b:59:d8:85:04:57:9d:0e:42:
         17:de:e6:cd:20:94:80:09:d8:7b:56:48:b9:38:31:bb:7a:a8:
         2f:9e:48:86:6c:14:20:de:0f:77:35:45:92:5c:f9:4d:b5:54:
         88:d1:66:db:85:80:94:c0:8f:f2:77:cf:b4:ad:8c:1c:03:7c:
         12:c7:d5:5d:54:33:e5:8c:93:b8:85:bd:d1:32:2b:7a:d5:d3:
         d9:d5:8f:ea:21:1e:1e:94:de:02:b0:24:e3:c0:83:c3:76:d6:
         03:4e:4c:6a:d6:1c:31:84:1c:cb:12:b3:1a:62:7b:a5:e5:b4:
         c4:fa:4c:af:95:c3:24:36:a3:37:69:26:34:0d:48:13:cf:aa:
         61:7a:88:cd:7d:2d:34:57:f0:a2:1b:aa:04:a4:74:39:70:6f:
         2e:0e:0b:2d:c4:75:b3:d2:58:5b:bf:42:f3:f8:3b:d4:06:da:
         82:0d:66:07:a7:b3:e6:5c:ed:56:d8:b8:c0:52:14:01:29:5a:
         0a:4d:f9:d9:86:1d:e6:57:46:f9:cc:58:71:b0:0a:f3:0a:03:
         d6:83:cf:e8:b1:51:41:dc:27:b2:b6:68:86:8c:6e:af:fe:9f:
         ed:bf:64:7e:a2:fc:45:17:41:59:45:9b:22:dc:a3:df:7f:78:
         53:6d:87:c8:8a:6b:39:a3:4a:a7:43:d4:a6:0c:34:a5:19:54:
         cc:48:de:df:05:ee:b1:bb:80:1d:fa:8d:75:9a:69:9a:a0:23:
         24:51:86:3c:31:62:23:58
-----BEGIN CERTIFICATE-----
MIIG4jCCBMqgAwIBAgIJAP49c+VXxJDPMA0GCSqGSIb3DQEBDQUAMIGHMQswCQYD
VQQGEwJDSDEMMAoGA1UECBMDWnVnMQwwCgYDVQQHEwNadWcxGDAWBgNVBAoTD1Bl
cmZlY3QgUHJpdmFjeTEYMBYGA1UEAxMPUGVyZmVjdCBQcml2YWN5MSgwJgYJKoZI
hvcNAQkBFhlhZG1pbkBwZXJmZWN0LXByaXZhY3kuY29tMB4XDTIzMDIxMjAwMDAw
MFoXDTI0MTAwOTAwMDAwMFowgY0xCzAJBgNVBAYTAkNIMQwwCgYDVQQIEwNadWcx
GDAWBgNVBAoTD1BlcmZlY3QgUHJpdmFjeTEsMCoGA1UEAxQjQ2xpZW50X2hvbmdr
b25nLnBlcmZlY3QtcHJpdmFjeS5jb20xKDAmBgkqhkiG9w0BCQEWGWFkbWluQHBl
cmZlY3QtcHJpdmFjeS5jb20wggIiMA0GCSqGSIb3DQEBAQUAA4ICDwAwggIKAoIC
AQDeMsLRHh/7mMUOZzWz/ug5etzSE909wcjuZ/YNudGLxCfC5lI3weSSf9sjZTwJ
eToOHQdedjGmQ892xQavGDo5dASRxvFf4gNGdybntw17Og4xNzUJbzmZC2wSDguP
deTwQI5WAEf8VOIIjmU7mswvLHyB7OyrRO+cUIbBLtU5Ge64281nAIF2XDc784zY
BEDj5alhK+vPOoziI2sfhKWSf2jSoxwfqpvZJK+yKxa+KFqK6XwH0htmfkQBeoch
fHhuqpsESS77HH7ml9q2GDjC9VdjDVu+M7ZdvvpKPYm1aNVPbW0oZSyXSBq3F36C
iYeKdDnVsGSGgU3afQl58l6BEA6QvG5OlW4ftdPcYbkVj97SlTay6AHdiryG2QNT
tA9CMr17nA19L11IkCglbH8a8yCcGTJGudwfbxEnTV5YqxzdRYZLq8ivheVduZP3
PzUXf1aFl9y+7pdF+e7bVp3Yecqd/6+rEmldxvSLPO7RtULdMIpAaPVhUrDLrvn9
lL0qviuYD07QDC62AwugzuMPUwprEGDGlmqoypzUed3Gp0cZBgYsoPwx5C38mopy
jvlmyURbjCdW/5NZ8FXXzqrwuhXAwRANLQJykkXrVAOGrAYPZwJigGalD4Gloc4n
MZZUFeMkYQXhzTo9IIlfizYNpPwM3wOM7iqPfj7hF/zcSwIDAQABo4IBRzCCAUMw
CQYDVR0TBAIwADAjBglghkgBhvhCAQ0EFhYUVlBOIFVzZXIgQ2VydGlmaWNhdGUw
EQYJYIZIAYb4QgEBBAQDAgeAMAsGA1UdDwQEAwIHgDATBgNVHSUEDDAKBggrBgEF
BQcDAjAdBgNVHQ4EFgQUnOPaUIJhFZM1kGZndCVK4xR/KnIwgbwGA1UdIwSBtDCB
sYAUhk+4bRgqGzyPJzQp8IGfum5hDuGhgY2kgYowgYcxCzAJBgNVBAYTAkNIMQww
CgYDVQQIEwNadWcxDDAKBgNVBAcTA1p1ZzEYMBYGA1UEChMPUGVyZmVjdCBQcml2
YWN5MRgwFgYDVQQDEw9QZXJmZWN0IFByaXZhY3kxKDAmBgkqhkiG9w0BCQEWGWFk
bWluQHBlcmZlY3QtcHJpdmFjeS5jb22CCQD6EbXEqmmvaTANBgkqhkiG9w0BAQ0F
AAOCAgEAlDZNaAsnl6qQept0pJTFNHv35IMvda026iXcUQ3oF/AYj/ZBcZeYwhkm
6vT+vvR8y5Lm2XEFy91JfaFFKHy9M3aVgdV5/xeqVqgQQtts73pN5u/ezBpaTiml
FXGqDd3hCOPECo1Gx0JZYjCdDy5FbZdIVWn1+Hw7F1fkNn7yjoNAMV3MIa5qJvbf
Ux5FxSmJRAlykQ6t0xx4XKxkdcdT07BJTZzUCSKjVEKSO0GAyYSBeHnnXUoSbbbh
J5rkYZrjrb1NBF6Br+1dTTAGN6xOARmnCssoKPUJujyzbpBs7VODK1nYhQRXnQ5C
F97mzSCUgAnYe1ZIuTgxu3qoL55IhmwUIN4PdzVFklz5TbVUiNFm24WAlMCP8nfP
tK2MHAN8EsfVXVQz5YyTuIW90TIretXT2dWP6iEeHpTeArAk48CDw3bWA05MatYc
MYQcyxKzGmJ7peW0xPpMr5XDJDajN2kmNA1IE8+qYXqIzX0tNFfwohuqBKR0OXBv
Lg4LLcR1s9JYW79C8/g71Abagg1mB6ez5lztVti4wFIUASlaCk352YYd5ldG+cxY
cbAK8woD1oPP6LFRQdwnsrZohoxur/6f7b9kfqL8RRdBWUWbItyj3394U22HyIpr
OaNKp0PUpgw0pRlUzEje3wXusbuAHfqNdZppmqAjJFGGPDFiI1g=
-----END CERTIFICATE-----
