Certificate:
    Data:
        Version: 3 (0x2)
        Serial Number: 3305645204222874130 (0x2de002cc972d9212)
    Signature Algorithm: sha512WithRSAEncryption
        Issuer: C=CH, ST=Zug, L=Zug, O=Perfect Privacy, CN=Perfect Privacy/emailAddress=admin@perfect-privacy.com
        Validity
            Not Before: Jun  2 00:00:00 2024 GMT
            Not After : Jan 28 00:00:00 2026 GMT
        Subject: C=CH, ST=Zug, O=Perfect Privacy, CN=Client_hamburg.perfect-privacy.com/emailAddress=admin@perfect-privacy.com
        Subject Public Key Info:
            Public Key Algorithm: rsaEncryption
                Public-Key: (4096 bit)
                Modulus:
                    00:c3:53:59:95:12:4e:2c:be:75:ed:1d:12:09:ba:
                    d9:54:0d:eb:80:72:45:c3:1f:43:65:30:99:73:7d:
                    b6:94:85:31:ba:21:9c:94:85:c4:0c:bd:44:71:c6:
                    b1:96:45:de:aa:b5:d1:ec:71:1f:66:65:a8:d6:00:
                    12:79:d4:c6:aa:ee:84:84:63:b9:4a:73:c5:f5:0e:
                    80:d3:47:df:1f:bc:29:d6:01:52:40:de:5c:e9:61:
                    36:6e:e0:f5:75:44:60:0d:e3:0a:39:06:ad:36:f4:
                    a5:27:b7:73:5d:da:5c:d0:50:83:8d:1b:5e:c2:e3:
                    de:55:cc:85:e2:3d:0e:33:8f:c9:6c:34:77:4c:94:
                    c7:d0:01:d6:2d:db:0d:ea:5a:58:d7:13:e7:bb:40:
                    51:2d:d5:34:c5:f1:73:70:56:40:6e:e8:0c:8e:c9:
                    86:51:33:4a:73:d7:2a:6b:a2:b0:98:20:c9:1b:4f:
                    c3:67:8c:9c:bf:e3:17:98:8d:09:14:8a:ca:3a:fa:
                    72:83:cc:f0:8e:c1:6f:2e:af:69:d1:14:25:9b:6f:
                    35:62:ae:49:4b:4b:20:e4:b1:bc:54:ef:aa:71:78:
                    38:e6:ce:76:15:b2:9b:91:c1:86:91:58:0c:d3:43:
                    09:59:a9:d8:52:01:a1:6e:e2:14:f3:33:68:b9:99:
                    25:ab:a9:95:ad:64:20:47:a0:39:0d:e7:82:56:97:
                    0b:dc:22:06:91:da:e0:45:75:40:a6:29:0d:a7:e9:
                    c3:2b:39:cb:d5:49:6c:c8:f6:36:14:a0:78:64:39:
                    ea:a3:fe:84:b8:b1:68:d8:72:2a:28:44:29:4d:ff:
                    28:48:df:92:d6:71:7f:e6:00:96:55:e2:e2:79:5e:
                    e4:98:52:a3:5d:a9:ab:47:62:a8:7b:1b:db:95:8f:
                    42:21:21:ae:55:26:ed:f2:72:ed:89:f5:79:58:d9:
                    5e:37:f8:ac:94:0b:3a:3f:35:bb:01:ec:dd:9d:56:
                    6d:48:8e:9d:d6:52:5d:fc:8c:35:9f:31:df:d7:4f:
                    40:8e:f8:fb:ae:c0:5a:a7:e5:bb:3d:1e:44:7e:76:
                    21:e0:1a:ab:95:5a:70:8e:a7:5d:b5:aa:c7:f1:3c:
                    11:41:b8:b2:a5:ad:56:da:45:bd:e0:a7:26:a9:15:
                    88:c5:46:ad:ef:be:2e:79:b2:09:00:8a:f6:34:7b:
                    57:96:ca:fe:6e:d3:13:f0:99:d4:48:e4:2b:36:71:
                    54:54:01:05:9c:11:09:8e:1d:27:e0:c5:c3:c1:e5:
                    1b:0f:be:68:1a:db:e7:9a:33:81:3a:cf:af:eb:e2:
                    62:f2:d3:56:0e:11:b6:9e:a9:9c:c9:99:81:a3:95:
                    6b:21:e7
                Exponent: 65537 (0x10001)
        X509v3 extensions:
            X509v3 Basic Constraints: 
                CA:FALSE
            Netscape Comment: 
                VPN User Certificate
            Netscape Cert Type: 
                SSL Client
            X509v3 Key Usage: 
                Digital Signature
            X509v3 Extended Key Usage: 
                TLS Web Client Authentication
            X509v3 Subject Key Identifier: 
                2F:FC:0C:B7:C9:4C:6A:66:29:5D:F0:1C:EC:3C:6D:F3:D5:E8:54:0D
            X509v3 Authority Key Identifier: 
                keyid:86:4F:B8:6D:18:2A:1B:3C:8F:27:34:29:F0:81:9F:BA:6E:61:0E:E1
                DirName:/C=CH/ST=Zug/L=Zug/O=Perfect Privacy/CN=Perfect Privacy/emailAddress=admin@perfect-privacy.com
                serial:FA:11:B5:C4:AA:69:AF:69

    Signature Algorithm: sha512WithRSAEncryption
         77:e5:99:d0:0b:d1:ed:2c:e3:b7:18:dd:23:b6:0e:51:ac:50:
         bb:13:e7:ea:b0:90:ff:f8:40:7b:a7:83:18:71:00:ca:c9:e7:
         49:2f:a7:d7:17:dc:a8:fb:7f:3c:37:a0:9b:4b:bb:52:0f:bb:
         e9:dd:ba:16:63:c1:7f:0c:93:3b:81:26:5e:c4:d6:83:12:72:
         85:71:e7:23:97:70:96:23:45:78:a9:b0:67:33:11:b6:22:a2:
         2b:e0:c0:cd:b4:39:c2:4a:cd:a7:78:95:e1:64:96:14:72:e2:
         60:ef:7c:ca:21:e5:fe:19:76:5a:ae:1c:00:86:18:1c:75:dd:
         43:fb:f2:81:f7:28:29:7c:63:9a:9c:00:73:d8:d8:83:21:ab:
         9d:38:81:94:75:12:38:8f:0a:f4:b4:14:1a:4b:59:5a:a1:2c:
         a7:b2:9c:38:b3:84:8f:7e:cc:51:d5:9f:f0:a3:0b:ce:ec:39:
         19:bd:ef:6a:56:7d:8c:9c:10:31:e0:76:d5:59:6b:81:39:85:
         e5:2b:36:c7:2e:49:5d:ab:89:d4:d7:e4:86:1d:38:b8:0c:6e:
         56:5b:49:4f:79:9d:ff:f9:43:c6:9f:04:79:31:25:bf:1a:7b:
         7f:0a:28:a3:c3:93:4c:26:da:08:c1:c7:5c:c4:4b:c2:4c:35:
         50:6a:7c:ff:be:53:7d:11:5b:6b:d4:6f:da:1f:c9:d9:e3:e6:
         2c:b7:2b:20:a1:9a:43:0b:13:e1:ea:97:8c:23:42:b6:2d:6b:
         5f:f0:5c:a3:c1:a6:ab:8a:a4:51:e6:63:a4:b3:9d:08:5c:4e:
         c4:82:18:0b:e5:a3:5b:f3:25:13:1b:54:d8:0d:7d:fc:b6:f6:
         1b:be:4b:7c:1f:8b:d9:80:86:0e:05:eb:75:59:ad:05:b7:d3:
         1d:c0:fc:18:6f:cf:d2:cf:17:a1:14:90:14:05:2a:01:68:7b:
         c6:86:8d:26:c0:67:a5:44:08:6f:a4:01:48:68:97:3e:05:d3:
         cd:53:a4:58:ba:1e:54:17:de:85:49:2e:1d:49:16:3f:9f:2e:
         88:c7:cb:dc:0c:23:c1:7d:92:ec:30:3f:a8:b5:1e:f4:f1:dc:
         04:b8:93:8a:d9:e2:05:91:1a:42:b6:29:4f:29:87:eb:e7:11:
         d7:8a:2a:53:82:5c:48:76:91:6a:09:46:40:0f:a5:73:f1:09:
         c6:02:00:40:bd:94:cf:54:73:5a:fc:55:67:79:9a:39:4a:20:
         5a:3d:e2:a5:0d:ad:26:3e:4c:86:91:a6:22:ad:6a:0c:fe:44:
         7c:60:28:9b:30:ad:00:ad:3e:a2:17:d3:a6:36:91:0d:78:55:
         c8:f9:f0:a4:57:76:a5:bd
-----BEGIN CERTIFICATE-----
MIIG4DCCBMigAwIBAgIILeACzJctkhIwDQYJKoZIhvcNAQENBQAwgYcxCzAJBgNV
BAYTAkNIMQwwCgYDVQQIEwNadWcxDDAKBgNVBAcTA1p1ZzEYMBYGA1UEChMPUGVy
ZmVjdCBQcml2YWN5MRgwFgYDVQQDEw9QZXJmZWN0IFByaXZhY3kxKDAmBgkqhkiG
9w0BCQEWGWFkbWluQHBlcmZlY3QtcHJpdmFjeS5jb20wHhcNMjQwNjAyMDAwMDAw
WhcNMjYwMTI4MDAwMDAwWjCBjDELMAkGA1UEBhMCQ0gxDDAKBgNVBAgTA1p1ZzEY
MBYGA1UEChMPUGVyZmVjdCBQcml2YWN5MSswKQYDVQQDFCJDbGllbnRfaGFtYnVy
Zy5wZXJmZWN0LXByaXZhY3kuY29tMSgwJgYJKoZIhvcNAQkBFhlhZG1pbkBwZXJm
ZWN0LXByaXZhY3kuY29tMIICIjANBgkqhkiG9w0BAQEFAAOCAg8AMIICCgKCAgEA
w1NZlRJOLL517R0SCbrZVA3rgHJFwx9DZTCZc322lIUxuiGclIXEDL1EccaxlkXe
qrXR7HEfZmWo1gASedTGqu6EhGO5SnPF9Q6A00ffH7wp1gFSQN5c6WE2buD1dURg
DeMKOQatNvSlJ7dzXdpc0FCDjRtewuPeVcyF4j0OM4/JbDR3TJTH0AHWLdsN6lpY
1xPnu0BRLdU0xfFzcFZAbugMjsmGUTNKc9cqa6KwmCDJG0/DZ4ycv+MXmI0JFIrK
Ovpyg8zwjsFvLq9p0RQlm281Yq5JS0sg5LG8VO+qcXg45s52FbKbkcGGkVgM00MJ
WanYUgGhbuIU8zNouZklq6mVrWQgR6A5DeeCVpcL3CIGkdrgRXVApikNp+nDKznL
1UlsyPY2FKB4ZDnqo/6EuLFo2HIqKEQpTf8oSN+S1nF/5gCWVeLieV7kmFKjXamr
R2KoexvblY9CISGuVSbt8nLtifV5WNleN/islAs6PzW7AezdnVZtSI6d1lJd/Iw1
nzHf109Ajvj7rsBap+W7PR5EfnYh4BqrlVpwjqddtarH8TwRQbiypa1W2kW94Kcm
qRWIxUat774uebIJAIr2NHtXlsr+btMT8JnUSOQrNnFUVAEFnBEJjh0n4MXDweUb
D75oGtvnmjOBOs+v6+Ji8tNWDhG2nqmcyZmBo5VrIecCAwEAAaOCAUcwggFDMAkG
A1UdEwQCMAAwIwYJYIZIAYb4QgENBBYWFFZQTiBVc2VyIENlcnRpZmljYXRlMBEG
CWCGSAGG+EIBAQQEAwIHgDALBgNVHQ8EBAMCB4AwEwYDVR0lBAwwCgYIKwYBBQUH
AwIwHQYDVR0OBBYEFC/8DLfJTGpmKV3wHOw8bfPV6FQNMIG8BgNVHSMEgbQwgbGA
FIZPuG0YKhs8jyc0KfCBn7puYQ7hoYGNpIGKMIGHMQswCQYDVQQGEwJDSDEMMAoG
A1UECBMDWnVnMQwwCgYDVQQHEwNadWcxGDAWBgNVBAoTD1BlcmZlY3QgUHJpdmFj
eTEYMBYGA1UEAxMPUGVyZmVjdCBQcml2YWN5MSgwJgYJKoZIhvcNAQkBFhlhZG1p
bkBwZXJmZWN0LXByaXZhY3kuY29tggkA+hG1xKppr2kwDQYJKoZIhvcNAQENBQAD
ggIBAHflmdAL0e0s47cY3SO2DlGsULsT5+qwkP/4QHungxhxAMrJ50kvp9cX3Kj7
fzw3oJtLu1IPu+nduhZjwX8MkzuBJl7E1oMScoVx5yOXcJYjRXipsGczEbYioivg
wM20OcJKzad4leFklhRy4mDvfMoh5f4ZdlquHACGGBx13UP78oH3KCl8Y5qcAHPY
2IMhq504gZR1EjiPCvS0FBpLWVqhLKeynDizhI9+zFHVn/CjC87sORm972pWfYyc
EDHgdtVZa4E5heUrNscuSV2ridTX5IYdOLgMblZbSU95nf/5Q8afBHkxJb8ae38K
KKPDk0wm2gjBx1zES8JMNVBqfP++U30RW2vUb9ofydnj5iy3KyChmkMLE+Hql4wj
QrYta1/wXKPBpquKpFHmY6SznQhcTsSCGAvlo1vzJRMbVNgNffy29hu+S3wfi9mA
hg4F63VZrQW30x3A/Bhvz9LPF6EUkBQFKgFoe8aGjSbAZ6VECG+kAUholz4F081T
pFi6HlQX3oVJLh1JFj+fLojHy9wMI8F9kuwwP6i1HvTx3AS4k4rZ4gWRGkK2KU8p
h+vnEdeKKlOCXEh2kWoJRkAPpXPxCcYCAEC9lM9Uc1r8VWd5mjlKIFo94qUNrSY+
TIaRpiKtagz+RHxgKJswrQCtPqIX06Y2kQ14Vcj58KRXdqW9
-----END CERTIFICATE-----
