Certificate:
    Data:
        Version: 3 (0x2)
        Serial Number: 8043706759692026912 (0x6fa0fcae38da0420)
    Signature Algorithm: sha512WithRSAEncryption
        Issuer: C=CH, ST=Zug, L=Zug, O=Perfect Privacy, CN=Perfect Privacy/emailAddress=admin@perfect-privacy.com
        Validity
            Not Before: Jan  7 00:00:00 2023 GMT
            Not After : Sep  3 00:00:00 2024 GMT
        Subject: C=CH, ST=Zug, O=Perfect Privacy, CN=Client_hamburg.perfect-privacy.com/emailAddress=admin@perfect-privacy.com
        Subject Public Key Info:
            Public Key Algorithm: rsaEncryption
                Public-Key: (4096 bit)
                Modulus:
                    00:a4:fa:f3:fe:ca:80:e2:c0:3b:03:79:b9:8d:b8:
                    1b:39:1f:96:58:eb:64:51:73:d9:0a:4c:65:d4:8b:
                    01:81:2f:25:37:4f:3f:33:98:0d:a6:21:b3:af:9a:
                    d4:67:95:f4:49:86:2f:f5:b4:6c:ac:46:30:37:54:
                    a2:f6:b1:46:5f:cd:3d:20:7a:67:91:b9:33:28:6f:
                    62:90:ba:7d:f9:5b:98:60:66:8c:a3:09:6b:63:4f:
                    22:b1:a7:83:20:bb:b0:00:31:6e:32:d5:48:73:48:
                    8b:d5:44:ef:00:cf:d9:bd:c8:4e:1c:21:3c:4b:b8:
                    75:5b:d4:03:a4:73:c9:71:d0:a8:db:a0:6a:7d:a4:
                    5d:af:48:13:b0:3e:b6:cc:d2:c3:f5:0e:f9:93:26:
                    d9:1e:58:fa:52:a4:f2:71:5c:df:05:0a:1f:72:48:
                    86:6f:23:4c:49:74:0e:7d:6a:80:28:3d:cb:a5:76:
                    c1:3f:65:f0:6b:76:e7:f5:f5:79:c9:51:70:62:1b:
                    71:75:0b:d0:ec:2a:04:20:f4:6b:23:02:85:47:37:
                    97:9d:90:fb:da:63:d4:14:57:26:75:02:86:d6:d2:
                    2f:cd:01:86:7a:1b:40:cd:89:56:ea:d1:ab:08:31:
                    ac:c9:2b:0e:d8:34:df:aa:a0:27:6e:e4:17:a5:2c:
                    c9:b2:12:c9:95:27:13:c1:79:0d:03:d6:b9:4a:1a:
                    b7:4a:50:88:4b:58:59:5f:e1:36:ec:2e:b9:a0:17:
                    8f:f3:61:7d:5e:22:8c:38:d9:79:17:78:77:ce:c5:
                    f3:b4:a9:7b:c5:71:0f:ca:de:7b:2f:99:b4:36:8e:
                    09:87:a3:02:36:5a:56:75:c8:95:22:a3:91:59:3e:
                    33:6b:91:4b:f3:55:a6:83:72:ed:0b:ce:41:d6:df:
                    ee:3f:2a:61:0a:d1:5b:a1:1f:bb:77:fd:b9:ba:57:
                    2d:bd:e2:f6:01:60:01:79:ce:ab:fe:70:98:f0:c0:
                    18:a3:06:12:01:20:f6:74:95:6e:89:01:22:c7:b4:
                    02:30:e1:3b:5e:79:db:e2:94:51:43:07:55:de:2b:
                    32:03:56:ab:23:41:6b:7c:0e:15:ef:ee:af:01:56:
                    42:09:74:c9:6f:27:d5:10:28:cd:1c:c4:7b:10:b7:
                    23:2c:bc:01:58:41:4e:eb:c9:54:23:10:58:53:ed:
                    9d:a2:89:19:a9:67:fd:65:06:9d:30:48:66:23:61:
                    a8:69:46:72:07:84:bd:1c:88:18:94:4f:72:5f:16:
                    04:fc:a7:ea:88:50:58:cd:14:76:38:39:5d:c8:de:
                    a2:e7:80:20:c7:c0:6c:7d:39:f9:f9:f4:ee:27:da:
                    bc:69:6d
                Exponent: 65537 (0x10001)
        X509v3 extensions:
            X509v3 Basic Constraints: 
                CA:FALSE
            Netscape Comment: 
                VPN User Certificate
            Netscape Cert Type: 
                SSL Client
            X509v3 Key Usage: 
                Digital Signature
            X509v3 Extended Key Usage: 
                TLS Web Client Authentication
            X509v3 Subject Key Identifier: 
                29:5E:0F:42:AA:D0:EA:42:3C:CB:74:5A:DC:93:7F:69:39:E7:E5:DC
            X509v3 Authority Key Identifier: 
                keyid:86:4F:B8:6D:18:2A:1B:3C:8F:27:34:29:F0:81:9F:BA:6E:61:0E:E1
                DirName:/C=CH/ST=Zug/L=Zug/O=Perfect Privacy/CN=Perfect Privacy/emailAddress=admin@perfect-privacy.com
                serial:FA:11:B5:C4:AA:69:AF:69

    Signature Algorithm: sha512WithRSAEncryption
         27:47:60:67:df:a6:2d:09:c2:72:ee:ca:34:2a:cd:89:e7:95:
         90:74:8d:a9:28:b7:4c:42:bd:52:9c:50:ab:0f:0a:9c:f2:1d:
         bc:93:43:8e:71:27:9a:a7:0a:1f:d8:b2:4c:32:c6:7d:c5:1f:
         5f:12:3e:55:c7:7a:0a:a2:4f:35:8c:38:56:48:db:d7:1e:1a:
         50:c7:1e:f1:63:dc:7b:32:dc:15:e0:b9:33:25:db:b0:ad:88:
         74:36:c0:84:61:f0:cf:00:23:a9:3b:71:62:77:a4:75:8c:d8:
         c9:7a:00:71:f4:5a:45:35:98:57:bc:d8:b2:3d:47:70:12:91:
         34:bb:27:a4:79:d9:c8:96:fc:2c:fd:c2:a7:6c:ea:1b:b2:73:
         50:16:41:f0:b8:63:e2:18:54:91:57:f1:61:bf:cb:4b:12:5b:
         17:cf:28:32:d9:1d:c3:54:a2:a5:9f:94:32:ac:50:c4:41:bb:
         92:81:6f:af:88:01:72:28:1b:93:36:77:a4:df:eb:5b:39:94:
         68:a4:37:78:e4:01:9b:8b:f9:50:b7:30:0c:ee:d2:b1:51:83:
         da:50:e2:a4:c1:53:9c:b6:1d:05:27:9c:1d:5b:2b:7a:78:65:
         06:ab:27:10:7b:d8:65:f0:da:92:65:fd:ad:53:18:98:92:31:
         70:31:59:dc:3f:94:96:d5:96:d5:08:d6:78:5a:5e:0f:2a:1f:
         55:63:2f:ce:03:66:b8:36:7c:d0:b3:dc:73:8e:45:87:0a:ab:
         a9:f5:8f:5a:aa:24:fe:59:11:f0:d2:73:f4:fa:e9:96:8d:32:
         dc:74:99:e3:8b:2f:c9:fe:78:cc:53:43:b4:ad:a7:3e:a9:73:
         65:92:80:da:79:b7:5c:97:17:3c:44:60:b5:1d:63:6e:41:0e:
         72:5c:33:7b:44:65:f8:fe:ce:24:0a:3e:a9:71:94:e3:d0:36:
         d0:4b:4f:82:e6:8b:8d:e3:ac:f0:a7:93:26:b8:62:3f:e1:51:
         cd:7f:2e:ab:a7:e3:99:0f:f1:88:5a:fb:e3:e6:30:a7:c1:39:
         d2:53:7d:ea:57:46:b1:f0:b0:64:02:e6:80:6a:76:2e:6e:fe:
         13:4e:69:b2:f5:2f:2b:61:12:e1:0a:e0:0f:0e:3e:bd:33:d6:
         d6:d5:05:36:a4:8d:20:68:8a:3a:9f:a4:f8:85:13:a8:24:89:
         68:1d:a1:18:86:3b:85:1d:cf:2f:cf:aa:82:0c:e8:24:c3:68:
         c4:50:91:63:86:21:64:62:fd:78:63:9a:78:a5:36:36:e1:a0:
         b8:7f:72:62:d0:7f:e9:e6:db:ff:72:69:f5:57:5a:ed:3f:5c:
         c8:fd:31:4b:56:51:af:23
-----BEGIN CERTIFICATE-----
MIIG4DCCBMigAwIBAgIIb6D8rjjaBCAwDQYJKoZIhvcNAQENBQAwgYcxCzAJBgNV
BAYTAkNIMQwwCgYDVQQIEwNadWcxDDAKBgNVBAcTA1p1ZzEYMBYGA1UEChMPUGVy
ZmVjdCBQcml2YWN5MRgwFgYDVQQDEw9QZXJmZWN0IFByaXZhY3kxKDAmBgkqhkiG
9w0BCQEWGWFkbWluQHBlcmZlY3QtcHJpdmFjeS5jb20wHhcNMjMwMTA3MDAwMDAw
WhcNMjQwOTAzMDAwMDAwWjCBjDELMAkGA1UEBhMCQ0gxDDAKBgNVBAgTA1p1ZzEY
MBYGA1UEChMPUGVyZmVjdCBQcml2YWN5MSswKQYDVQQDFCJDbGllbnRfaGFtYnVy
Zy5wZXJmZWN0LXByaXZhY3kuY29tMSgwJgYJKoZIhvcNAQkBFhlhZG1pbkBwZXJm
ZWN0LXByaXZhY3kuY29tMIICIjANBgkqhkiG9w0BAQEFAAOCAg8AMIICCgKCAgEA
pPrz/sqA4sA7A3m5jbgbOR+WWOtkUXPZCkxl1IsBgS8lN08/M5gNpiGzr5rUZ5X0
SYYv9bRsrEYwN1Si9rFGX809IHpnkbkzKG9ikLp9+VuYYGaMowlrY08isaeDILuw
ADFuMtVIc0iL1UTvAM/ZvchOHCE8S7h1W9QDpHPJcdCo26BqfaRdr0gTsD62zNLD
9Q75kybZHlj6UqTycVzfBQofckiGbyNMSXQOfWqAKD3LpXbBP2Xwa3bn9fV5yVFw
YhtxdQvQ7CoEIPRrIwKFRzeXnZD72mPUFFcmdQKG1tIvzQGGehtAzYlW6tGrCDGs
ySsO2DTfqqAnbuQXpSzJshLJlScTwXkNA9a5Shq3SlCIS1hZX+E27C65oBeP82F9
XiKMONl5F3h3zsXztKl7xXEPyt57L5m0No4Jh6MCNlpWdciVIqORWT4za5FL81Wm
g3LtC85B1t/uPyphCtFboR+7d/25ulctveL2AWABec6r/nCY8MAYowYSASD2dJVu
iQEix7QCMOE7Xnnb4pRRQwdV3isyA1arI0FrfA4V7+6vAVZCCXTJbyfVECjNHMR7
ELcjLLwBWEFO68lUIxBYU+2dookZqWf9ZQadMEhmI2GoaUZyB4S9HIgYlE9yXxYE
/KfqiFBYzRR2ODldyN6i54Agx8BsfTn5+fTuJ9q8aW0CAwEAAaOCAUcwggFDMAkG
A1UdEwQCMAAwIwYJYIZIAYb4QgENBBYWFFZQTiBVc2VyIENlcnRpZmljYXRlMBEG
CWCGSAGG+EIBAQQEAwIHgDALBgNVHQ8EBAMCB4AwEwYDVR0lBAwwCgYIKwYBBQUH
AwIwHQYDVR0OBBYEFCleD0Kq0OpCPMt0WtyTf2k55+XcMIG8BgNVHSMEgbQwgbGA
FIZPuG0YKhs8jyc0KfCBn7puYQ7hoYGNpIGKMIGHMQswCQYDVQQGEwJDSDEMMAoG
A1UECBMDWnVnMQwwCgYDVQQHEwNadWcxGDAWBgNVBAoTD1BlcmZlY3QgUHJpdmFj
eTEYMBYGA1UEAxMPUGVyZmVjdCBQcml2YWN5MSgwJgYJKoZIhvcNAQkBFhlhZG1p
bkBwZXJmZWN0LXByaXZhY3kuY29tggkA+hG1xKppr2kwDQYJKoZIhvcNAQENBQAD
ggIBACdHYGffpi0JwnLuyjQqzYnnlZB0jakot0xCvVKcUKsPCpzyHbyTQ45xJ5qn
Ch/Yskwyxn3FH18SPlXHegqiTzWMOFZI29ceGlDHHvFj3Hsy3BXguTMl27CtiHQ2
wIRh8M8AI6k7cWJ3pHWM2Ml6AHH0WkU1mFe82LI9R3ASkTS7J6R52ciW/Cz9wqds
6huyc1AWQfC4Y+IYVJFX8WG/y0sSWxfPKDLZHcNUoqWflDKsUMRBu5KBb6+IAXIo
G5M2d6Tf61s5lGikN3jkAZuL+VC3MAzu0rFRg9pQ4qTBU5y2HQUnnB1bK3p4ZQar
JxB72GXw2pJl/a1TGJiSMXAxWdw/lJbVltUI1nhaXg8qH1VjL84DZrg2fNCz3HOO
RYcKq6n1j1qqJP5ZEfDSc/T66ZaNMtx0meOLL8n+eMxTQ7Stpz6pc2WSgNp5t1yX
FzxEYLUdY25BDnJcM3tEZfj+ziQKPqlxlOPQNtBLT4Lmi43jrPCnkya4Yj/hUc1/
Lqun45kP8Yha++PmMKfBOdJTfepXRrHwsGQC5oBqdi5u/hNOabL1LythEuEK4A8O
Pr0z1tbVBTakjSBoijqfpPiFE6gkiWgdoRiGO4Udzy/PqoIM6CTDaMRQkWOGIWRi
/XhjmnilNjbhoLh/cmLQf+nm2/9yafVXWu0/XMj9MUtWUa8j
-----END CERTIFICATE-----
