Certificate:
    Data:
        Version: 3 (0x2)
        Serial Number:
            d5:f2:81:77:03:af:db:7d
    Signature Algorithm: sha512WithRSAEncryption
        Issuer: C=CH, ST=Zug, L=Zug, O=Perfect Privacy, CN=Perfect Privacy/emailAddress=admin@perfect-privacy.com
        Validity
            Not Before: Jun 16 00:00:00 2023 GMT
            Not After : Feb 10 00:00:00 2025 GMT
        Subject: C=CH, ST=Zug, O=Perfect Privacy, CN=Client_jerusalem.perfect-privacy.com/emailAddress=admin@perfect-privacy.com
        Subject Public Key Info:
            Public Key Algorithm: rsaEncryption
                Public-Key: (4096 bit)
                Modulus:
                    00:cb:dd:78:af:93:1c:16:45:2a:db:41:c8:75:b8:
                    d0:0f:5f:58:ce:97:59:7f:2e:c1:6e:f5:1a:86:ca:
                    2e:84:42:43:ad:8e:11:0c:7c:74:92:40:27:94:42:
                    08:1c:16:83:f4:40:8a:94:0c:d1:cb:4c:45:6b:ed:
                    71:3d:4c:e5:bf:a7:83:b5:27:08:1a:fc:12:bf:44:
                    90:3e:4c:95:25:56:9e:6a:54:2c:72:cf:4d:68:3c:
                    36:26:71:eb:58:06:6b:a8:1b:b8:33:24:95:42:56:
                    80:e5:b4:18:b1:0b:f2:51:92:5b:9a:2f:b3:eb:bf:
                    02:0b:08:be:7f:e8:03:60:e1:c1:32:02:6a:bd:4b:
                    ea:e7:6b:26:1c:13:f2:e7:07:6d:09:16:1f:cd:26:
                    37:9f:7c:9d:72:4e:92:b7:9a:e9:7e:5a:25:6c:86:
                    82:bc:73:f2:8b:7e:94:69:67:7d:ee:80:33:da:2c:
                    14:90:dd:3c:a2:c4:9b:34:aa:33:2a:3b:fe:ea:b8:
                    77:83:22:4a:94:93:d8:eb:10:36:c7:cd:ff:64:f9:
                    2e:01:28:13:58:84:0b:c0:b4:f3:a0:62:5f:16:b3:
                    df:df:56:4e:98:d1:e1:d8:f1:d8:0c:33:96:ae:a6:
                    37:bd:2b:6e:71:73:3b:81:20:41:85:02:95:76:8f:
                    55:aa:22:1d:73:a7:66:16:96:ba:16:7a:4f:cf:f4:
                    aa:5c:fb:77:eb:a9:e0:a4:ca:63:17:32:2d:02:68:
                    8a:f3:18:62:37:93:35:12:dc:78:f2:8e:13:4a:03:
                    e8:c5:3e:04:10:45:47:08:91:2f:6d:27:6e:b3:94:
                    c2:5f:be:45:20:2e:f3:7e:d6:c5:2e:eb:96:3c:2e:
                    ec:ad:3d:e6:c4:f6:c7:35:a1:86:9f:2a:d8:82:5f:
                    e4:8e:46:c5:fa:07:79:e8:be:40:0b:f7:4d:b6:2a:
                    a1:79:50:bd:3e:bf:1b:d4:2a:91:a5:47:fe:b4:82:
                    94:9a:c9:49:7d:21:d5:64:85:90:64:80:0f:63:2c:
                    2b:55:46:c9:72:9c:13:84:09:48:29:e7:4f:a7:a3:
                    cf:97:9b:f3:4f:d2:c6:ce:fc:96:06:7b:cc:72:42:
                    32:80:35:d1:06:3b:b4:fe:1c:94:81:60:1d:4d:ff:
                    80:4c:aa:f9:b5:0a:58:f2:48:90:d9:8f:d7:6c:e6:
                    22:d3:60:0c:a3:ad:05:b7:d3:a8:b8:7c:0d:86:35:
                    78:42:e8:f9:2d:81:73:97:74:e6:e8:28:27:11:8d:
                    8b:c0:04:36:b2:ce:68:d3:02:ef:e3:2a:d3:73:34:
                    bb:6e:af:4b:95:14:41:fa:e9:f9:b8:47:fe:33:59:
                    a9:91:af
                Exponent: 65537 (0x10001)
        X509v3 extensions:
            X509v3 Basic Constraints: 
                CA:FALSE
            Netscape Comment: 
                VPN User Certificate
            Netscape Cert Type: 
                SSL Client
            X509v3 Key Usage: 
                Digital Signature
            X509v3 Extended Key Usage: 
                TLS Web Client Authentication
            X509v3 Subject Key Identifier: 
                FE:D8:B5:48:13:6E:D6:23:09:99:37:CD:4D:19:88:2B:7D:C1:32:3F
            X509v3 Authority Key Identifier: 
                keyid:86:4F:B8:6D:18:2A:1B:3C:8F:27:34:29:F0:81:9F:BA:6E:61:0E:E1
                DirName:/C=CH/ST=Zug/L=Zug/O=Perfect Privacy/CN=Perfect Privacy/emailAddress=admin@perfect-privacy.com
                serial:FA:11:B5:C4:AA:69:AF:69

    Signature Algorithm: sha512WithRSAEncryption
         2b:12:b2:1d:85:4b:02:70:76:43:9c:17:38:8c:cd:d8:b3:25:
         11:7a:71:32:28:b0:8e:44:2c:37:9c:25:38:a6:b7:ae:9e:62:
         83:d9:13:fa:70:35:13:e5:09:43:bc:c1:52:e5:dc:49:b6:aa:
         5e:ba:ad:f1:92:89:ff:b6:d5:96:c7:75:83:ed:7a:aa:75:96:
         77:90:b8:ed:44:9c:52:95:4c:ea:54:ff:e7:92:29:21:da:19:
         7b:04:c1:56:40:66:d6:ef:9a:ea:cc:cd:ab:8d:75:2b:d5:74:
         a6:a4:80:64:d6:60:5f:2e:a0:c5:b4:3f:0f:c4:ad:49:db:16:
         f6:46:3b:73:08:b0:64:8f:96:50:05:9e:9f:18:6d:63:f8:4d:
         f0:19:a6:bd:48:43:67:40:00:2d:b5:2b:ac:50:9f:11:b9:ff:
         46:ac:bc:32:ed:a9:1c:c0:e2:e5:ef:ca:d4:13:b1:86:23:46:
         f3:05:0c:79:ba:55:07:8f:93:28:03:8e:9d:c8:63:66:38:03:
         f6:aa:e8:e0:a7:d9:06:08:72:7b:27:be:fd:56:03:d7:30:6e:
         35:34:a6:f8:65:a8:ac:c7:85:e2:89:76:1a:54:6d:22:fc:8d:
         25:0e:ed:eb:dc:45:79:c0:cc:0d:f2:af:7a:e0:14:3b:f3:e4:
         07:7f:8a:44:e4:fc:fd:9a:f7:04:98:3e:93:3b:3d:16:92:b1:
         34:1c:85:31:87:e1:84:ab:fa:bf:eb:ae:f2:a7:9b:0d:86:e1:
         68:d2:5b:b2:14:80:db:a3:36:ae:7d:35:c5:f6:ab:c5:59:0f:
         34:d0:72:af:2a:7a:d8:7d:b5:30:5e:d7:85:5a:49:cb:b5:98:
         c7:6e:16:bf:4f:a3:47:94:9e:11:2a:f1:ae:92:f2:11:87:3f:
         45:2f:9f:cf:dd:0e:c8:8b:07:02:34:83:73:49:d8:30:cd:01:
         01:7e:f9:35:aa:98:74:71:b6:50:04:25:5d:7b:a4:3f:41:b2:
         50:76:1d:61:51:d3:e6:c2:8e:e0:56:6c:39:17:55:2e:18:51:
         e2:39:65:71:ec:17:40:d8:6b:ce:01:45:fc:fb:82:90:fa:02:
         0e:7c:6c:68:09:bc:ac:31:7c:e8:e8:d4:23:c1:f2:91:27:ae:
         0a:e0:cf:7a:ed:ce:4d:9f:9d:43:b6:a3:55:0c:8c:87:bd:b0:
         63:dc:5e:24:ff:4a:9e:6c:c4:f7:13:5d:6f:08:f4:3f:98:db:
         ad:02:db:f4:a5:f4:5c:bc:9f:49:7e:45:43:9f:dd:a1:15:42:
         d6:76:df:eb:b2:01:ea:e7:fe:db:47:da:8b:e0:4c:95:7b:ad:
         51:36:f8:b0:0d:2e:80:09
-----BEGIN CERTIFICATE-----
MIIG4zCCBMugAwIBAgIJANXygXcDr9t9MA0GCSqGSIb3DQEBDQUAMIGHMQswCQYD
VQQGEwJDSDEMMAoGA1UECBMDWnVnMQwwCgYDVQQHEwNadWcxGDAWBgNVBAoTD1Bl
cmZlY3QgUHJpdmFjeTEYMBYGA1UEAxMPUGVyZmVjdCBQcml2YWN5MSgwJgYJKoZI
hvcNAQkBFhlhZG1pbkBwZXJmZWN0LXByaXZhY3kuY29tMB4XDTIzMDYxNjAwMDAw
MFoXDTI1MDIxMDAwMDAwMFowgY4xCzAJBgNVBAYTAkNIMQwwCgYDVQQIEwNadWcx
GDAWBgNVBAoTD1BlcmZlY3QgUHJpdmFjeTEtMCsGA1UEAxQkQ2xpZW50X2plcnVz
YWxlbS5wZXJmZWN0LXByaXZhY3kuY29tMSgwJgYJKoZIhvcNAQkBFhlhZG1pbkBw
ZXJmZWN0LXByaXZhY3kuY29tMIICIjANBgkqhkiG9w0BAQEFAAOCAg8AMIICCgKC
AgEAy914r5McFkUq20HIdbjQD19YzpdZfy7BbvUahsouhEJDrY4RDHx0kkAnlEII
HBaD9ECKlAzRy0xFa+1xPUzlv6eDtScIGvwSv0SQPkyVJVaealQscs9NaDw2JnHr
WAZrqBu4MySVQlaA5bQYsQvyUZJbmi+z678CCwi+f+gDYOHBMgJqvUvq52smHBPy
5wdtCRYfzSY3n3ydck6St5rpflolbIaCvHPyi36UaWd97oAz2iwUkN08osSbNKoz
Kjv+6rh3gyJKlJPY6xA2x83/ZPkuASgTWIQLwLTzoGJfFrPf31ZOmNHh2PHYDDOW
rqY3vStucXM7gSBBhQKVdo9VqiIdc6dmFpa6FnpPz/SqXPt366ngpMpjFzItAmiK
8xhiN5M1Etx48o4TSgPoxT4EEEVHCJEvbSdus5TCX75FIC7zftbFLuuWPC7srT3m
xPbHNaGGnyrYgl/kjkbF+gd56L5AC/dNtiqheVC9Pr8b1CqRpUf+tIKUmslJfSHV
ZIWQZIAPYywrVUbJcpwThAlIKedPp6PPl5vzT9LGzvyWBnvMckIygDXRBju0/hyU
gWAdTf+ATKr5tQpY8kiQ2Y/XbOYi02AMo60Ft9OouHwNhjV4Quj5LYFzl3Tm6Cgn
EY2LwAQ2ss5o0wLv4yrTczS7bq9LlRRB+un5uEf+M1mpka8CAwEAAaOCAUcwggFD
MAkGA1UdEwQCMAAwIwYJYIZIAYb4QgENBBYWFFZQTiBVc2VyIENlcnRpZmljYXRl
MBEGCWCGSAGG+EIBAQQEAwIHgDALBgNVHQ8EBAMCB4AwEwYDVR0lBAwwCgYIKwYB
BQUHAwIwHQYDVR0OBBYEFP7YtUgTbtYjCZk3zU0ZiCt9wTI/MIG8BgNVHSMEgbQw
gbGAFIZPuG0YKhs8jyc0KfCBn7puYQ7hoYGNpIGKMIGHMQswCQYDVQQGEwJDSDEM
MAoGA1UECBMDWnVnMQwwCgYDVQQHEwNadWcxGDAWBgNVBAoTD1BlcmZlY3QgUHJp
dmFjeTEYMBYGA1UEAxMPUGVyZmVjdCBQcml2YWN5MSgwJgYJKoZIhvcNAQkBFhlh
ZG1pbkBwZXJmZWN0LXByaXZhY3kuY29tggkA+hG1xKppr2kwDQYJKoZIhvcNAQEN
BQADggIBACsSsh2FSwJwdkOcFziMzdizJRF6cTIosI5ELDecJTimt66eYoPZE/pw
NRPlCUO8wVLl3Em2ql66rfGSif+21ZbHdYPteqp1lneQuO1EnFKVTOpU/+eSKSHa
GXsEwVZAZtbvmurMzauNdSvVdKakgGTWYF8uoMW0Pw/ErUnbFvZGO3MIsGSPllAF
np8YbWP4TfAZpr1IQ2dAAC21K6xQnxG5/0asvDLtqRzA4uXvytQTsYYjRvMFDHm6
VQePkygDjp3IY2Y4A/aq6OCn2QYIcnsnvv1WA9cwbjU0pvhlqKzHheKJdhpUbSL8
jSUO7evcRXnAzA3yr3rgFDvz5Ad/ikTk/P2a9wSYPpM7PRaSsTQchTGH4YSr+r/r
rvKnmw2G4WjSW7IUgNujNq59NcX2q8VZDzTQcq8qeth9tTBe14VaScu1mMduFr9P
o0eUnhEq8a6S8hGHP0Uvn8/dDsiLBwI0g3NJ2DDNAQF++TWqmHRxtlAEJV17pD9B
slB2HWFR0+bCjuBWbDkXVS4YUeI5ZXHsF0DYa84BRfz7gpD6Ag58bGgJvKwxfOjo
1CPB8pEnrgrgz3rtzk2fnUO2o1UMjIe9sGPcXiT/Sp5sxPcTXW8I9D+Y260C2/Sl
9Fy8n0l+RUOf3aEVQtZ23+uyAern/ttH2ovgTJV7rVE2+LANLoAJ
-----END CERTIFICATE-----
