Certificate:
    Data:
        Version: 3 (0x2)
        Serial Number: 3232959318804471374 (0x2cddc75f1aa11e4e)
    Signature Algorithm: sha512WithRSAEncryption
        Issuer: C=CH, ST=Zug, L=Zug, O=Perfect Privacy, CN=Perfect Privacy/emailAddress=admin@perfect-privacy.com
        Validity
            Not Before: Dec  2 00:00:00 2022 GMT
            Not After : Jul 29 00:00:00 2024 GMT
        Subject: C=CH, ST=Zug, O=Perfect Privacy, CN=Client_jerusalem.perfect-privacy.com/emailAddress=admin@perfect-privacy.com
        Subject Public Key Info:
            Public Key Algorithm: rsaEncryption
                Public-Key: (4096 bit)
                Modulus:
                    00:d3:16:7d:da:58:c7:0b:06:9d:04:02:59:3f:ea:
                    d3:3b:18:0c:eb:38:bd:84:32:df:7d:b0:ff:57:04:
                    66:ee:9f:17:54:c9:9d:4a:da:ba:7e:70:4b:b3:c9:
                    aa:15:5b:07:c7:b9:dd:b5:a6:49:68:5d:30:d5:46:
                    02:c3:fc:1c:f0:b2:f6:4e:3c:ea:59:e2:ad:35:4c:
                    61:59:cd:c4:7a:d2:81:82:2a:21:41:af:15:df:3f:
                    cc:ba:e8:e7:84:37:0b:bf:be:48:d4:a9:4f:ce:96:
                    49:45:0b:ed:6a:d3:5b:13:9a:67:59:40:0e:ee:1e:
                    11:9d:5c:4d:f2:29:b7:c3:3c:5f:5e:15:6a:8f:bc:
                    47:e7:af:16:15:75:5e:ae:da:fe:9b:c8:3c:ae:fb:
                    5f:d4:23:0b:24:f2:ac:e6:ad:ca:8f:62:08:c3:b3:
                    c7:36:4b:70:85:93:79:b9:ac:b0:73:4a:27:58:57:
                    58:5e:39:4e:06:a0:0b:f3:47:e9:98:e4:1c:b6:18:
                    dc:02:bf:a1:d5:64:f6:d4:44:8a:da:dc:6b:a2:c4:
                    66:2b:dc:4a:b0:d4:f4:1f:a1:7c:96:49:0f:5f:bf:
                    c5:e8:95:88:b0:67:98:7a:54:a4:88:3c:a3:70:b3:
                    2f:af:c1:af:57:af:ad:e2:28:b2:96:42:d1:2d:b1:
                    39:4e:8e:69:41:ab:1c:ae:8b:17:8a:75:89:28:7f:
                    37:6d:b3:55:29:bc:c1:e1:a2:df:5d:ce:3d:5b:6c:
                    40:7a:36:cd:53:d1:41:d3:dc:36:3b:af:8c:7d:c4:
                    03:9e:30:25:e0:8c:67:5f:4b:e7:f0:56:d8:45:fb:
                    af:6b:26:67:b7:4f:72:82:a0:ab:a9:68:77:86:01:
                    df:30:8c:44:a4:ca:8a:bc:b7:2a:00:63:7e:a9:a7:
                    e6:e0:f6:c9:ec:33:d7:a9:a1:ad:84:3e:3e:a1:cf:
                    81:b4:49:14:09:0d:11:e7:9e:b5:47:fe:79:30:fe:
                    d5:cb:cd:bb:38:6a:95:10:7e:03:8a:38:70:d7:0d:
                    5c:77:bc:b9:78:e6:5a:9c:02:5b:96:dc:69:fd:0d:
                    e1:74:d4:8a:3a:d3:04:ab:0f:5d:d9:74:83:fe:b1:
                    08:80:7e:b6:3e:1d:0d:a0:9f:d3:2d:f9:1c:8e:a2:
                    2c:07:7f:25:e1:9c:5e:d1:ab:33:94:18:ab:ef:aa:
                    72:b6:bf:da:c5:52:db:d7:38:49:d2:ff:25:84:e7:
                    88:15:62:59:25:1d:10:0f:d5:2d:b0:aa:a9:8a:0b:
                    0f:5c:39:93:66:3c:f0:5a:2a:81:bd:aa:79:40:ec:
                    db:56:36:58:e8:57:6b:56:bf:a5:79:05:b3:ae:6a:
                    7f:23:49
                Exponent: 65537 (0x10001)
        X509v3 extensions:
            X509v3 Basic Constraints: 
                CA:FALSE
            Netscape Comment: 
                VPN User Certificate
            Netscape Cert Type: 
                SSL Client
            X509v3 Key Usage: 
                Digital Signature
            X509v3 Extended Key Usage: 
                TLS Web Client Authentication
            X509v3 Subject Key Identifier: 
                31:91:D7:1B:A2:B5:60:63:8D:4C:14:49:38:A1:EB:FB:40:A9:AB:B0
            X509v3 Authority Key Identifier: 
                keyid:86:4F:B8:6D:18:2A:1B:3C:8F:27:34:29:F0:81:9F:BA:6E:61:0E:E1
                DirName:/C=CH/ST=Zug/L=Zug/O=Perfect Privacy/CN=Perfect Privacy/emailAddress=admin@perfect-privacy.com
                serial:FA:11:B5:C4:AA:69:AF:69

    Signature Algorithm: sha512WithRSAEncryption
         8f:cc:fc:1c:19:af:53:cd:b6:46:62:78:80:e1:1b:db:ce:6d:
         a8:88:16:9a:3e:cf:77:c3:cb:84:09:a2:22:85:2d:13:f8:85:
         0a:18:12:d3:05:71:31:7f:a1:1a:33:07:47:af:f0:e8:93:22:
         94:70:18:85:dd:c3:4c:ec:a6:3f:76:e1:b3:4b:d1:74:3d:e7:
         61:7e:43:9e:5f:b1:da:2e:9b:84:58:50:44:a6:de:df:fb:fa:
         99:fb:b9:68:fa:ff:9d:3d:14:6e:93:9b:fb:f8:26:41:bb:b3:
         10:ca:67:07:cd:8c:8e:39:52:fc:56:7b:73:43:be:61:48:71:
         ee:33:cf:ac:d8:15:5b:fc:0e:f1:8c:d1:22:c9:29:63:b7:7e:
         7f:7c:be:ae:43:0b:4a:96:87:f3:2a:77:33:9a:4a:c2:e4:5b:
         29:37:b6:87:21:43:3d:47:04:d8:3b:01:49:39:7c:c6:7f:41:
         47:9e:15:38:d5:8d:29:87:9c:02:0c:b3:88:26:15:c0:b8:43:
         61:1c:80:3b:2c:19:66:ff:90:9f:58:a5:9e:15:c6:06:a4:9a:
         d5:50:87:ce:f5:cc:e4:e8:5f:ec:e6:bf:92:27:cb:08:a4:bf:
         56:fe:a0:4d:56:7f:69:61:b3:3d:2a:84:ca:00:26:90:30:16:
         0c:da:5a:4c:2b:69:e0:77:fa:26:5b:ab:59:56:10:20:ce:53:
         8a:71:b7:5d:9d:ae:84:82:0c:8d:25:eb:d2:46:29:7d:00:ca:
         10:f9:5e:19:d2:6b:17:4d:6c:25:28:ef:51:cf:da:a8:0f:77:
         ca:12:30:77:53:c0:29:ab:d5:6f:f1:60:b2:1a:66:ca:8e:93:
         3f:a7:ae:b4:b3:f5:d0:48:83:61:47:51:97:82:88:35:b6:8c:
         5a:05:e9:8a:0c:4e:ce:42:6c:34:5d:0d:d8:6c:9f:1f:ec:8d:
         61:ac:16:26:80:f7:d9:30:e0:6a:66:05:3f:99:cd:eb:3f:0f:
         73:17:ff:bf:7c:a2:0e:89:7f:fe:36:6d:5a:25:3a:ed:c5:3c:
         d4:18:3e:e9:6d:9b:6a:58:66:ce:68:3f:c3:72:50:5b:e7:ac:
         aa:1e:33:c0:23:a1:7b:13:52:ee:db:c9:ec:2e:2a:a4:d9:7f:
         84:1a:86:3b:c1:bc:60:13:04:ff:60:64:fd:07:55:08:39:3b:
         4b:bc:b0:59:07:ce:83:95:89:c5:f5:e3:04:54:32:07:e6:68:
         ef:66:9f:5f:a0:69:3d:69:8a:08:bc:8e:b7:d5:5b:9c:c9:2a:
         ac:ea:9c:d9:7a:1f:02:7e:16:c3:13:1a:5b:c2:f6:b8:73:3b:
         5d:fa:34:d1:c6:7e:6f:b1
-----BEGIN CERTIFICATE-----
MIIG4jCCBMqgAwIBAgIILN3HXxqhHk4wDQYJKoZIhvcNAQENBQAwgYcxCzAJBgNV
BAYTAkNIMQwwCgYDVQQIEwNadWcxDDAKBgNVBAcTA1p1ZzEYMBYGA1UEChMPUGVy
ZmVjdCBQcml2YWN5MRgwFgYDVQQDEw9QZXJmZWN0IFByaXZhY3kxKDAmBgkqhkiG
9w0BCQEWGWFkbWluQHBlcmZlY3QtcHJpdmFjeS5jb20wHhcNMjIxMjAyMDAwMDAw
WhcNMjQwNzI5MDAwMDAwWjCBjjELMAkGA1UEBhMCQ0gxDDAKBgNVBAgTA1p1ZzEY
MBYGA1UEChMPUGVyZmVjdCBQcml2YWN5MS0wKwYDVQQDFCRDbGllbnRfamVydXNh
bGVtLnBlcmZlY3QtcHJpdmFjeS5jb20xKDAmBgkqhkiG9w0BCQEWGWFkbWluQHBl
cmZlY3QtcHJpdmFjeS5jb20wggIiMA0GCSqGSIb3DQEBAQUAA4ICDwAwggIKAoIC
AQDTFn3aWMcLBp0EAlk/6tM7GAzrOL2EMt99sP9XBGbunxdUyZ1K2rp+cEuzyaoV
WwfHud21pkloXTDVRgLD/BzwsvZOPOpZ4q01TGFZzcR60oGCKiFBrxXfP8y66OeE
Nwu/vkjUqU/OlklFC+1q01sTmmdZQA7uHhGdXE3yKbfDPF9eFWqPvEfnrxYVdV6u
2v6byDyu+1/UIwsk8qzmrcqPYgjDs8c2S3CFk3m5rLBzSidYV1heOU4GoAvzR+mY
5By2GNwCv6HVZPbURIra3GuixGYr3Eqw1PQfoXyWSQ9fv8XolYiwZ5h6VKSIPKNw
sy+vwa9Xr63iKLKWQtEtsTlOjmlBqxyuixeKdYkofzdts1UpvMHhot9dzj1bbEB6
Ns1T0UHT3DY7r4x9xAOeMCXgjGdfS+fwVthF+69rJme3T3KCoKupaHeGAd8wjESk
yoq8tyoAY36pp+bg9snsM9epoa2EPj6hz4G0SRQJDRHnnrVH/nkw/tXLzbs4apUQ
fgOKOHDXDVx3vLl45lqcAluW3Gn9DeF01Io60wSrD13ZdIP+sQiAfrY+HQ2gn9Mt
+RyOoiwHfyXhnF7RqzOUGKvvqnK2v9rFUtvXOEnS/yWE54gVYlklHRAP1S2wqqmK
Cw9cOZNmPPBaKoG9qnlA7NtWNljoV2tWv6V5BbOuan8jSQIDAQABo4IBRzCCAUMw
CQYDVR0TBAIwADAjBglghkgBhvhCAQ0EFhYUVlBOIFVzZXIgQ2VydGlmaWNhdGUw
EQYJYIZIAYb4QgEBBAQDAgeAMAsGA1UdDwQEAwIHgDATBgNVHSUEDDAKBggrBgEF
BQcDAjAdBgNVHQ4EFgQUMZHXG6K1YGONTBRJOKHr+0Cpq7AwgbwGA1UdIwSBtDCB
sYAUhk+4bRgqGzyPJzQp8IGfum5hDuGhgY2kgYowgYcxCzAJBgNVBAYTAkNIMQww
CgYDVQQIEwNadWcxDDAKBgNVBAcTA1p1ZzEYMBYGA1UEChMPUGVyZmVjdCBQcml2
YWN5MRgwFgYDVQQDEw9QZXJmZWN0IFByaXZhY3kxKDAmBgkqhkiG9w0BCQEWGWFk
bWluQHBlcmZlY3QtcHJpdmFjeS5jb22CCQD6EbXEqmmvaTANBgkqhkiG9w0BAQ0F
AAOCAgEAj8z8HBmvU822RmJ4gOEb285tqIgWmj7Pd8PLhAmiIoUtE/iFChgS0wVx
MX+hGjMHR6/w6JMilHAYhd3DTOymP3bhs0vRdD3nYX5Dnl+x2i6bhFhQRKbe3/v6
mfu5aPr/nT0UbpOb+/gmQbuzEMpnB82MjjlS/FZ7c0O+YUhx7jPPrNgVW/wO8YzR
IskpY7d+f3y+rkMLSpaH8yp3M5pKwuRbKTe2hyFDPUcE2DsBSTl8xn9BR54VONWN
KYecAgyziCYVwLhDYRyAOywZZv+Qn1ilnhXGBqSa1VCHzvXM5Ohf7Oa/kifLCKS/
Vv6gTVZ/aWGzPSqEygAmkDAWDNpaTCtp4Hf6JlurWVYQIM5TinG3XZ2uhIIMjSXr
0kYpfQDKEPleGdJrF01sJSjvUc/aqA93yhIwd1PAKavVb/Fgshpmyo6TP6eutLP1
0EiDYUdRl4KINbaMWgXpigxOzkJsNF0N2GyfH+yNYawWJoD32TDgamYFP5nN6z8P
cxf/v3yiDol//jZtWiU67cU81Bg+6W2balhmzmg/w3JQW+esqh4zwCOhexNS7tvJ
7C4qpNl/hBqGO8G8YBME/2Bk/QdVCDk7S7ywWQfOg5WJxfXjBFQyB+Zo72afX6Bp
PWmKCLyOt9VbnMkqrOqc2XofAn4WwxMaW8L2uHM7Xfo00cZ+b7E=
-----END CERTIFICATE-----
