Certificate:
    Data:
        Version: 3 (0x2)
        Serial Number: 3659447821703409237 (0x32c8f867beb56e55)
    Signature Algorithm: sha512WithRSAEncryption
        Issuer: C=CH, ST=Zug, L=Zug, O=Perfect Privacy, CN=Perfect Privacy/emailAddress=admin@perfect-privacy.com
        Validity
            Not Before: Dec 25 00:00:00 2022 GMT
            Not After : Aug 21 00:00:00 2024 GMT
        Subject: C=CH, ST=Zug, O=Perfect Privacy, CN=Client_london.perfect-privacy.com/emailAddress=admin@perfect-privacy.com
        Subject Public Key Info:
            Public Key Algorithm: rsaEncryption
                Public-Key: (4096 bit)
                Modulus:
                    00:aa:01:ad:21:76:45:c8:77:ba:0d:85:ef:57:8d:
                    e2:bd:78:19:30:69:7b:47:38:df:3c:2d:b3:8d:5b:
                    a8:6a:60:81:be:b4:80:3b:aa:92:a6:b5:65:fa:c3:
                    6b:24:3a:5e:4a:3c:e5:38:9e:5b:75:06:57:90:ae:
                    ca:b2:c4:13:85:f3:2b:5d:5e:60:39:3c:aa:dd:62:
                    b3:ce:9f:49:d1:91:9f:92:8c:fa:af:71:66:b5:1f:
                    d9:17:61:cb:4b:63:3e:d1:22:20:33:d6:f9:6f:d6:
                    d0:08:23:d1:3b:25:9c:48:4d:55:28:02:c2:ce:a1:
                    d3:25:70:f1:61:3b:3c:f9:76:e5:1a:68:30:0a:65:
                    27:ea:ed:a8:a7:79:47:95:8a:19:57:94:ef:1a:64:
                    f0:dc:72:d5:fe:9c:1f:18:f2:8e:25:a3:b8:1d:49:
                    8f:6b:40:68:8b:3a:f0:33:53:6f:54:b0:0b:7d:03:
                    92:ce:fc:f2:d3:79:f7:e0:a5:3b:3f:79:b6:61:34:
                    35:97:28:26:a3:3f:b9:e1:36:1e:8f:ff:32:5e:67:
                    c3:42:72:01:09:e8:3b:37:55:9c:8b:08:e3:d4:36:
                    7b:7b:91:3f:44:3b:c3:92:ed:b4:76:08:8a:e9:93:
                    e9:8b:c6:92:32:fa:80:88:8a:5d:ae:eb:39:64:82:
                    bf:7e:47:87:8a:f5:95:d4:5b:71:28:4d:17:02:01:
                    2d:4d:bb:93:d1:1a:ec:a5:14:d3:3d:d1:86:4c:9d:
                    72:12:57:2b:7a:43:6b:16:e2:ac:14:f7:a2:c8:34:
                    3b:28:ae:b0:65:ae:7c:a0:6a:9e:bb:5d:62:cc:8d:
                    fc:da:45:02:e4:f0:ea:9f:5f:f7:df:02:c4:2e:36:
                    d1:75:e0:a6:1f:2d:23:62:30:8b:8b:8b:8d:77:f9:
                    17:41:2a:f3:28:0d:17:1c:f0:3a:60:03:ed:ef:2d:
                    30:40:43:14:31:33:81:d6:e8:64:43:7e:74:a9:e4:
                    2b:d6:b7:3b:d4:ed:33:6c:d5:c3:40:13:60:c5:15:
                    19:cf:d4:56:3b:1a:e0:ea:07:89:d4:df:cf:38:a5:
                    b7:28:5c:e9:64:2f:0e:7e:76:63:90:3f:85:5f:cd:
                    73:9a:4d:54:08:e7:28:58:00:bf:7e:31:f1:ca:82:
                    bf:6c:78:64:93:98:9f:f5:87:aa:42:31:1c:5f:94:
                    0f:1e:c8:bc:aa:9c:9b:4b:b7:2d:48:1a:06:e9:a0:
                    b1:49:e8:a7:ce:30:e6:9b:d1:e5:25:cf:4e:e8:28:
                    b1:bc:9c:e6:9f:66:b8:55:67:d7:d7:69:ef:b0:97:
                    84:36:ef:1d:e7:c7:df:fc:18:b7:e2:6a:8a:e3:6c:
                    84:57:ff
                Exponent: 65537 (0x10001)
        X509v3 extensions:
            X509v3 Basic Constraints: 
                CA:FALSE
            Netscape Comment: 
                VPN User Certificate
            Netscape Cert Type: 
                SSL Client
            X509v3 Key Usage: 
                Digital Signature
            X509v3 Extended Key Usage: 
                TLS Web Client Authentication
            X509v3 Subject Key Identifier: 
                1B:F6:42:C6:75:53:E2:B5:57:8A:76:7A:E7:5A:9B:7C:18:6F:13:4C
            X509v3 Authority Key Identifier: 
                keyid:86:4F:B8:6D:18:2A:1B:3C:8F:27:34:29:F0:81:9F:BA:6E:61:0E:E1
                DirName:/C=CH/ST=Zug/L=Zug/O=Perfect Privacy/CN=Perfect Privacy/emailAddress=admin@perfect-privacy.com
                serial:FA:11:B5:C4:AA:69:AF:69

    Signature Algorithm: sha512WithRSAEncryption
         42:c0:cb:e5:d1:2a:0e:7a:01:12:96:80:61:e9:2b:de:89:3e:
         00:ba:dd:db:4e:2a:40:1d:00:f7:6a:3d:57:04:a4:4c:49:bc:
         bc:5a:8f:ab:44:e2:38:ab:41:e1:29:12:6d:bf:96:09:df:7b:
         10:be:3e:35:49:2e:47:f6:87:eb:b7:d0:a0:46:c5:5e:48:12:
         11:03:f5:ea:37:fd:ee:d0:87:59:39:75:9e:0e:d8:03:f7:de:
         08:1a:53:1e:11:2d:35:f6:ce:b5:ce:65:92:9e:c6:2a:1b:78:
         e6:47:ed:1e:20:97:f5:e9:05:98:fb:65:10:a0:27:9c:d2:4c:
         45:ee:27:12:86:77:7b:39:71:b6:8a:b5:29:a9:df:0a:0a:cd:
         ca:41:e5:30:1d:8e:ea:f6:61:4b:3f:e7:a3:5e:fc:0e:b7:d6:
         15:ba:13:8c:2d:69:1d:e2:2a:9e:13:da:45:47:63:bd:b3:c5:
         0a:79:db:36:a0:c3:c1:1c:44:97:70:49:9a:39:b4:25:b0:fc:
         fc:3e:b1:ca:ea:f8:c3:d4:d7:bf:d5:ea:ab:6e:4c:49:0f:fd:
         97:07:e4:07:ac:e0:36:5c:19:06:34:bc:c6:7b:d8:b6:03:a1:
         34:8e:52:45:36:4d:a6:38:c8:a8:12:51:6d:6a:69:c6:5e:90:
         51:f8:68:b8:c0:66:58:9b:51:6c:ed:26:de:50:59:c3:c9:16:
         d1:35:e0:8a:9c:b7:fc:53:8c:ff:fb:51:b6:02:75:b6:d4:25:
         a6:a3:2c:77:0f:74:1a:64:98:f5:b2:1d:9e:93:28:38:78:d7:
         5b:42:21:77:b7:bf:a6:2f:ce:d2:b0:09:04:ad:bd:85:0b:3f:
         f3:a3:45:f4:43:41:27:95:21:40:4f:c4:ac:07:80:05:00:66:
         6e:28:3f:af:4e:a6:da:32:8b:56:0f:30:71:d9:4b:5b:e5:64:
         96:59:94:44:c8:5d:a0:32:61:04:32:cb:d6:ba:0e:6b:eb:45:
         c6:26:de:4f:dc:86:7f:c1:cd:52:80:f5:9a:fd:e3:4b:58:74:
         a1:b1:59:0e:6d:e6:60:0a:50:22:d6:f2:f1:66:2a:5c:d2:4e:
         74:05:8e:99:22:60:0c:93:08:2b:fa:38:ad:e7:93:6b:58:98:
         be:1f:ab:42:91:56:a6:21:91:b0:71:13:16:a0:c5:b1:e4:ee:
         a7:05:45:16:70:2c:b1:de:85:6b:18:1e:51:13:11:e2:62:bf:
         d2:e0:b0:bc:32:63:25:e1:d9:03:14:25:6e:69:f8:51:e9:42:
         a6:2f:5a:76:bf:95:b5:41:f8:9e:e6:71:8a:44:6b:76:19:76:
         e5:94:2d:50:dc:be:5c:4f
-----BEGIN CERTIFICATE-----
MIIG3zCCBMegAwIBAgIIMsj4Z761blUwDQYJKoZIhvcNAQENBQAwgYcxCzAJBgNV
BAYTAkNIMQwwCgYDVQQIEwNadWcxDDAKBgNVBAcTA1p1ZzEYMBYGA1UEChMPUGVy
ZmVjdCBQcml2YWN5MRgwFgYDVQQDEw9QZXJmZWN0IFByaXZhY3kxKDAmBgkqhkiG
9w0BCQEWGWFkbWluQHBlcmZlY3QtcHJpdmFjeS5jb20wHhcNMjIxMjI1MDAwMDAw
WhcNMjQwODIxMDAwMDAwWjCBizELMAkGA1UEBhMCQ0gxDDAKBgNVBAgTA1p1ZzEY
MBYGA1UEChMPUGVyZmVjdCBQcml2YWN5MSowKAYDVQQDFCFDbGllbnRfbG9uZG9u
LnBlcmZlY3QtcHJpdmFjeS5jb20xKDAmBgkqhkiG9w0BCQEWGWFkbWluQHBlcmZl
Y3QtcHJpdmFjeS5jb20wggIiMA0GCSqGSIb3DQEBAQUAA4ICDwAwggIKAoICAQCq
Aa0hdkXId7oNhe9XjeK9eBkwaXtHON88LbONW6hqYIG+tIA7qpKmtWX6w2skOl5K
POU4nlt1BleQrsqyxBOF8ytdXmA5PKrdYrPOn0nRkZ+SjPqvcWa1H9kXYctLYz7R
IiAz1vlv1tAII9E7JZxITVUoAsLOodMlcPFhOzz5duUaaDAKZSfq7aineUeVihlX
lO8aZPDcctX+nB8Y8o4lo7gdSY9rQGiLOvAzU29UsAt9A5LO/PLTeffgpTs/ebZh
NDWXKCajP7nhNh6P/zJeZ8NCcgEJ6Ds3VZyLCOPUNnt7kT9EO8OS7bR2CIrpk+mL
xpIy+oCIil2u6zlkgr9+R4eK9ZXUW3EoTRcCAS1Nu5PRGuylFNM90YZMnXISVyt6
Q2sW4qwU96LINDsorrBlrnygap67XWLMjfzaRQLk8OqfX/ffAsQuNtF14KYfLSNi
MIuLi413+RdBKvMoDRcc8DpgA+3vLTBAQxQxM4HW6GRDfnSp5CvWtzvU7TNs1cNA
E2DFFRnP1FY7GuDqB4nU3884pbcoXOlkLw5+dmOQP4VfzXOaTVQI5yhYAL9+MfHK
gr9seGSTmJ/1h6pCMRxflA8eyLyqnJtLty1IGgbpoLFJ6KfOMOab0eUlz07oKLG8
nOafZrhVZ9fXae+wl4Q27x3nx9/8GLfiaorjbIRX/wIDAQABo4IBRzCCAUMwCQYD
VR0TBAIwADAjBglghkgBhvhCAQ0EFhYUVlBOIFVzZXIgQ2VydGlmaWNhdGUwEQYJ
YIZIAYb4QgEBBAQDAgeAMAsGA1UdDwQEAwIHgDATBgNVHSUEDDAKBggrBgEFBQcD
AjAdBgNVHQ4EFgQUG/ZCxnVT4rVXinZ651qbfBhvE0wwgbwGA1UdIwSBtDCBsYAU
hk+4bRgqGzyPJzQp8IGfum5hDuGhgY2kgYowgYcxCzAJBgNVBAYTAkNIMQwwCgYD
VQQIEwNadWcxDDAKBgNVBAcTA1p1ZzEYMBYGA1UEChMPUGVyZmVjdCBQcml2YWN5
MRgwFgYDVQQDEw9QZXJmZWN0IFByaXZhY3kxKDAmBgkqhkiG9w0BCQEWGWFkbWlu
QHBlcmZlY3QtcHJpdmFjeS5jb22CCQD6EbXEqmmvaTANBgkqhkiG9w0BAQ0FAAOC
AgEAQsDL5dEqDnoBEpaAYekr3ok+ALrd204qQB0A92o9VwSkTEm8vFqPq0TiOKtB
4SkSbb+WCd97EL4+NUkuR/aH67fQoEbFXkgSEQP16jf97tCHWTl1ng7YA/feCBpT
HhEtNfbOtc5lkp7GKht45kftHiCX9ekFmPtlEKAnnNJMRe4nEoZ3ezlxtoq1Kanf
CgrNykHlMB2O6vZhSz/no178DrfWFboTjC1pHeIqnhPaRUdjvbPFCnnbNqDDwRxE
l3BJmjm0JbD8/D6xyur4w9TXv9Xqq25MSQ/9lwfkB6zgNlwZBjS8xnvYtgOhNI5S
RTZNpjjIqBJRbWppxl6QUfhouMBmWJtRbO0m3lBZw8kW0TXgipy3/FOM//tRtgJ1
ttQlpqMsdw90GmSY9bIdnpMoOHjXW0Ihd7e/pi/O0rAJBK29hQs/86NF9ENBJ5Uh
QE/ErAeABQBmbig/r06m2jKLVg8wcdlLW+VkllmURMhdoDJhBDLL1roOa+tFxibe
T9yGf8HNUoD1mv3jS1h0obFZDm3mYApQItby8WYqXNJOdAWOmSJgDJMIK/o4reeT
a1iYvh+rQpFWpiGRsHETFqDFseTupwVFFnAssd6FaxgeURMR4mK/0uCwvDJjJeHZ
AxQlbmn4UelCpi9adr+VtUH4nuZxikRrdhl25ZQtUNy+XE8=
-----END CERTIFICATE-----
