Certificate:
    Data:
        Version: 3 (0x2)
        Serial Number: 1547325488218353061 (0x157934555d29ada5)
    Signature Algorithm: sha512WithRSAEncryption
        Issuer: C=CH, ST=Zug, L=Zug, O=Perfect Privacy, CN=Perfect Privacy/emailAddress=admin@perfect-privacy.com
        Validity
            Not Before: Jun 21 00:00:00 2024 GMT
            Not After : Feb 16 00:00:00 2026 GMT
        Subject: C=CH, ST=Zug, O=Perfect Privacy, CN=Client_london.perfect-privacy.com/emailAddress=admin@perfect-privacy.com
        Subject Public Key Info:
            Public Key Algorithm: rsaEncryption
                Public-Key: (4096 bit)
                Modulus:
                    00:95:6c:19:ab:3b:f6:f2:5b:3c:ff:dc:7b:4b:f5:
                    56:17:a1:c4:0f:66:2f:bf:94:ae:ee:21:f3:b4:52:
                    e8:95:0e:90:fd:82:35:02:26:a2:5f:46:a4:94:bc:
                    94:9e:23:2e:0b:bf:6e:07:ce:93:17:29:0c:87:19:
                    9e:7d:f9:8a:a9:54:eb:e7:45:ff:5a:a0:e4:85:e1:
                    45:bd:e8:53:d0:e4:03:35:bc:36:ca:aa:b7:03:81:
                    95:ed:f6:3d:db:9d:dc:b4:b2:58:e7:ff:e9:e1:a6:
                    ef:77:66:68:c2:b7:78:fa:5f:c9:9d:eb:e0:da:a0:
                    ed:0b:e1:ae:c8:f2:f6:9d:3b:01:24:c7:96:e1:82:
                    fc:8c:4e:58:f7:81:12:23:5c:4d:aa:b9:15:e5:19:
                    a7:b8:92:2e:0e:36:44:da:2f:6f:c3:16:f0:a3:69:
                    9b:23:27:87:dc:7b:94:09:b3:f9:e9:50:d7:c2:1f:
                    63:6d:1d:ea:e6:26:43:79:74:53:2d:7a:ef:fb:84:
                    2a:a7:15:a0:56:48:4d:e6:a3:5b:bc:5a:00:02:40:
                    44:bd:40:db:ef:11:fb:10:87:82:b7:e3:87:48:5f:
                    25:79:ed:f6:fd:81:f0:fe:1b:d9:4f:cc:51:9d:93:
                    aa:78:ec:92:15:4e:ce:0a:2d:da:14:15:7a:a8:f2:
                    d2:b4:41:97:cc:ca:e5:5c:25:28:c7:68:5a:06:2e:
                    7a:3d:f3:9d:ac:1f:14:84:91:d3:c9:ba:ef:29:90:
                    ff:98:28:a3:bf:bc:87:e6:bf:fa:8e:83:23:67:e3:
                    cf:25:5e:0f:7e:65:aa:f7:07:89:4b:39:65:c4:c7:
                    47:bb:e4:fc:6b:de:15:00:e5:59:52:6e:84:30:bf:
                    d2:55:05:e9:78:06:1c:74:e8:2c:f0:eb:f3:46:78:
                    c7:79:2a:a6:7e:1a:c9:c1:d4:56:0b:d6:58:41:52:
                    30:91:00:56:d5:1e:15:d7:b3:ce:ac:ae:e9:f3:61:
                    f7:e6:fd:f8:9a:fa:ee:05:7f:ce:74:30:0c:73:87:
                    65:8e:bc:ea:14:96:43:42:44:89:d4:05:33:f1:bc:
                    52:4c:0f:ca:ab:31:8f:1b:b5:72:6a:c0:2c:37:80:
                    fe:60:7c:0c:fe:e2:d8:83:ae:3d:65:e3:46:8a:0a:
                    fa:13:01:1d:14:e6:9b:76:ec:94:8f:4c:82:f9:6f:
                    df:5a:ad:00:27:96:ca:c0:12:a1:3c:e4:5c:0c:b9:
                    75:da:f5:02:ee:5c:55:1b:7d:4e:96:f4:9e:04:84:
                    34:de:31:32:6f:47:53:e3:aa:eb:82:b6:85:fb:22:
                    6a:07:4d:60:b4:a3:fc:68:c0:f2:4f:6f:c2:24:33:
                    c5:42:31
                Exponent: 65537 (0x10001)
        X509v3 extensions:
            X509v3 Basic Constraints: 
                CA:FALSE
            Netscape Comment: 
                VPN User Certificate
            Netscape Cert Type: 
                SSL Client
            X509v3 Key Usage: 
                Digital Signature
            X509v3 Extended Key Usage: 
                TLS Web Client Authentication
            X509v3 Subject Key Identifier: 
                FF:DA:45:4F:37:34:22:DD:47:64:9A:47:67:5D:6B:14:71:80:DD:09
            X509v3 Authority Key Identifier: 
                keyid:86:4F:B8:6D:18:2A:1B:3C:8F:27:34:29:F0:81:9F:BA:6E:61:0E:E1
                DirName:/C=CH/ST=Zug/L=Zug/O=Perfect Privacy/CN=Perfect Privacy/emailAddress=admin@perfect-privacy.com
                serial:FA:11:B5:C4:AA:69:AF:69

    Signature Algorithm: sha512WithRSAEncryption
         60:80:58:5d:81:97:ac:ad:43:24:02:db:4f:e7:74:65:97:a2:
         ec:61:fa:c2:33:c2:0d:8f:bd:0c:e7:0e:ff:f6:36:bc:ec:b6:
         13:e9:91:6b:89:b3:5d:b1:75:b2:f2:d6:5c:ce:8e:5d:42:10:
         7a:7a:02:fa:40:a1:37:ba:1e:be:0c:e8:19:cd:17:ee:b3:8c:
         a5:23:30:cc:d1:72:b4:8f:1f:fe:61:2a:34:b6:be:18:00:d5:
         f1:db:4e:ad:8c:20:1c:b0:9d:fb:ca:f5:49:ab:00:72:b0:65:
         3a:dd:a0:8c:12:6f:36:f8:12:a3:cb:56:75:1a:82:1f:5e:c5:
         af:fc:39:b1:e1:52:4e:4e:1c:36:20:d5:e7:56:03:01:e5:87:
         f1:f2:cf:c2:5e:aa:ad:a3:44:e5:00:58:aa:1f:ef:3a:a1:1e:
         c3:a6:fb:eb:4d:2a:c1:f4:57:18:81:71:06:48:9e:cd:de:fa:
         92:4e:26:02:b9:d6:38:47:15:fc:45:cc:f1:65:86:01:2d:aa:
         3f:55:cf:fe:33:25:a8:f5:2f:86:c5:58:3a:d4:3e:a3:df:68:
         4d:7d:8e:12:62:f5:1d:ca:2a:e3:cd:a8:64:49:f7:5b:62:0c:
         53:b6:b3:ea:67:68:89:e1:dd:39:1c:8b:e5:cc:7e:bf:00:4d:
         7c:38:1a:d9:a1:e9:b8:c8:58:c2:59:b7:de:ba:83:fd:a9:79:
         bf:09:08:2f:b4:d9:43:1a:b3:6e:a2:7a:7b:65:6a:56:c6:40:
         91:58:27:20:bb:17:20:1e:9a:15:4d:e9:85:7f:ef:c5:3a:33:
         e0:b6:35:9b:f7:fd:af:16:0f:f0:ec:f9:4c:e7:76:f7:26:9c:
         ba:bc:7c:13:1f:db:f1:5a:79:d7:ca:0a:4f:b6:7d:dc:ab:c7:
         2b:ff:17:e4:64:41:44:d6:20:9a:4a:73:da:95:d0:f7:14:fb:
         2e:f0:34:54:df:8c:fa:d1:5a:07:82:af:1a:b3:09:d0:61:a5:
         ce:9c:a0:e5:05:9c:22:33:7f:e5:80:53:f9:78:fd:e4:4f:88:
         30:5b:37:62:f2:d5:34:1e:f2:23:01:3c:ad:8d:73:a8:c3:5f:
         08:7e:ec:da:17:59:0e:0d:91:55:b3:a7:ae:e6:e1:51:35:fd:
         54:64:68:06:74:2d:d0:d3:b9:c0:f3:af:ff:98:ed:7f:d8:20:
         7d:4d:d8:41:41:e9:2c:4c:2b:24:70:4c:a3:96:86:18:0f:5b:
         e2:8a:40:b0:54:bb:00:da:84:6b:c6:0e:26:d0:c2:e4:1a:e7:
         15:0e:32:6e:2d:3e:e4:7b:37:6f:b2:66:3f:45:41:01:af:60:
         4a:e8:ca:e6:2d:65:94:04
-----BEGIN CERTIFICATE-----
MIIG3zCCBMegAwIBAgIIFXk0VV0praUwDQYJKoZIhvcNAQENBQAwgYcxCzAJBgNV
BAYTAkNIMQwwCgYDVQQIEwNadWcxDDAKBgNVBAcTA1p1ZzEYMBYGA1UEChMPUGVy
ZmVjdCBQcml2YWN5MRgwFgYDVQQDEw9QZXJmZWN0IFByaXZhY3kxKDAmBgkqhkiG
9w0BCQEWGWFkbWluQHBlcmZlY3QtcHJpdmFjeS5jb20wHhcNMjQwNjIxMDAwMDAw
WhcNMjYwMjE2MDAwMDAwWjCBizELMAkGA1UEBhMCQ0gxDDAKBgNVBAgTA1p1ZzEY
MBYGA1UEChMPUGVyZmVjdCBQcml2YWN5MSowKAYDVQQDFCFDbGllbnRfbG9uZG9u
LnBlcmZlY3QtcHJpdmFjeS5jb20xKDAmBgkqhkiG9w0BCQEWGWFkbWluQHBlcmZl
Y3QtcHJpdmFjeS5jb20wggIiMA0GCSqGSIb3DQEBAQUAA4ICDwAwggIKAoICAQCV
bBmrO/byWzz/3HtL9VYXocQPZi+/lK7uIfO0UuiVDpD9gjUCJqJfRqSUvJSeIy4L
v24HzpMXKQyHGZ59+YqpVOvnRf9aoOSF4UW96FPQ5AM1vDbKqrcDgZXt9j3bndy0
sljn/+nhpu93ZmjCt3j6X8md6+DaoO0L4a7I8vadOwEkx5bhgvyMTlj3gRIjXE2q
uRXlGae4ki4ONkTaL2/DFvCjaZsjJ4fce5QJs/npUNfCH2NtHermJkN5dFMteu/7
hCqnFaBWSE3mo1u8WgACQES9QNvvEfsQh4K344dIXyV57fb9gfD+G9lPzFGdk6p4
7JIVTs4KLdoUFXqo8tK0QZfMyuVcJSjHaFoGLno9852sHxSEkdPJuu8pkP+YKKO/
vIfmv/qOgyNn488lXg9+Zar3B4lLOWXEx0e75Pxr3hUA5VlSboQwv9JVBel4Bhx0
6Czw6/NGeMd5KqZ+GsnB1FYL1lhBUjCRAFbVHhXXs86srunzYffm/fia+u4Ff850
MAxzh2WOvOoUlkNCRInUBTPxvFJMD8qrMY8btXJqwCw3gP5gfAz+4tiDrj1l40aK
CvoTAR0U5pt27JSPTIL5b99arQAnlsrAEqE85FwMuXXa9QLuXFUbfU6W9J4EhDTe
MTJvR1PjquuCtoX7ImoHTWC0o/xowPJPb8IkM8VCMQIDAQABo4IBRzCCAUMwCQYD
VR0TBAIwADAjBglghkgBhvhCAQ0EFhYUVlBOIFVzZXIgQ2VydGlmaWNhdGUwEQYJ
YIZIAYb4QgEBBAQDAgeAMAsGA1UdDwQEAwIHgDATBgNVHSUEDDAKBggrBgEFBQcD
AjAdBgNVHQ4EFgQU/9pFTzc0It1HZJpHZ11rFHGA3QkwgbwGA1UdIwSBtDCBsYAU
hk+4bRgqGzyPJzQp8IGfum5hDuGhgY2kgYowgYcxCzAJBgNVBAYTAkNIMQwwCgYD
VQQIEwNadWcxDDAKBgNVBAcTA1p1ZzEYMBYGA1UEChMPUGVyZmVjdCBQcml2YWN5
MRgwFgYDVQQDEw9QZXJmZWN0IFByaXZhY3kxKDAmBgkqhkiG9w0BCQEWGWFkbWlu
QHBlcmZlY3QtcHJpdmFjeS5jb22CCQD6EbXEqmmvaTANBgkqhkiG9w0BAQ0FAAOC
AgEAYIBYXYGXrK1DJALbT+d0ZZei7GH6wjPCDY+9DOcO//Y2vOy2E+mRa4mzXbF1
svLWXM6OXUIQenoC+kChN7oevgzoGc0X7rOMpSMwzNFytI8f/mEqNLa+GADV8dtO
rYwgHLCd+8r1SasAcrBlOt2gjBJvNvgSo8tWdRqCH17Fr/w5seFSTk4cNiDV51YD
AeWH8fLPwl6qraNE5QBYqh/vOqEew6b7600qwfRXGIFxBkiezd76kk4mArnWOEcV
/EXM8WWGAS2qP1XP/jMlqPUvhsVYOtQ+o99oTX2OEmL1Hcoq482oZEn3W2IMU7az
6mdoieHdORyL5cx+vwBNfDga2aHpuMhYwlm33rqD/al5vwkIL7TZQxqzbqJ6e2Vq
VsZAkVgnILsXIB6aFU3phX/vxToz4LY1m/f9rxYP8Oz5TOd29yacurx8Ex/b8Vp5
18oKT7Z93KvHK/8X5GRBRNYgmkpz2pXQ9xT7LvA0VN+M+tFaB4KvGrMJ0GGlzpyg
5QWcIjN/5YBT+Xj95E+IMFs3YvLVNB7yIwE8rY1zqMNfCH7s2hdZDg2RVbOnrubh
UTX9VGRoBnQt0NO5wPOv/5jtf9ggfU3YQUHpLEwrJHBMo5aGGA9b4opAsFS7ANqE
a8YOJtDC5BrnFQ4ybi0+5Hs3b7JmP0VBAa9gSujK5i1llAQ=
-----END CERTIFICATE-----
