Certificate:
    Data:
        Version: 3 (0x2)
        Serial Number:
            e1:fb:f6:3e:73:30:c0:80
    Signature Algorithm: sha512WithRSAEncryption
        Issuer: C=CH, ST=Zug, L=Zug, O=Perfect Privacy, CN=Perfect Privacy/emailAddress=admin@perfect-privacy.com
        Validity
            Not Before: Jun 14 00:00:00 2024 GMT
            Not After : Feb  9 00:00:00 2026 GMT
        Subject: C=CH, ST=Zug, O=Perfect Privacy, CN=Client_losangeles.perfect-privacy.com/emailAddress=admin@perfect-privacy.com
        Subject Public Key Info:
            Public Key Algorithm: rsaEncryption
                Public-Key: (4096 bit)
                Modulus:
                    00:ce:da:1b:42:97:8a:83:ce:3d:aa:72:c3:d6:9d:
                    ad:e0:a7:39:c4:d7:d8:95:9a:0c:d2:e0:2d:cb:0d:
                    9c:35:91:17:8e:76:c3:93:37:07:be:f2:55:dd:f8:
                    40:36:7a:0e:66:24:23:c5:9a:8d:4f:78:de:6f:f8:
                    6b:dc:76:95:4c:5c:c8:5f:85:62:f2:12:0b:17:bc:
                    4a:ca:4b:ba:c9:d3:3c:e0:49:f9:f9:72:9d:57:44:
                    7a:9b:ba:fc:32:52:56:78:dd:66:be:5b:87:71:40:
                    75:6e:be:b3:74:ec:f6:90:59:df:ef:ca:64:d3:32:
                    63:e2:92:b3:b1:72:0d:23:ed:1e:fd:53:a0:da:3d:
                    e0:d8:6f:ac:2b:7d:42:84:f9:b6:9b:64:f0:f7:32:
                    09:b0:48:6e:86:6e:c4:1f:0b:c6:d9:62:35:c9:72:
                    b1:4c:55:38:d3:ea:b5:84:8a:92:c6:78:74:da:8e:
                    bc:c5:f6:22:32:8c:82:04:60:de:a1:65:81:45:4e:
                    0d:06:db:69:6c:57:45:22:d3:30:48:77:09:45:0b:
                    40:38:1f:f4:14:13:fa:4b:e6:01:65:01:48:8f:9a:
                    3f:ce:37:0a:a4:27:08:83:b6:90:dc:82:d9:98:da:
                    3e:8e:93:5f:51:f8:9c:5e:aa:d1:7c:f7:0e:0d:53:
                    eb:40:6f:a5:63:ec:2c:8e:f1:06:e3:4e:28:18:89:
                    38:7f:30:2c:fb:3c:a5:1a:54:70:6a:6c:5a:b5:c9:
                    02:fc:93:14:b5:ff:01:be:71:c3:94:9e:3d:2e:11:
                    a7:4e:cb:c5:44:d1:db:f8:d6:1a:4d:2d:7d:71:32:
                    fe:41:2d:22:43:07:e9:91:15:30:30:1e:7c:66:c9:
                    f7:3b:91:4c:0e:dd:c7:3e:91:49:24:49:14:d9:f5:
                    31:e4:d7:0c:ab:04:77:28:ec:be:65:5d:0b:2f:d6:
                    49:f2:6b:4b:11:8d:c6:c0:78:5e:20:35:db:15:ff:
                    67:89:27:3e:b0:9b:c2:60:8c:8b:cd:15:eb:7e:17:
                    77:8d:48:79:d2:b8:d4:df:45:53:ce:fb:69:d9:a3:
                    ef:67:2c:85:98:31:89:a2:9c:01:fb:76:1e:60:b6:
                    a4:cd:58:7b:68:2c:e8:87:29:85:a1:2c:56:e7:4b:
                    40:56:8a:d0:b3:12:6e:28:eb:7f:7b:ad:e5:91:64:
                    ce:4c:f1:a8:0c:2a:7d:2a:32:fa:cd:8c:12:e3:e0:
                    18:f1:c3:75:e5:fe:b3:59:a5:09:87:63:1d:7d:9c:
                    5d:8a:c9:98:62:c3:6b:2b:71:54:6d:d9:f9:06:94:
                    ef:d8:9d:2b:b3:00:16:de:b0:e3:7d:c5:66:db:8b:
                    6b:3d:f1
                Exponent: 65537 (0x10001)
        X509v3 extensions:
            X509v3 Basic Constraints: 
                CA:FALSE
            Netscape Comment: 
                VPN User Certificate
            Netscape Cert Type: 
                SSL Client
            X509v3 Key Usage: 
                Digital Signature
            X509v3 Extended Key Usage: 
                TLS Web Client Authentication
            X509v3 Subject Key Identifier: 
                09:9B:F0:1B:49:40:FF:E7:8C:BA:C7:8E:B6:0C:9D:0A:6B:5A:E5:DD
            X509v3 Authority Key Identifier: 
                keyid:86:4F:B8:6D:18:2A:1B:3C:8F:27:34:29:F0:81:9F:BA:6E:61:0E:E1
                DirName:/C=CH/ST=Zug/L=Zug/O=Perfect Privacy/CN=Perfect Privacy/emailAddress=admin@perfect-privacy.com
                serial:FA:11:B5:C4:AA:69:AF:69

    Signature Algorithm: sha512WithRSAEncryption
         7d:21:52:df:33:20:c3:8f:86:80:7d:0f:a0:1b:10:c3:5f:33:
         5f:96:1a:6e:85:99:b2:ba:9e:0d:1b:11:8a:ee:43:91:60:f3:
         d9:99:4d:32:8d:86:08:bb:d0:26:31:bb:3b:be:bf:2d:12:a8:
         a4:c3:a9:6c:a5:fa:3f:c5:ce:64:c1:c2:97:f7:87:63:cb:0a:
         69:78:6d:23:68:4b:10:a2:27:b1:32:ac:5c:fb:32:9d:16:f4:
         e7:2a:25:39:35:da:98:c2:18:1e:5c:1a:80:94:7d:e5:c3:24:
         76:4b:07:b2:d0:0d:d0:15:3e:5f:6b:69:fe:4e:bf:ee:89:a5:
         5d:dc:2b:fc:73:7a:f8:aa:fd:e6:90:14:ff:2b:53:a8:fb:9f:
         c7:06:f9:06:ae:aa:34:27:c5:89:d1:41:d3:2e:7f:bc:98:a4:
         0d:0d:f2:aa:f4:15:a8:ed:82:de:ee:94:66:92:a5:cd:7e:76:
         6e:7c:c8:a5:41:5b:1c:66:0a:6c:38:04:38:c8:7a:1b:53:04:
         7c:d3:ed:ad:0d:4c:49:fb:e7:b2:93:1e:94:54:c2:d9:99:9a:
         93:41:0f:fb:e1:e4:53:ed:61:d7:6d:fc:7b:7d:81:0b:f7:6e:
         c8:df:3c:ce:d3:59:03:56:58:a2:1a:02:f8:71:dc:57:ef:fd:
         f6:d4:5b:f8:01:50:d5:c4:3a:6e:d7:b8:c9:73:db:9a:69:ed:
         8e:56:a0:b2:8e:0a:56:e5:2e:98:b5:1d:db:39:43:33:4e:98:
         38:73:cf:b0:e8:e6:89:a2:ea:e7:74:ea:e8:f0:d6:e0:c5:fa:
         0e:6e:c9:10:11:8e:1d:1e:6f:cb:be:32:86:89:ff:d2:df:14:
         75:b2:12:44:45:a6:5a:3a:32:c6:e8:10:77:02:b0:44:81:da:
         8f:80:17:37:48:77:a9:4d:46:47:8e:79:07:01:ad:9c:d1:99:
         35:29:4c:40:aa:ed:c3:31:38:cf:65:0f:9d:b8:b3:55:a5:dd:
         81:5c:48:d5:d2:74:11:ea:a3:d6:dc:78:b7:83:9e:19:63:bb:
         fa:6c:bc:30:d4:0d:c6:7d:a6:f4:ae:9d:e2:60:4c:dd:3e:d6:
         1f:e7:2b:ff:41:ff:e1:25:63:4f:dc:6e:e0:ee:e5:6a:63:2f:
         20:d1:d7:4d:6d:cd:66:d2:81:ea:9d:80:a2:b4:d0:72:0d:ae:
         df:64:60:17:2c:33:a6:96:2a:d2:bc:53:6f:80:6a:95:67:63:
         b3:5f:f4:ca:dc:aa:20:7d:28:67:41:47:15:ad:f1:1a:bf:b4:
         23:b4:0a:4f:8b:4d:9a:4e:bc:51:8c:77:8f:83:a7:1b:fb:4f:
         32:69:a0:66:46:3c:1e:6f
-----BEGIN CERTIFICATE-----
MIIG5DCCBMygAwIBAgIJAOH79j5zMMCAMA0GCSqGSIb3DQEBDQUAMIGHMQswCQYD
VQQGEwJDSDEMMAoGA1UECBMDWnVnMQwwCgYDVQQHEwNadWcxGDAWBgNVBAoTD1Bl
cmZlY3QgUHJpdmFjeTEYMBYGA1UEAxMPUGVyZmVjdCBQcml2YWN5MSgwJgYJKoZI
hvcNAQkBFhlhZG1pbkBwZXJmZWN0LXByaXZhY3kuY29tMB4XDTI0MDYxNDAwMDAw
MFoXDTI2MDIwOTAwMDAwMFowgY8xCzAJBgNVBAYTAkNIMQwwCgYDVQQIEwNadWcx
GDAWBgNVBAoTD1BlcmZlY3QgUHJpdmFjeTEuMCwGA1UEAxQlQ2xpZW50X2xvc2Fu
Z2VsZXMucGVyZmVjdC1wcml2YWN5LmNvbTEoMCYGCSqGSIb3DQEJARYZYWRtaW5A
cGVyZmVjdC1wcml2YWN5LmNvbTCCAiIwDQYJKoZIhvcNAQEBBQADggIPADCCAgoC
ggIBAM7aG0KXioPOPapyw9adreCnOcTX2JWaDNLgLcsNnDWRF452w5M3B77yVd34
QDZ6DmYkI8WajU943m/4a9x2lUxcyF+FYvISCxe8SspLusnTPOBJ+flynVdEepu6
/DJSVnjdZr5bh3FAdW6+s3Ts9pBZ3+/KZNMyY+KSs7FyDSPtHv1ToNo94NhvrCt9
QoT5tptk8PcyCbBIboZuxB8LxtliNclysUxVONPqtYSKksZ4dNqOvMX2IjKMggRg
3qFlgUVODQbbaWxXRSLTMEh3CUULQDgf9BQT+kvmAWUBSI+aP843CqQnCIO2kNyC
2ZjaPo6TX1H4nF6q0Xz3Dg1T60BvpWPsLI7xBuNOKBiJOH8wLPs8pRpUcGpsWrXJ
AvyTFLX/Ab5xw5SePS4Rp07LxUTR2/jWGk0tfXEy/kEtIkMH6ZEVMDAefGbJ9zuR
TA7dxz6RSSRJFNn1MeTXDKsEdyjsvmVdCy/WSfJrSxGNxsB4XiA12xX/Z4knPrCb
wmCMi80V634Xd41IedK41N9FU877admj72cshZgxiaKcAft2HmC2pM1Ye2gs6Icp
haEsVudLQFaK0LMSbijrf3ut5ZFkzkzxqAwqfSoy+s2MEuPgGPHDdeX+s1mlCYdj
HX2cXYrJmGLDaytxVG3Z+QaU79idK7MAFt6w433FZtuLaz3xAgMBAAGjggFHMIIB
QzAJBgNVHRMEAjAAMCMGCWCGSAGG+EIBDQQWFhRWUE4gVXNlciBDZXJ0aWZpY2F0
ZTARBglghkgBhvhCAQEEBAMCB4AwCwYDVR0PBAQDAgeAMBMGA1UdJQQMMAoGCCsG
AQUFBwMCMB0GA1UdDgQWBBQJm/AbSUD/54y6x462DJ0Ka1rl3TCBvAYDVR0jBIG0
MIGxgBSGT7htGCobPI8nNCnwgZ+6bmEO4aGBjaSBijCBhzELMAkGA1UEBhMCQ0gx
DDAKBgNVBAgTA1p1ZzEMMAoGA1UEBxMDWnVnMRgwFgYDVQQKEw9QZXJmZWN0IFBy
aXZhY3kxGDAWBgNVBAMTD1BlcmZlY3QgUHJpdmFjeTEoMCYGCSqGSIb3DQEJARYZ
YWRtaW5AcGVyZmVjdC1wcml2YWN5LmNvbYIJAPoRtcSqaa9pMA0GCSqGSIb3DQEB
DQUAA4ICAQB9IVLfMyDDj4aAfQ+gGxDDXzNflhpuhZmyup4NGxGK7kORYPPZmU0y
jYYIu9AmMbs7vr8tEqikw6lspfo/xc5kwcKX94djywppeG0jaEsQoiexMqxc+zKd
FvTnKiU5NdqYwhgeXBqAlH3lwyR2Swey0A3QFT5fa2n+Tr/uiaVd3Cv8c3r4qv3m
kBT/K1Oo+5/HBvkGrqo0J8WJ0UHTLn+8mKQNDfKq9BWo7YLe7pRmkqXNfnZufMil
QVscZgpsOAQ4yHobUwR80+2tDUxJ++eykx6UVMLZmZqTQQ/74eRT7WHXbfx7fYEL
927I3zzO01kDVliiGgL4cdxX7/321Fv4AVDVxDpu17jJc9uaae2OVqCyjgpW5S6Y
tR3bOUMzTpg4c8+w6OaJourndOro8NbgxfoObskQEY4dHm/LvjKGif/S3xR1shJE
RaZaOjLG6BB3ArBEgdqPgBc3SHepTUZHjnkHAa2c0Zk1KUxAqu3DMTjPZQ+duLNV
pd2BXEjV0nQR6qPW3Hi3g54ZY7v6bLww1A3Gfab0rp3iYEzdPtYf5yv/Qf/hJWNP
3G7g7uVqYy8g0ddNbc1m0oHqnYCitNByDa7fZGAXLDOmlirSvFNvgGqVZ2OzX/TK
3KogfShnQUcVrfEav7QjtApPi02aTrxRjHePg6cb+08yaaBmRjwebw==
-----END CERTIFICATE-----
