Certificate:
    Data:
        Version: 3 (0x2)
        Serial Number:
            ba:53:f2:40:3e:b2:17:9e
    Signature Algorithm: sha512WithRSAEncryption
        Issuer: C=CH, ST=Zug, L=Zug, O=Perfect Privacy, CN=Perfect Privacy/emailAddress=admin@perfect-privacy.com
        Validity
            Not Before: Jul 23 00:00:00 2023 GMT
            Not After : Mar 19 00:00:00 2025 GMT
        Subject: C=CH, ST=Zug, O=Perfect Privacy, CN=Client_losangeles.perfect-privacy.com/emailAddress=admin@perfect-privacy.com
        Subject Public Key Info:
            Public Key Algorithm: rsaEncryption
                Public-Key: (4096 bit)
                Modulus:
                    00:a3:4f:b4:96:17:a7:cc:a5:c8:2d:83:b2:4e:a1:
                    d0:b6:2e:92:88:7a:c2:70:8b:38:bd:84:1a:d0:b5:
                    47:e5:a9:e2:85:e1:3c:14:a2:d1:3a:2a:6d:96:ab:
                    0d:16:a7:2b:53:e6:07:45:e3:8f:13:d5:78:08:4f:
                    fb:1e:a2:21:b3:68:15:d6:f4:b1:44:2b:94:b0:b5:
                    99:0a:c3:a1:14:bb:c1:36:9e:5e:32:a4:63:db:46:
                    fe:44:c1:7c:f6:6a:9c:8f:31:3d:a1:48:6f:b6:aa:
                    21:67:89:8a:af:6e:1d:38:22:8c:6f:49:80:1b:74:
                    8b:be:8a:5d:08:34:b6:e5:6e:79:85:16:1b:df:bb:
                    96:26:7e:3b:c6:13:5d:26:f2:2c:58:63:b6:a3:93:
                    8f:cb:26:82:ac:5a:78:ee:55:11:7a:77:5e:34:19:
                    7d:ca:7e:f9:32:ba:7b:e0:21:53:63:4c:9b:79:56:
                    d5:d8:59:34:9a:ed:c1:01:fe:77:27:41:e9:86:79:
                    45:5e:dd:2b:45:87:8f:54:99:d4:8b:52:b7:c0:df:
                    00:a0:58:c1:4a:8f:34:af:9d:c0:a0:ff:7e:88:50:
                    de:51:50:30:99:3e:e4:92:4b:b0:70:e1:69:f4:03:
                    a5:2e:9e:0a:9b:cf:25:2b:81:e9:e8:a0:78:dc:cd:
                    7d:c3:78:16:52:1c:6e:ad:fc:37:61:70:f8:4b:2f:
                    14:8c:e9:b3:aa:14:8c:ff:fe:1d:2c:7d:99:96:c5:
                    c0:2a:c2:ec:ab:f3:5c:73:63:8c:a8:2c:f2:9b:a4:
                    f4:b2:48:74:be:cd:8c:97:5c:2e:c4:26:c2:fa:df:
                    8f:bf:99:bc:26:da:76:84:03:30:d2:42:c6:21:78:
                    54:46:17:44:d9:4c:69:97:a7:cf:74:fb:bc:62:e9:
                    34:66:8a:15:02:75:9d:81:49:0c:ea:f9:60:64:26:
                    20:c1:4a:73:79:be:4a:e1:a5:f4:65:9d:54:14:34:
                    35:30:fe:44:6c:83:22:85:87:0f:36:1a:8b:99:6a:
                    73:34:77:7f:06:e2:a8:9a:27:2e:99:89:ef:e4:0d:
                    f5:27:fd:f1:d4:b2:bf:14:90:3b:a8:6e:58:07:65:
                    5a:5c:9c:1b:b2:31:3b:28:32:f7:01:aa:d9:67:3b:
                    4c:99:5d:db:43:d1:5e:86:ff:07:73:b7:1a:d2:8a:
                    5b:6d:69:13:1b:18:cb:c0:5c:20:d7:53:e1:ba:97:
                    60:75:a2:ce:3a:8d:00:7b:a0:d8:c4:bd:c5:d9:43:
                    fe:24:25:70:e4:fc:60:5c:59:bb:d6:8a:21:5f:6f:
                    77:74:b8:23:1e:48:86:7a:fd:29:9d:cc:9a:aa:36:
                    7f:a6:7d
                Exponent: 65537 (0x10001)
        X509v3 extensions:
            X509v3 Basic Constraints: 
                CA:FALSE
            Netscape Comment: 
                VPN User Certificate
            Netscape Cert Type: 
                SSL Client
            X509v3 Key Usage: 
                Digital Signature
            X509v3 Extended Key Usage: 
                TLS Web Client Authentication
            X509v3 Subject Key Identifier: 
                EC:AC:A6:45:D2:77:29:D9:45:A6:04:78:95:E3:BE:F1:FB:5D:C0:94
            X509v3 Authority Key Identifier: 
                keyid:86:4F:B8:6D:18:2A:1B:3C:8F:27:34:29:F0:81:9F:BA:6E:61:0E:E1
                DirName:/C=CH/ST=Zug/L=Zug/O=Perfect Privacy/CN=Perfect Privacy/emailAddress=admin@perfect-privacy.com
                serial:FA:11:B5:C4:AA:69:AF:69

    Signature Algorithm: sha512WithRSAEncryption
         9f:d6:73:25:f2:e4:60:dc:f8:5f:8f:c3:7f:ca:5c:eb:ba:39:
         4c:c0:cc:b3:53:51:ad:3c:13:62:af:8a:ba:e4:52:8b:46:35:
         9f:fb:f8:23:74:5b:90:2f:2b:76:83:59:72:b4:8f:8b:89:33:
         28:0c:37:80:6c:c4:de:4b:b3:7e:30:30:aa:3c:fb:c4:77:e9:
         08:f9:83:80:58:cb:40:cb:e3:33:04:42:02:02:7e:d6:78:44:
         7c:9f:02:01:f0:0e:5a:03:fa:e8:52:42:ab:55:ef:f0:1c:ff:
         ca:aa:6c:a7:19:ab:3e:e7:fc:6a:2c:04:5b:75:e6:b2:6e:83:
         1c:a3:71:61:10:bf:41:3d:f9:44:b6:89:6b:4b:a0:f9:f5:c2:
         49:89:a4:b0:30:a5:28:59:a9:ed:1b:21:88:f5:65:ae:73:13:
         e8:20:f5:4f:ac:c9:20:a3:a7:a5:58:b0:18:5c:09:5d:7c:a8:
         02:3e:9e:26:c4:54:87:23:28:4c:0e:ea:8c:1a:6e:db:e7:9c:
         ae:54:b3:a6:7d:ed:a1:f2:f7:ff:2b:41:25:1a:18:f8:24:13:
         59:f9:0b:38:5d:03:01:c3:93:7d:27:8b:b4:d7:d8:48:a3:2c:
         03:f6:4b:a2:95:0c:0a:8e:3c:78:01:2d:ef:f9:86:4d:98:82:
         17:36:02:ea:43:05:40:a3:92:54:0e:04:22:ae:2d:82:75:c3:
         cc:d9:fe:80:aa:e8:cf:29:b7:2e:4f:f3:15:c4:9c:3b:05:f5:
         16:07:c3:ea:da:0e:c2:49:59:aa:68:8d:f3:c9:a4:69:ac:de:
         fc:19:10:8b:25:e4:4c:71:ac:52:04:dc:d4:82:7d:9b:05:a0:
         95:10:a4:2a:e5:d0:52:d2:a1:40:6c:30:b7:cd:b9:26:30:01:
         20:cd:0d:23:14:d4:72:94:2f:90:16:42:09:f2:8a:ee:9b:97:
         57:82:e9:a5:67:b2:8d:50:05:6e:54:08:d8:8c:0e:1a:12:a4:
         12:ea:9f:f9:ee:90:9c:c7:54:d0:c5:3f:5c:35:18:04:27:ea:
         c7:ee:64:03:27:b2:ca:8f:d6:34:9d:19:1e:ad:f7:de:05:75:
         a0:15:52:6e:08:93:05:9d:11:bc:3e:d8:5f:6b:5b:20:54:48:
         4f:d0:3f:f7:7c:0a:70:e4:fe:0d:7b:6c:2e:b6:c4:46:2b:b8:
         49:47:51:bd:a4:a1:21:d2:21:11:b6:f4:3c:9f:c8:80:41:fe:
         0c:df:c0:56:40:37:4d:b1:f0:2a:50:f7:75:00:80:ea:f2:67:
         42:ac:7f:72:93:b3:23:3b:d6:96:0f:b3:4b:62:1a:5e:32:30:
         54:68:de:74:f2:ae:70:8c
-----BEGIN CERTIFICATE-----
MIIG5DCCBMygAwIBAgIJALpT8kA+sheeMA0GCSqGSIb3DQEBDQUAMIGHMQswCQYD
VQQGEwJDSDEMMAoGA1UECBMDWnVnMQwwCgYDVQQHEwNadWcxGDAWBgNVBAoTD1Bl
cmZlY3QgUHJpdmFjeTEYMBYGA1UEAxMPUGVyZmVjdCBQcml2YWN5MSgwJgYJKoZI
hvcNAQkBFhlhZG1pbkBwZXJmZWN0LXByaXZhY3kuY29tMB4XDTIzMDcyMzAwMDAw
MFoXDTI1MDMxOTAwMDAwMFowgY8xCzAJBgNVBAYTAkNIMQwwCgYDVQQIEwNadWcx
GDAWBgNVBAoTD1BlcmZlY3QgUHJpdmFjeTEuMCwGA1UEAxQlQ2xpZW50X2xvc2Fu
Z2VsZXMucGVyZmVjdC1wcml2YWN5LmNvbTEoMCYGCSqGSIb3DQEJARYZYWRtaW5A
cGVyZmVjdC1wcml2YWN5LmNvbTCCAiIwDQYJKoZIhvcNAQEBBQADggIPADCCAgoC
ggIBAKNPtJYXp8ylyC2Dsk6h0LYukoh6wnCLOL2EGtC1R+Wp4oXhPBSi0ToqbZar
DRanK1PmB0XjjxPVeAhP+x6iIbNoFdb0sUQrlLC1mQrDoRS7wTaeXjKkY9tG/kTB
fPZqnI8xPaFIb7aqIWeJiq9uHTgijG9JgBt0i76KXQg0tuVueYUWG9+7liZ+O8YT
XSbyLFhjtqOTj8smgqxaeO5VEXp3XjQZfcp++TK6e+AhU2NMm3lW1dhZNJrtwQH+
dydB6YZ5RV7dK0WHj1SZ1ItSt8DfAKBYwUqPNK+dwKD/fohQ3lFQMJk+5JJLsHDh
afQDpS6eCpvPJSuB6eigeNzNfcN4FlIcbq38N2Fw+EsvFIzps6oUjP/+HSx9mZbF
wCrC7KvzXHNjjKgs8puk9LJIdL7NjJdcLsQmwvrfj7+ZvCbadoQDMNJCxiF4VEYX
RNlMaZenz3T7vGLpNGaKFQJ1nYFJDOr5YGQmIMFKc3m+SuGl9GWdVBQ0NTD+RGyD
IoWHDzYai5lqczR3fwbiqJonLpmJ7+QN9Sf98dSyvxSQO6huWAdlWlycG7IxOygy
9wGq2Wc7TJld20PRXob/B3O3GtKKW21pExsYy8BcINdT4bqXYHWizjqNAHug2MS9
xdlD/iQlcOT8YFxZu9aKIV9vd3S4Ix5Ihnr9KZ3Mmqo2f6Z9AgMBAAGjggFHMIIB
QzAJBgNVHRMEAjAAMCMGCWCGSAGG+EIBDQQWFhRWUE4gVXNlciBDZXJ0aWZpY2F0
ZTARBglghkgBhvhCAQEEBAMCB4AwCwYDVR0PBAQDAgeAMBMGA1UdJQQMMAoGCCsG
AQUFBwMCMB0GA1UdDgQWBBTsrKZF0ncp2UWmBHiV477x+13AlDCBvAYDVR0jBIG0
MIGxgBSGT7htGCobPI8nNCnwgZ+6bmEO4aGBjaSBijCBhzELMAkGA1UEBhMCQ0gx
DDAKBgNVBAgTA1p1ZzEMMAoGA1UEBxMDWnVnMRgwFgYDVQQKEw9QZXJmZWN0IFBy
aXZhY3kxGDAWBgNVBAMTD1BlcmZlY3QgUHJpdmFjeTEoMCYGCSqGSIb3DQEJARYZ
YWRtaW5AcGVyZmVjdC1wcml2YWN5LmNvbYIJAPoRtcSqaa9pMA0GCSqGSIb3DQEB
DQUAA4ICAQCf1nMl8uRg3Phfj8N/ylzrujlMwMyzU1GtPBNir4q65FKLRjWf+/gj
dFuQLyt2g1lytI+LiTMoDDeAbMTeS7N+MDCqPPvEd+kI+YOAWMtAy+MzBEICAn7W
eER8nwIB8A5aA/roUkKrVe/wHP/KqmynGas+5/xqLARbdeayboMco3FhEL9BPflE
tolrS6D59cJJiaSwMKUoWantGyGI9WWucxPoIPVPrMkgo6elWLAYXAldfKgCPp4m
xFSHIyhMDuqMGm7b55yuVLOmfe2h8vf/K0ElGhj4JBNZ+Qs4XQMBw5N9J4u019hI
oywD9kuilQwKjjx4AS3v+YZNmIIXNgLqQwVAo5JUDgQiri2CdcPM2f6AqujPKbcu
T/MVxJw7BfUWB8Pq2g7CSVmqaI3zyaRprN78GRCLJeRMcaxSBNzUgn2bBaCVEKQq
5dBS0qFAbDC3zbkmMAEgzQ0jFNRylC+QFkIJ8orum5dXgumlZ7KNUAVuVAjYjA4a
EqQS6p/57pCcx1TQxT9cNRgEJ+rH7mQDJ7LKj9Y0nRkerffeBXWgFVJuCJMFnRG8
Pthfa1sgVEhP0D/3fApw5P4Ne2wutsRGK7hJR1G9pKEh0iERtvQ8n8iAQf4M38BW
QDdNsfAqUPd1AIDq8mdCrH9yk7MjO9aWD7NLYhpeMjBUaN508q5wjA==
-----END CERTIFICATE-----
