Certificate:
    Data:
        Version: 3 (0x2)
        Serial Number: 2853899601559572428 (0x279b169127964fcc)
    Signature Algorithm: sha512WithRSAEncryption
        Issuer: C=CH, ST=Zug, L=Zug, O=Perfect Privacy, CN=Perfect Privacy/emailAddress=admin@perfect-privacy.com
        Validity
            Not Before: Jun 24 00:00:00 2023 GMT
            Not After : Feb 18 00:00:00 2025 GMT
        Subject: C=CH, ST=Zug, O=Perfect Privacy, CN=Client_london.perfect-privacy.com/emailAddress=admin@perfect-privacy.com
        Subject Public Key Info:
            Public Key Algorithm: rsaEncryption
                Public-Key: (4096 bit)
                Modulus:
                    00:b3:d2:19:09:5f:b8:f1:4e:64:64:f8:52:82:ed:
                    2f:91:1c:fc:db:cc:67:b9:53:8d:09:ad:54:62:21:
                    06:f6:12:81:87:d6:5f:b7:cc:fd:78:a1:34:d6:24:
                    51:d1:f9:36:22:8d:d5:28:63:4b:76:9b:48:ec:55:
                    6c:c6:0c:45:30:37:ed:da:01:a8:91:e3:bf:99:2c:
                    ac:33:32:82:8b:70:9c:b3:ef:d4:12:7f:11:fe:25:
                    c6:4b:08:5c:d8:8d:07:08:54:a6:94:0c:4a:75:de:
                    e7:29:56:8a:c5:bc:af:c9:a2:84:8a:a0:9b:65:cc:
                    ba:5d:f6:1b:70:1c:49:ec:f8:f2:7a:a8:f6:51:62:
                    4d:8d:b7:7b:3f:db:33:33:f6:62:79:d9:e6:85:2d:
                    9a:46:1c:a5:89:c4:db:81:a9:0f:fa:16:b2:ac:88:
                    91:14:d8:97:77:02:b2:6e:c4:30:a1:d9:92:79:fc:
                    9b:09:8b:4b:8c:61:6e:9c:10:d7:0b:24:c0:0b:32:
                    6a:a4:81:31:44:ee:3d:52:f0:d1:35:39:a8:94:7e:
                    f3:3b:bd:7e:cb:b4:32:62:48:67:a1:34:04:0f:87:
                    d7:86:12:bb:90:5c:0b:6c:05:8e:a7:b2:8a:dd:b6:
                    78:2d:e8:6c:10:7b:f0:79:30:2a:67:6c:00:5b:df:
                    21:5c:b3:15:78:00:75:05:48:69:dd:f5:40:dd:97:
                    a8:96:f5:d0:5a:08:5b:48:41:0d:a8:ad:32:69:17:
                    c6:1f:89:0a:35:19:08:1d:92:42:70:7f:d2:71:2a:
                    51:bb:f4:df:3a:ff:1f:33:c4:d5:49:24:23:b6:62:
                    34:08:3f:a1:7d:c3:43:42:a5:75:52:c4:2d:27:5d:
                    b1:9a:1e:87:3f:86:66:f2:f6:e6:63:58:71:94:aa:
                    4f:d4:4a:62:99:34:01:1b:ac:ec:a3:91:1c:a5:8a:
                    4b:e5:5c:fe:c4:18:20:16:f4:cd:69:d2:41:09:fa:
                    41:c2:87:37:df:14:84:83:a8:78:d9:9d:57:16:a9:
                    3c:31:43:c7:af:07:af:fe:96:a8:37:37:1d:4f:9a:
                    08:db:58:10:5e:4e:b4:bf:c5:ef:63:de:b9:49:ce:
                    91:28:73:0d:db:c1:2f:21:1f:72:cd:e3:e6:cd:bc:
                    6c:71:f7:0d:6e:a2:8b:af:81:bd:16:ea:60:20:c8:
                    a8:01:f5:a3:8a:ad:fb:04:cb:7e:0f:bc:17:49:64:
                    15:64:41:67:0a:bc:df:45:f7:93:b4:10:80:93:0d:
                    30:96:f6:65:ca:49:7f:4f:1e:03:04:de:26:16:52:
                    f7:a6:4c:c4:2c:44:1f:d6:a3:ec:2e:49:9f:20:2e:
                    99:58:a5
                Exponent: 65537 (0x10001)
        X509v3 extensions:
            X509v3 Basic Constraints: 
                CA:FALSE
            Netscape Comment: 
                VPN User Certificate
            Netscape Cert Type: 
                SSL Client
            X509v3 Key Usage: 
                Digital Signature
            X509v3 Extended Key Usage: 
                TLS Web Client Authentication
            X509v3 Subject Key Identifier: 
                8C:2B:AE:81:C5:81:F5:1F:4C:73:11:65:90:C0:BD:DA:77:E9:11:26
            X509v3 Authority Key Identifier: 
                keyid:86:4F:B8:6D:18:2A:1B:3C:8F:27:34:29:F0:81:9F:BA:6E:61:0E:E1
                DirName:/C=CH/ST=Zug/L=Zug/O=Perfect Privacy/CN=Perfect Privacy/emailAddress=admin@perfect-privacy.com
                serial:FA:11:B5:C4:AA:69:AF:69

    Signature Algorithm: sha512WithRSAEncryption
         a3:9f:81:42:ff:ef:32:52:74:14:b0:60:5b:4f:a4:3e:00:bc:
         4f:e8:84:e3:8a:65:b9:17:eb:fe:ee:4f:3c:72:9e:4b:1d:34:
         00:5c:e8:e2:0f:b5:c9:bf:b9:e7:a2:06:bb:65:f5:65:30:1f:
         68:a8:f9:37:85:9f:b1:bb:29:52:7b:6f:46:05:69:20:bf:ff:
         a0:70:f5:1c:d1:04:a7:c6:5f:60:fd:f6:0d:b5:11:6f:e2:21:
         6c:69:02:70:88:a9:8c:cd:60:76:6b:9a:69:d6:e5:ab:f8:e4:
         25:50:84:4c:fa:14:9f:48:c2:4a:ea:a8:7d:04:f0:86:d4:42:
         8d:c3:29:c4:63:02:c3:e3:af:4f:9d:e8:96:2a:8d:c4:8a:4b:
         cc:77:e9:28:a1:19:05:e5:d3:b9:df:7e:9e:f6:97:c5:ed:d6:
         90:b5:fd:b3:6d:17:b7:14:9d:56:fe:d4:1e:f4:8c:e1:22:04:
         fc:62:63:c8:87:ac:51:53:eb:7a:f1:51:f7:93:df:9f:36:ff:
         e2:63:e7:38:d8:c2:5a:7e:39:04:83:78:80:c9:c9:e8:cf:5c:
         58:05:bc:bb:72:ad:de:68:ff:64:0e:13:9f:7f:3f:a4:8d:ce:
         3e:7f:41:86:bb:7c:e0:ec:64:26:ce:4d:75:c8:ed:bb:bd:08:
         45:15:de:76:a5:a0:6f:ee:27:bf:84:58:8f:d1:82:0f:66:93:
         40:60:42:5c:04:76:01:37:0b:0d:58:b3:0c:27:43:9f:34:51:
         43:bd:85:2e:16:75:0d:0d:ff:63:10:be:07:3e:55:9a:29:07:
         d9:20:b2:37:dc:7b:d3:56:b9:6e:24:d0:bb:13:d6:92:27:54:
         81:23:2d:f8:d2:7d:4c:0b:e5:2e:22:3e:eb:ed:df:26:28:94:
         5f:18:b8:90:9c:33:c1:bf:5d:d6:79:cb:44:a2:66:cc:c1:dc:
         52:39:f9:66:20:3c:3e:22:fe:21:eb:87:eb:14:0c:49:96:c5:
         31:a0:d3:60:e7:be:8f:9f:63:94:27:46:2e:be:5b:0b:04:35:
         e7:69:8a:90:be:de:d0:84:34:9f:31:66:11:2d:30:a3:98:e1:
         51:32:8d:89:f8:1d:9b:93:1b:d7:30:3b:85:e6:a9:eb:40:d9:
         99:68:c1:5b:3e:a2:61:46:34:99:37:3a:cc:0b:1e:33:58:f8:
         56:08:5c:c5:de:54:c6:69:32:66:d2:7c:5f:41:eb:43:78:e5:
         83:1d:68:19:ac:c2:1d:fa:ca:57:94:ed:5d:27:9a:04:78:8b:
         dd:e5:94:90:22:40:4f:92:9f:c8:e8:a6:c1:db:28:f1:5c:c2:
         b6:36:c0:be:9e:59:a6:6e
-----BEGIN CERTIFICATE-----
MIIG3zCCBMegAwIBAgIIJ5sWkSeWT8wwDQYJKoZIhvcNAQENBQAwgYcxCzAJBgNV
BAYTAkNIMQwwCgYDVQQIEwNadWcxDDAKBgNVBAcTA1p1ZzEYMBYGA1UEChMPUGVy
ZmVjdCBQcml2YWN5MRgwFgYDVQQDEw9QZXJmZWN0IFByaXZhY3kxKDAmBgkqhkiG
9w0BCQEWGWFkbWluQHBlcmZlY3QtcHJpdmFjeS5jb20wHhcNMjMwNjI0MDAwMDAw
WhcNMjUwMjE4MDAwMDAwWjCBizELMAkGA1UEBhMCQ0gxDDAKBgNVBAgTA1p1ZzEY
MBYGA1UEChMPUGVyZmVjdCBQcml2YWN5MSowKAYDVQQDFCFDbGllbnRfbG9uZG9u
LnBlcmZlY3QtcHJpdmFjeS5jb20xKDAmBgkqhkiG9w0BCQEWGWFkbWluQHBlcmZl
Y3QtcHJpdmFjeS5jb20wggIiMA0GCSqGSIb3DQEBAQUAA4ICDwAwggIKAoICAQCz
0hkJX7jxTmRk+FKC7S+RHPzbzGe5U40JrVRiIQb2EoGH1l+3zP14oTTWJFHR+TYi
jdUoY0t2m0jsVWzGDEUwN+3aAaiR47+ZLKwzMoKLcJyz79QSfxH+JcZLCFzYjQcI
VKaUDEp13ucpVorFvK/JooSKoJtlzLpd9htwHEns+PJ6qPZRYk2Nt3s/2zMz9mJ5
2eaFLZpGHKWJxNuBqQ/6FrKsiJEU2Jd3ArJuxDCh2ZJ5/JsJi0uMYW6cENcLJMAL
MmqkgTFE7j1S8NE1OaiUfvM7vX7LtDJiSGehNAQPh9eGEruQXAtsBY6nsordtngt
6GwQe/B5MCpnbABb3yFcsxV4AHUFSGnd9UDdl6iW9dBaCFtIQQ2orTJpF8YfiQo1
GQgdkkJwf9JxKlG79N86/x8zxNVJJCO2YjQIP6F9w0NCpXVSxC0nXbGaHoc/hmby
9uZjWHGUqk/USmKZNAEbrOyjkRylikvlXP7EGCAW9M1p0kEJ+kHChzffFISDqHjZ
nVcWqTwxQ8evB6/+lqg3Nx1PmgjbWBBeTrS/xe9j3rlJzpEocw3bwS8hH3LN4+bN
vGxx9w1uoouvgb0W6mAgyKgB9aOKrfsEy34PvBdJZBVkQWcKvN9F95O0EICTDTCW
9mXKSX9PHgME3iYWUvemTMQsRB/Wo+wuSZ8gLplYpQIDAQABo4IBRzCCAUMwCQYD
VR0TBAIwADAjBglghkgBhvhCAQ0EFhYUVlBOIFVzZXIgQ2VydGlmaWNhdGUwEQYJ
YIZIAYb4QgEBBAQDAgeAMAsGA1UdDwQEAwIHgDATBgNVHSUEDDAKBggrBgEFBQcD
AjAdBgNVHQ4EFgQUjCuugcWB9R9McxFlkMC92nfpESYwgbwGA1UdIwSBtDCBsYAU
hk+4bRgqGzyPJzQp8IGfum5hDuGhgY2kgYowgYcxCzAJBgNVBAYTAkNIMQwwCgYD
VQQIEwNadWcxDDAKBgNVBAcTA1p1ZzEYMBYGA1UEChMPUGVyZmVjdCBQcml2YWN5
MRgwFgYDVQQDEw9QZXJmZWN0IFByaXZhY3kxKDAmBgkqhkiG9w0BCQEWGWFkbWlu
QHBlcmZlY3QtcHJpdmFjeS5jb22CCQD6EbXEqmmvaTANBgkqhkiG9w0BAQ0FAAOC
AgEAo5+BQv/vMlJ0FLBgW0+kPgC8T+iE44pluRfr/u5PPHKeSx00AFzo4g+1yb+5
56IGu2X1ZTAfaKj5N4WfsbspUntvRgVpIL//oHD1HNEEp8ZfYP32DbURb+IhbGkC
cIipjM1gdmuaadblq/jkJVCETPoUn0jCSuqofQTwhtRCjcMpxGMCw+OvT53oliqN
xIpLzHfpKKEZBeXTud9+nvaXxe3WkLX9s20XtxSdVv7UHvSM4SIE/GJjyIesUVPr
evFR95Pfnzb/4mPnONjCWn45BIN4gMnJ6M9cWAW8u3Kt3mj/ZA4Tn38/pI3OPn9B
hrt84OxkJs5Ndcjtu70IRRXedqWgb+4nv4RYj9GCD2aTQGBCXAR2ATcLDVizDCdD
nzRRQ72FLhZ1DQ3/YxC+Bz5VmikH2SCyN9x701a5biTQuxPWkidUgSMt+NJ9TAvl
LiI+6+3fJiiUXxi4kJwzwb9d1nnLRKJmzMHcUjn5ZiA8PiL+IeuH6xQMSZbFMaDT
YOe+j59jlCdGLr5bCwQ152mKkL7e0IQ0nzFmES0wo5jhUTKNifgdm5Mb1zA7heap
60DZmWjBWz6iYUY0mTc6zAseM1j4Vghcxd5UxmkyZtJ8X0HrQ3jlgx1oGazCHfrK
V5TtXSeaBHiL3eWUkCJAT5KfyOimwdso8VzCtjbAvp5Zpm4=
-----END CERTIFICATE-----
