Certificate:
    Data:
        Version: 3 (0x2)
        Serial Number: 2354860605377131001 (0x20ae253e7710b1f9)
    Signature Algorithm: sha512WithRSAEncryption
        Issuer: C=CH, ST=Zug, L=Zug, O=Perfect Privacy, CN=Perfect Privacy/emailAddress=admin@perfect-privacy.com
        Validity
            Not Before: Feb 27 00:00:00 2023 GMT
            Not After : Oct 24 00:00:00 2024 GMT
        Subject: C=CH, ST=Zug, O=Perfect Privacy, CN=Client_london.perfect-privacy.com/emailAddress=admin@perfect-privacy.com
        Subject Public Key Info:
            Public Key Algorithm: rsaEncryption
                Public-Key: (4096 bit)
                Modulus:
                    00:b2:9b:f3:fe:0e:3b:ed:58:d8:13:a8:7e:26:a8:
                    be:df:3d:e9:02:6c:48:ae:be:da:74:5f:6c:69:1c:
                    c2:62:2e:70:57:41:87:8e:fd:32:5d:0f:2e:49:4e:
                    5c:d3:41:d4:b5:94:b1:ea:2b:2a:c6:68:8b:fd:cb:
                    86:1c:2a:44:29:86:37:7f:74:5f:20:39:eb:a1:95:
                    c3:bf:13:e2:7b:53:6f:20:e6:4e:6e:e0:32:0f:5d:
                    a1:45:3f:ba:c3:ea:e8:9e:10:d0:d1:67:3b:c9:1f:
                    c8:ab:bc:66:62:2b:9c:64:bd:a7:fe:ba:98:6d:03:
                    be:3a:15:28:6f:07:8f:7f:e2:6f:da:74:fb:47:0d:
                    d0:fd:fe:cf:78:3e:1a:77:54:26:5f:55:52:5e:97:
                    c3:64:c7:7c:f0:db:8c:d2:e1:bb:1c:d5:6d:fe:f1:
                    33:a0:41:b0:a5:33:d1:8e:d7:10:cf:0b:6a:f1:89:
                    ad:48:7c:53:c2:3f:65:1f:80:45:16:ca:6d:ec:f4:
                    5f:cc:bc:e7:96:7e:a2:28:d4:bf:9b:89:d3:d6:31:
                    62:7c:40:5b:9e:9b:0e:88:61:24:88:6d:13:22:38:
                    f0:aa:3b:df:f8:e7:ff:1a:39:fb:cf:d9:66:79:dc:
                    68:e1:ba:30:ed:01:0f:16:91:95:64:78:89:e1:1b:
                    3a:02:bf:43:a2:45:86:df:f5:b2:be:25:dd:b0:ab:
                    c6:11:b0:86:58:f3:7b:f0:85:75:e3:7d:2a:f6:b0:
                    0c:a1:a8:93:c2:e3:9e:e1:f1:5b:f7:8a:85:4d:dd:
                    b8:6a:8c:26:54:17:0c:26:f3:de:89:73:ea:88:15:
                    c0:45:80:3a:c7:f7:ae:96:85:0f:ff:54:4d:6d:81:
                    9e:24:d6:37:f1:ff:96:7e:cb:1e:2a:bf:eb:f1:d6:
                    fe:89:79:5c:55:05:0d:b9:82:98:28:00:e7:7b:d4:
                    d1:eb:67:f1:7e:8a:98:05:9f:49:a7:d5:fa:ca:6c:
                    fe:2d:fb:a6:30:6a:dd:63:36:04:65:26:db:02:69:
                    19:a0:91:02:66:56:ff:3d:2f:b6:9f:2e:df:e2:5c:
                    64:59:34:22:04:48:b0:6c:53:ed:a4:76:fa:42:8f:
                    9a:2b:7e:79:54:8a:6c:c9:f8:d6:1d:ce:42:7c:21:
                    29:e2:e6:c2:05:6c:08:0f:b4:0b:d6:a9:74:ec:dc:
                    47:ac:71:06:05:7c:7c:3a:5f:6f:3f:63:25:56:b3:
                    2b:ce:02:f8:e4:63:bc:29:74:f2:3b:07:c3:94:b7:
                    42:d0:e7:fd:ba:3c:45:a2:a5:4b:7c:b8:79:c4:d1:
                    8c:28:34:e1:27:79:01:0f:23:10:62:48:da:96:2e:
                    6b:8a:d3
                Exponent: 65537 (0x10001)
        X509v3 extensions:
            X509v3 Basic Constraints: 
                CA:FALSE
            Netscape Comment: 
                VPN User Certificate
            Netscape Cert Type: 
                SSL Client
            X509v3 Key Usage: 
                Digital Signature
            X509v3 Extended Key Usage: 
                TLS Web Client Authentication
            X509v3 Subject Key Identifier: 
                7F:CE:A6:A9:C5:D5:CC:44:5E:6F:2A:DF:81:CE:E6:0B:FF:9D:FF:C1
            X509v3 Authority Key Identifier: 
                keyid:86:4F:B8:6D:18:2A:1B:3C:8F:27:34:29:F0:81:9F:BA:6E:61:0E:E1
                DirName:/C=CH/ST=Zug/L=Zug/O=Perfect Privacy/CN=Perfect Privacy/emailAddress=admin@perfect-privacy.com
                serial:FA:11:B5:C4:AA:69:AF:69

    Signature Algorithm: sha512WithRSAEncryption
         04:77:be:a8:f3:e9:d1:3c:f0:6d:65:71:86:01:ef:85:41:7f:
         34:e9:cc:fa:e0:11:c6:03:8c:1d:e1:1b:ed:1b:05:35:07:bd:
         ff:4b:68:49:6a:88:f2:f2:ed:3b:eb:4a:46:d5:d5:ed:dd:25:
         68:ed:35:78:e5:2a:74:1c:b7:fe:c1:15:ae:94:b6:f7:be:c1:
         2b:b4:77:63:f3:fc:c6:aa:f9:dc:44:5e:03:c6:20:6c:ee:19:
         ec:c1:ef:d7:08:8e:1e:79:33:cf:79:81:c1:de:37:31:9f:8f:
         ba:cb:1b:d1:04:72:4d:64:38:f6:32:73:ba:bb:8d:25:53:3b:
         1e:7b:ec:ad:04:22:4a:3f:54:70:bc:db:76:93:18:0b:82:d8:
         9b:69:42:31:86:af:b7:98:fd:d9:15:a5:43:8c:3e:ee:07:c4:
         1b:37:33:d0:3c:b4:45:a3:cb:bf:49:62:e6:eb:fa:d5:bc:c8:
         5f:6a:c7:a6:be:2a:b0:f6:3b:fc:96:7b:a5:7c:37:47:46:07:
         f9:bf:42:88:4c:60:47:ca:e4:d8:11:7b:4e:b2:c6:e9:ee:13:
         5f:7b:f7:f1:a3:22:c3:9a:46:16:ed:cb:11:49:b3:fe:dd:cc:
         6d:a6:5d:a1:2a:cc:ec:0d:13:8f:d2:18:53:da:f5:b5:75:f3:
         9c:da:3a:df:4a:8c:aa:4d:88:e3:d6:9f:21:61:de:85:c1:cc:
         08:6a:f1:4c:f3:35:8f:7f:69:eb:46:42:01:98:b8:8d:2f:ff:
         f3:aa:2f:87:46:8b:a1:46:36:59:5e:3a:f9:b1:33:a0:7f:61:
         09:55:e7:8d:85:12:f0:19:c9:bd:8c:97:96:c6:20:6a:65:af:
         84:8a:c9:2f:c5:72:9e:a3:d2:ba:29:e9:6f:42:e1:d3:c4:20:
         b2:e5:7f:98:d2:b5:77:a2:4f:3b:81:b6:fe:fe:48:de:5b:d7:
         f1:6c:1a:77:b2:c5:72:4a:68:b8:32:14:51:08:86:01:8b:7b:
         b5:a1:33:82:50:2d:40:18:c6:2c:0b:e9:f8:31:aa:41:73:e6:
         80:36:7a:12:98:7b:81:b9:14:a5:38:1b:03:4a:f4:46:f6:f8:
         ae:3b:3e:ee:e2:69:41:03:76:76:63:97:51:8f:bd:dc:22:81:
         12:c5:be:4a:76:d1:c4:0e:65:99:ee:49:05:3d:d5:d5:3e:44:
         6f:c1:9a:be:cc:3d:01:63:a5:56:25:3a:8a:58:e6:c4:ae:54:
         61:0d:3f:69:25:46:f9:d2:a4:68:f2:b1:db:eb:40:31:43:50:
         c5:c6:3f:ef:72:31:84:6d:8b:a7:f0:93:2b:53:e2:66:ab:b3:
         26:8e:f9:8d:a5:83:7c:93
-----BEGIN CERTIFICATE-----
MIIG3zCCBMegAwIBAgIIIK4lPncQsfkwDQYJKoZIhvcNAQENBQAwgYcxCzAJBgNV
BAYTAkNIMQwwCgYDVQQIEwNadWcxDDAKBgNVBAcTA1p1ZzEYMBYGA1UEChMPUGVy
ZmVjdCBQcml2YWN5MRgwFgYDVQQDEw9QZXJmZWN0IFByaXZhY3kxKDAmBgkqhkiG
9w0BCQEWGWFkbWluQHBlcmZlY3QtcHJpdmFjeS5jb20wHhcNMjMwMjI3MDAwMDAw
WhcNMjQxMDI0MDAwMDAwWjCBizELMAkGA1UEBhMCQ0gxDDAKBgNVBAgTA1p1ZzEY
MBYGA1UEChMPUGVyZmVjdCBQcml2YWN5MSowKAYDVQQDFCFDbGllbnRfbG9uZG9u
LnBlcmZlY3QtcHJpdmFjeS5jb20xKDAmBgkqhkiG9w0BCQEWGWFkbWluQHBlcmZl
Y3QtcHJpdmFjeS5jb20wggIiMA0GCSqGSIb3DQEBAQUAA4ICDwAwggIKAoICAQCy
m/P+DjvtWNgTqH4mqL7fPekCbEiuvtp0X2xpHMJiLnBXQYeO/TJdDy5JTlzTQdS1
lLHqKyrGaIv9y4YcKkQphjd/dF8gOeuhlcO/E+J7U28g5k5u4DIPXaFFP7rD6uie
ENDRZzvJH8irvGZiK5xkvaf+uphtA746FShvB49/4m/adPtHDdD9/s94Php3VCZf
VVJel8Nkx3zw24zS4bsc1W3+8TOgQbClM9GO1xDPC2rxia1IfFPCP2UfgEUWym3s
9F/MvOeWfqIo1L+bidPWMWJ8QFuemw6IYSSIbRMiOPCqO9/45/8aOfvP2WZ53Gjh
ujDtAQ8WkZVkeInhGzoCv0OiRYbf9bK+Jd2wq8YRsIZY83vwhXXjfSr2sAyhqJPC
457h8Vv3ioVN3bhqjCZUFwwm896Jc+qIFcBFgDrH966WhQ//VE1tgZ4k1jfx/5Z+
yx4qv+vx1v6JeVxVBQ25gpgoAOd71NHrZ/F+ipgFn0mn1frKbP4t+6Ywat1jNgRl
JtsCaRmgkQJmVv89L7afLt/iXGRZNCIESLBsU+2kdvpCj5orfnlUimzJ+NYdzkJ8
ISni5sIFbAgPtAvWqXTs3EescQYFfHw6X28/YyVWsyvOAvjkY7wpdPI7B8OUt0LQ
5/26PEWipUt8uHnE0YwoNOEneQEPIxBiSNqWLmuK0wIDAQABo4IBRzCCAUMwCQYD
VR0TBAIwADAjBglghkgBhvhCAQ0EFhYUVlBOIFVzZXIgQ2VydGlmaWNhdGUwEQYJ
YIZIAYb4QgEBBAQDAgeAMAsGA1UdDwQEAwIHgDATBgNVHSUEDDAKBggrBgEFBQcD
AjAdBgNVHQ4EFgQUf86mqcXVzERebyrfgc7mC/+d/8EwgbwGA1UdIwSBtDCBsYAU
hk+4bRgqGzyPJzQp8IGfum5hDuGhgY2kgYowgYcxCzAJBgNVBAYTAkNIMQwwCgYD
VQQIEwNadWcxDDAKBgNVBAcTA1p1ZzEYMBYGA1UEChMPUGVyZmVjdCBQcml2YWN5
MRgwFgYDVQQDEw9QZXJmZWN0IFByaXZhY3kxKDAmBgkqhkiG9w0BCQEWGWFkbWlu
QHBlcmZlY3QtcHJpdmFjeS5jb22CCQD6EbXEqmmvaTANBgkqhkiG9w0BAQ0FAAOC
AgEABHe+qPPp0TzwbWVxhgHvhUF/NOnM+uARxgOMHeEb7RsFNQe9/0toSWqI8vLt
O+tKRtXV7d0laO01eOUqdBy3/sEVrpS2977BK7R3Y/P8xqr53EReA8YgbO4Z7MHv
1wiOHnkzz3mBwd43MZ+Pussb0QRyTWQ49jJzuruNJVM7HnvsrQQiSj9UcLzbdpMY
C4LYm2lCMYavt5j92RWlQ4w+7gfEGzcz0Dy0RaPLv0li5uv61bzIX2rHpr4qsPY7
/JZ7pXw3R0YH+b9CiExgR8rk2BF7TrLG6e4TX3v38aMiw5pGFu3LEUmz/t3MbaZd
oSrM7A0Tj9IYU9r1tXXznNo630qMqk2I49afIWHehcHMCGrxTPM1j39p60ZCAZi4
jS//86ovh0aLoUY2WV46+bEzoH9hCVXnjYUS8BnJvYyXlsYgamWvhIrJL8VynqPS
uinpb0Lh08QgsuV/mNK1d6JPO4G2/v5I3lvX8Wwad7LFckpouDIUUQiGAYt7taEz
glAtQBjGLAvp+DGqQXPmgDZ6Eph7gbkUpTgbA0r0Rvb4rjs+7uJpQQN2dmOXUY+9
3CKBEsW+SnbRxA5lme5JBT3V1T5Eb8Gavsw9AWOlViU6iljmxK5UYQ0/aSVG+dKk
aPKx2+tAMUNQxcY/73IxhG2Lp/CTK1PiZquzJo75jaWDfJM=
-----END CERTIFICATE-----
