Certificate:
    Data:
        Version: 3 (0x2)
        Serial Number:
            e9:a1:5b:aa:ce:7e:60:3b
    Signature Algorithm: sha512WithRSAEncryption
        Issuer: C=CH, ST=Zug, L=Zug, O=Perfect Privacy, CN=Perfect Privacy/emailAddress=admin@perfect-privacy.com
        Validity
            Not Before: Mar  5 00:00:00 2023 GMT
            Not After : Oct 30 00:00:00 2024 GMT
        Subject: C=CH, ST=Zug, O=Perfect Privacy, CN=Client_losangeles.perfect-privacy.com/emailAddress=admin@perfect-privacy.com
        Subject Public Key Info:
            Public Key Algorithm: rsaEncryption
                Public-Key: (4096 bit)
                Modulus:
                    00:c3:1e:68:f8:ca:f5:ff:de:b0:86:fc:80:1f:cd:
                    09:d3:21:9a:b6:ad:f2:f6:87:df:a1:2e:1d:e5:e4:
                    07:5a:e8:16:73:31:8f:b5:90:41:b0:68:24:86:c9:
                    48:5b:a2:15:18:ec:c4:43:d8:79:f9:00:33:25:e8:
                    45:61:93:6e:46:60:0d:f7:2c:94:fc:25:40:33:2c:
                    7e:bf:6b:eb:fb:a6:86:64:0f:75:ad:69:03:fa:77:
                    fb:78:57:d4:14:e2:c2:86:10:a9:d9:0f:a0:ac:f4:
                    de:14:26:c0:9a:d9:da:c4:cd:b0:03:7c:f4:77:2d:
                    5a:28:42:66:3d:99:27:36:f3:99:bf:87:bb:57:07:
                    37:b9:99:28:de:b6:a7:be:59:6d:53:7b:85:b8:36:
                    44:b1:32:3f:95:31:25:8c:df:5a:c9:c4:7e:d4:a5:
                    39:5b:ee:c6:3f:3e:1d:c0:82:f9:51:aa:62:c4:2b:
                    be:79:79:5b:56:36:26:e0:77:f8:b2:1d:1a:23:98:
                    b0:b5:36:af:e0:e9:63:59:1b:78:d2:0f:f7:95:b9:
                    00:4d:6a:e1:93:70:b2:77:a1:cc:7e:9b:4e:be:f4:
                    96:14:25:68:60:08:6a:7b:5f:bd:5c:e3:44:fb:ef:
                    25:1a:7b:eb:8f:fe:95:ba:39:84:86:08:9f:61:46:
                    a9:34:a5:63:f0:d1:c2:48:23:b2:ea:20:3b:67:5d:
                    f0:cb:2b:bd:5f:ac:55:50:9a:18:2f:4e:76:e7:1e:
                    e3:d5:30:6a:f2:06:70:6d:19:8c:48:ac:2b:c4:2f:
                    70:c5:7b:1f:99:70:9b:cf:e6:7c:a9:c8:fa:fc:3b:
                    4a:1d:49:76:18:f5:19:70:00:14:dd:0f:10:3e:8f:
                    00:ec:b9:9d:a4:dc:05:58:09:e0:d2:ce:23:7e:e8:
                    93:2c:69:4e:ab:8b:f5:8b:97:f4:32:3f:83:2b:a0:
                    de:c9:de:28:59:6e:09:61:37:c2:89:d4:6b:80:4d:
                    23:0a:31:f7:e5:9a:8a:71:06:10:77:f7:56:76:8e:
                    83:6c:bf:60:82:a6:e1:91:76:47:b5:68:af:b4:7d:
                    5b:1a:eb:70:b8:7e:b8:76:a4:d2:1a:7d:fb:4b:5c:
                    e8:da:f0:34:12:ae:2d:2f:72:16:ea:4d:73:78:a9:
                    ef:12:ca:d9:45:f4:ac:e7:96:a3:46:ff:ed:71:df:
                    bc:84:33:5d:91:da:9b:c4:3d:96:1a:93:d6:34:99:
                    d0:1e:0e:ee:64:6b:c6:b7:53:c5:7d:dd:c8:ff:42:
                    81:6a:6a:c0:39:88:75:9a:5c:26:d7:b6:2e:ec:a0:
                    d2:08:84:67:1a:1f:8d:22:06:70:f9:c2:71:06:5f:
                    e6:69:dd
                Exponent: 65537 (0x10001)
        X509v3 extensions:
            X509v3 Basic Constraints: 
                CA:FALSE
            Netscape Comment: 
                VPN User Certificate
            Netscape Cert Type: 
                SSL Client
            X509v3 Key Usage: 
                Digital Signature
            X509v3 Extended Key Usage: 
                TLS Web Client Authentication
            X509v3 Subject Key Identifier: 
                E2:03:27:EC:9E:C9:EB:F4:85:01:EB:E8:ED:56:6E:9C:48:6F:5A:3E
            X509v3 Authority Key Identifier: 
                keyid:86:4F:B8:6D:18:2A:1B:3C:8F:27:34:29:F0:81:9F:BA:6E:61:0E:E1
                DirName:/C=CH/ST=Zug/L=Zug/O=Perfect Privacy/CN=Perfect Privacy/emailAddress=admin@perfect-privacy.com
                serial:FA:11:B5:C4:AA:69:AF:69

    Signature Algorithm: sha512WithRSAEncryption
         13:72:22:52:72:08:5a:33:05:af:ec:1d:8c:3b:ae:96:cc:75:
         14:2d:63:ec:93:14:56:4c:22:1f:67:de:66:5f:c3:2c:d2:4b:
         64:22:4f:ac:b7:ec:12:be:39:55:57:9f:d3:33:d0:f4:ca:5e:
         fe:68:8a:fb:af:83:ae:71:87:4b:ff:29:48:6b:20:0a:5f:6f:
         85:66:93:ff:78:1b:25:48:18:ba:db:84:83:97:d5:ac:84:78:
         53:1d:ba:1c:8f:df:79:35:9c:ec:6d:87:ad:3b:c8:e7:27:9c:
         b6:29:c7:28:d8:c4:cf:17:a7:ee:61:38:52:40:13:04:aa:bb:
         5c:35:d7:28:48:46:1b:d8:2e:b0:e8:c0:19:c8:e5:b7:55:36:
         1c:03:b1:da:34:eb:5d:52:2f:d2:92:f3:e5:f4:6a:eb:30:3d:
         21:ad:96:31:9d:20:d5:38:6b:d5:28:c7:48:07:81:c1:3c:9c:
         62:ad:81:57:d9:48:4f:66:3a:46:06:f7:81:2c:01:dc:f4:d4:
         05:a0:0b:1a:c7:de:bc:bd:09:97:b8:dd:7a:d4:2b:07:54:94:
         e4:95:01:2b:c1:af:93:46:2b:69:e4:48:27:a3:2f:08:03:35:
         5a:b7:42:d6:c2:d7:26:f3:f9:3f:9a:61:28:b0:fb:a5:0f:9c:
         b0:2a:d3:4b:44:5a:20:a7:6c:fe:39:0a:82:05:97:c8:12:b5:
         4f:b0:f2:2f:67:cd:62:94:71:e0:13:9c:ce:b7:62:87:c6:fa:
         65:09:99:41:0a:52:7e:05:ac:88:f9:e4:a2:1b:19:d7:4b:ed:
         c1:d6:e2:c5:45:70:3f:21:9f:8c:15:2b:f5:a8:1f:fc:e5:74:
         bb:f6:ca:6b:e9:8c:92:de:bd:c7:3b:c5:6c:70:1d:69:72:8f:
         42:da:f1:27:d6:5d:0e:82:eb:8d:94:12:66:84:49:96:b4:d5:
         d0:a2:18:46:f2:fb:1c:1f:79:03:23:b0:57:f3:4f:dc:b6:b9:
         40:87:d9:de:90:d0:6b:12:87:09:6d:69:c6:88:d7:b6:d8:a7:
         3f:76:88:05:df:75:9c:29:0e:5c:3f:10:5d:ef:a4:df:4d:cf:
         5f:db:4b:05:a1:cb:62:a5:87:bb:16:9d:d9:10:0e:e3:ea:a8:
         b6:ff:e3:d5:55:cc:e6:cd:15:cf:42:d6:68:6d:54:d3:50:a0:
         d4:c6:36:8b:61:9e:8b:46:e7:53:a0:38:73:28:ea:7e:0a:d0:
         8c:06:58:a0:fa:84:65:9b:76:75:b1:44:b9:81:45:52:a5:bf:
         35:f3:47:7e:8d:a4:23:55:e4:8b:b3:41:13:40:c9:ff:df:21:
         de:82:61:e2:0a:c5:ae:03
-----BEGIN CERTIFICATE-----
MIIG5DCCBMygAwIBAgIJAOmhW6rOfmA7MA0GCSqGSIb3DQEBDQUAMIGHMQswCQYD
VQQGEwJDSDEMMAoGA1UECBMDWnVnMQwwCgYDVQQHEwNadWcxGDAWBgNVBAoTD1Bl
cmZlY3QgUHJpdmFjeTEYMBYGA1UEAxMPUGVyZmVjdCBQcml2YWN5MSgwJgYJKoZI
hvcNAQkBFhlhZG1pbkBwZXJmZWN0LXByaXZhY3kuY29tMB4XDTIzMDMwNTAwMDAw
MFoXDTI0MTAzMDAwMDAwMFowgY8xCzAJBgNVBAYTAkNIMQwwCgYDVQQIEwNadWcx
GDAWBgNVBAoTD1BlcmZlY3QgUHJpdmFjeTEuMCwGA1UEAxQlQ2xpZW50X2xvc2Fu
Z2VsZXMucGVyZmVjdC1wcml2YWN5LmNvbTEoMCYGCSqGSIb3DQEJARYZYWRtaW5A
cGVyZmVjdC1wcml2YWN5LmNvbTCCAiIwDQYJKoZIhvcNAQEBBQADggIPADCCAgoC
ggIBAMMeaPjK9f/esIb8gB/NCdMhmrat8vaH36EuHeXkB1roFnMxj7WQQbBoJIbJ
SFuiFRjsxEPYefkAMyXoRWGTbkZgDfcslPwlQDMsfr9r6/umhmQPda1pA/p3+3hX
1BTiwoYQqdkPoKz03hQmwJrZ2sTNsAN89HctWihCZj2ZJzbzmb+Hu1cHN7mZKN62
p75ZbVN7hbg2RLEyP5UxJYzfWsnEftSlOVvuxj8+HcCC+VGqYsQrvnl5W1Y2JuB3
+LIdGiOYsLU2r+DpY1kbeNIP95W5AE1q4ZNwsnehzH6bTr70lhQlaGAIantfvVzj
RPvvJRp764/+lbo5hIYIn2FGqTSlY/DRwkgjsuogO2dd8MsrvV+sVVCaGC9Oduce
49UwavIGcG0ZjEisK8QvcMV7H5lwm8/mfKnI+vw7Sh1Jdhj1GXAAFN0PED6PAOy5
naTcBVgJ4NLOI37okyxpTquL9YuX9DI/gyug3sneKFluCWE3wonUa4BNIwox9+Wa
inEGEHf3VnaOg2y/YIKm4ZF2R7Vor7R9WxrrcLh+uHak0hp9+0tc6NrwNBKuLS9y
FupNc3ip7xLK2UX0rOeWo0b/7XHfvIQzXZHam8Q9lhqT1jSZ0B4O7mRrxrdTxX3d
yP9CgWpqwDmIdZpcJte2Luyg0giEZxofjSIGcPnCcQZf5mndAgMBAAGjggFHMIIB
QzAJBgNVHRMEAjAAMCMGCWCGSAGG+EIBDQQWFhRWUE4gVXNlciBDZXJ0aWZpY2F0
ZTARBglghkgBhvhCAQEEBAMCB4AwCwYDVR0PBAQDAgeAMBMGA1UdJQQMMAoGCCsG
AQUFBwMCMB0GA1UdDgQWBBTiAyfsnsnr9IUB6+jtVm6cSG9aPjCBvAYDVR0jBIG0
MIGxgBSGT7htGCobPI8nNCnwgZ+6bmEO4aGBjaSBijCBhzELMAkGA1UEBhMCQ0gx
DDAKBgNVBAgTA1p1ZzEMMAoGA1UEBxMDWnVnMRgwFgYDVQQKEw9QZXJmZWN0IFBy
aXZhY3kxGDAWBgNVBAMTD1BlcmZlY3QgUHJpdmFjeTEoMCYGCSqGSIb3DQEJARYZ
YWRtaW5AcGVyZmVjdC1wcml2YWN5LmNvbYIJAPoRtcSqaa9pMA0GCSqGSIb3DQEB
DQUAA4ICAQATciJScghaMwWv7B2MO66WzHUULWPskxRWTCIfZ95mX8Ms0ktkIk+s
t+wSvjlVV5/TM9D0yl7+aIr7r4OucYdL/ylIayAKX2+FZpP/eBslSBi624SDl9Ws
hHhTHbocj995NZzsbYetO8jnJ5y2Kcco2MTPF6fuYThSQBMEqrtcNdcoSEYb2C6w
6MAZyOW3VTYcA7HaNOtdUi/SkvPl9GrrMD0hrZYxnSDVOGvVKMdIB4HBPJxirYFX
2UhPZjpGBveBLAHc9NQFoAsax968vQmXuN161CsHVJTklQErwa+TRitp5Egnoy8I
AzVat0LWwtcm8/k/mmEosPulD5ywKtNLRFogp2z+OQqCBZfIErVPsPIvZ81ilHHg
E5zOt2KHxvplCZlBClJ+BayI+eSiGxnXS+3B1uLFRXA/IZ+MFSv1qB/85XS79spr
6YyS3r3HO8VscB1pco9C2vEn1l0OguuNlBJmhEmWtNXQohhG8vscH3kDI7BX80/c
trlAh9nekNBrEocJbWnGiNe22Kc/dogF33WcKQ5cPxBd76TfTc9f20sFoctipYe7
Fp3ZEA7j6qi2/+PVVczmzRXPQtZobVTTUKDUxjaLYZ6LRudToDhzKOp+CtCMBlig
+oRlm3Z1sUS5gUVSpb8180d+jaQjVeSLs0ETQMn/3yHegmHiCsWuAw==
-----END CERTIFICATE-----
