Certificate:
    Data:
        Version: 3 (0x2)
        Serial Number:
            96:6e:08:64:dd:1e:af:e7
    Signature Algorithm: sha512WithRSAEncryption
        Issuer: C=CH, ST=Zug, L=Zug, O=Perfect Privacy, CN=Perfect Privacy/emailAddress=admin@perfect-privacy.com
        Validity
            Not Before: Jun 16 00:00:00 2023 GMT
            Not After : Feb 10 00:00:00 2025 GMT
        Subject: C=CH, ST=Zug, O=Perfect Privacy, CN=Client_moscow.perfect-privacy.com/emailAddress=admin@perfect-privacy.com
        Subject Public Key Info:
            Public Key Algorithm: rsaEncryption
                Public-Key: (4096 bit)
                Modulus:
                    00:c6:7d:0f:fc:65:25:dc:b4:ea:fe:da:72:e7:47:
                    b7:c7:6b:8f:c0:ba:9e:cb:5a:0e:48:b2:be:dd:7b:
                    f0:4d:f2:8b:ba:2d:64:da:12:75:26:a7:32:b2:be:
                    b1:44:81:18:68:80:2b:a6:de:5f:47:6e:db:2a:b5:
                    39:b4:5c:7c:d1:bf:2a:37:a7:40:dc:15:f9:e0:be:
                    14:e3:c4:4e:24:6b:75:68:79:99:4d:7f:d8:3a:b8:
                    14:00:97:44:d1:ef:ba:a5:49:43:4c:f9:38:d7:a6:
                    a0:f6:88:0e:ff:e4:19:43:55:8e:ad:42:8c:26:59:
                    6f:b5:03:6d:43:3e:eb:3c:ce:f2:7d:d1:ed:2f:ea:
                    1b:43:0e:ca:2c:62:d5:5e:9e:46:37:7c:d9:11:5a:
                    d8:67:6b:be:67:d4:dd:de:0c:ac:11:9f:01:05:15:
                    89:72:f4:75:38:7a:b8:fb:22:09:2b:d6:18:2d:cb:
                    c0:c6:66:bd:b0:15:10:57:06:44:79:30:e3:64:5a:
                    26:1f:cc:bb:0f:80:8a:0d:49:95:83:2a:17:d5:73:
                    0e:fa:e1:71:7f:fd:9d:db:5f:ff:77:94:71:7a:4a:
                    9a:71:a3:a1:5e:41:b8:bf:96:52:e1:60:79:9a:21:
                    6f:08:b6:1a:30:36:ba:d7:66:74:fe:48:01:ae:b7:
                    d6:47:f0:a9:f7:1c:a5:16:65:a3:b4:12:c7:2f:fc:
                    19:21:b5:6d:fc:7a:e4:ca:7f:81:40:a8:03:46:9a:
                    23:f6:ec:9e:b6:c7:95:a7:77:45:5b:88:f0:8e:cc:
                    4c:c7:a1:65:9e:3a:17:c6:04:e2:57:85:4b:ab:7e:
                    7a:93:00:d9:79:f2:3d:09:ad:9a:71:48:52:f9:e5:
                    8b:fc:36:09:90:10:d3:4b:a2:78:df:82:2a:b3:5c:
                    f7:da:34:88:b9:00:0f:bd:51:e8:f9:ed:c8:3c:da:
                    93:d7:ce:5f:a5:a0:d7:fe:54:7e:dd:da:b0:c2:e6:
                    70:16:d8:69:b5:b8:8b:c9:f5:96:84:17:8d:28:c0:
                    5c:59:4c:00:fc:b3:15:be:23:e4:24:db:59:90:7a:
                    ff:cf:a8:16:35:14:21:3a:27:29:b0:ab:34:92:3f:
                    ad:e1:5f:d0:b2:c0:df:88:e0:e1:5a:01:2c:3d:86:
                    1c:71:6b:8c:24:ac:4d:e1:45:6a:86:e8:76:35:c5:
                    07:a9:94:a4:e4:50:c7:28:d5:24:51:cf:e8:46:c5:
                    57:d0:bb:ca:4e:31:7f:58:9f:54:24:c7:28:bf:45:
                    3f:81:45:5e:04:83:b7:e0:13:2b:91:10:41:40:d5:
                    0b:a3:43:e6:ff:af:24:10:68:ee:ed:32:b7:85:d6:
                    20:a5:05
                Exponent: 65537 (0x10001)
        X509v3 extensions:
            X509v3 Basic Constraints: 
                CA:FALSE
            Netscape Comment: 
                VPN User Certificate
            Netscape Cert Type: 
                SSL Client
            X509v3 Key Usage: 
                Digital Signature
            X509v3 Extended Key Usage: 
                TLS Web Client Authentication
            X509v3 Subject Key Identifier: 
                03:D4:2C:B1:F0:BE:5C:3E:E1:71:5C:47:13:A0:0A:20:8D:CD:9E:0B
            X509v3 Authority Key Identifier: 
                keyid:86:4F:B8:6D:18:2A:1B:3C:8F:27:34:29:F0:81:9F:BA:6E:61:0E:E1
                DirName:/C=CH/ST=Zug/L=Zug/O=Perfect Privacy/CN=Perfect Privacy/emailAddress=admin@perfect-privacy.com
                serial:FA:11:B5:C4:AA:69:AF:69

    Signature Algorithm: sha512WithRSAEncryption
         96:ca:e1:bd:3a:14:48:1b:41:d0:5a:ef:1e:f1:44:ac:1b:ac:
         09:88:98:95:d8:42:96:84:e6:07:32:1c:c6:de:df:40:94:83:
         79:f3:ea:b3:fa:b4:bf:da:8a:36:e5:b9:8d:c0:c6:a9:7f:bc:
         1a:fc:70:10:2f:68:2e:f7:7b:c1:33:28:90:0c:18:c4:3f:16:
         c5:b7:72:5e:16:91:68:38:26:3e:68:93:ec:6a:ff:00:e8:ff:
         56:b7:2b:e0:73:b9:22:f5:21:b1:80:16:13:8d:57:3c:3d:4c:
         6c:85:45:07:fa:47:da:df:b7:cd:3e:a1:48:01:66:65:09:57:
         51:d7:6a:bb:af:c0:70:24:4a:ba:ed:be:a6:a6:52:91:ee:c4:
         95:12:b9:74:fb:5e:5d:3a:1e:42:a5:eb:ed:0a:e3:74:7c:26:
         de:50:fd:e9:9a:ed:5b:61:09:9d:05:3c:49:5e:69:7d:5b:60:
         80:e9:70:7f:f2:66:df:30:13:1d:de:86:bc:4b:06:56:0a:b4:
         12:62:8e:9d:e9:f7:d4:8c:23:43:ad:8a:e5:18:6f:ea:a9:d8:
         ee:53:9a:de:bc:e8:e5:6b:68:07:29:50:51:42:b7:36:45:aa:
         0c:9d:c3:31:db:55:01:ad:90:19:ee:53:7f:23:30:ee:51:b0:
         02:7d:58:97:7f:e2:60:0a:31:d9:16:2c:92:48:b9:22:88:a7:
         f0:93:5b:52:73:25:42:38:57:ba:98:f2:90:5a:3c:af:5e:27:
         98:74:8b:09:b8:7d:b5:71:4f:0d:62:70:25:00:e7:40:5d:6e:
         60:af:67:7f:3b:44:c6:1f:7b:bb:3f:7e:7d:e3:b8:49:01:4d:
         b6:74:b5:d9:ea:1e:aa:4a:fd:41:c6:e9:af:71:dc:0c:3d:87:
         0a:ea:65:8e:7e:84:0f:ee:ff:51:4d:b7:ec:c8:0f:45:83:24:
         01:40:2f:b5:b8:30:f8:d9:17:0e:64:2e:f1:31:f0:34:20:db:
         a4:11:82:0d:d8:4b:4b:35:e7:a4:f6:f4:6b:ad:27:3f:f0:95:
         82:e4:a7:f6:61:b5:3b:5d:e9:c4:ec:3d:e4:4c:60:76:1c:53:
         e4:1f:b8:1c:e8:02:7a:46:6f:86:48:34:79:31:17:51:83:68:
         68:ad:89:2b:3f:6b:79:d8:39:f6:2e:da:0b:64:8e:59:2f:86:
         d1:d8:c8:3f:5c:13:26:37:03:a1:60:b1:82:97:18:f0:12:a0:
         9f:df:2f:c7:fe:05:96:61:8c:32:a4:cc:7d:f2:5f:eb:68:92:
         53:33:a2:a6:fe:ae:46:2e:d8:c7:57:21:52:f2:dd:f2:07:38:
         e1:21:57:64:32:5b:74:8e
-----BEGIN CERTIFICATE-----
MIIG4DCCBMigAwIBAgIJAJZuCGTdHq/nMA0GCSqGSIb3DQEBDQUAMIGHMQswCQYD
VQQGEwJDSDEMMAoGA1UECBMDWnVnMQwwCgYDVQQHEwNadWcxGDAWBgNVBAoTD1Bl
cmZlY3QgUHJpdmFjeTEYMBYGA1UEAxMPUGVyZmVjdCBQcml2YWN5MSgwJgYJKoZI
hvcNAQkBFhlhZG1pbkBwZXJmZWN0LXByaXZhY3kuY29tMB4XDTIzMDYxNjAwMDAw
MFoXDTI1MDIxMDAwMDAwMFowgYsxCzAJBgNVBAYTAkNIMQwwCgYDVQQIEwNadWcx
GDAWBgNVBAoTD1BlcmZlY3QgUHJpdmFjeTEqMCgGA1UEAxQhQ2xpZW50X21vc2Nv
dy5wZXJmZWN0LXByaXZhY3kuY29tMSgwJgYJKoZIhvcNAQkBFhlhZG1pbkBwZXJm
ZWN0LXByaXZhY3kuY29tMIICIjANBgkqhkiG9w0BAQEFAAOCAg8AMIICCgKCAgEA
xn0P/GUl3LTq/tpy50e3x2uPwLqey1oOSLK+3XvwTfKLui1k2hJ1Jqcysr6xRIEY
aIArpt5fR27bKrU5tFx80b8qN6dA3BX54L4U48ROJGt1aHmZTX/YOrgUAJdE0e+6
pUlDTPk416ag9ogO/+QZQ1WOrUKMJllvtQNtQz7rPM7yfdHtL+obQw7KLGLVXp5G
N3zZEVrYZ2u+Z9Td3gysEZ8BBRWJcvR1OHq4+yIJK9YYLcvAxma9sBUQVwZEeTDj
ZFomH8y7D4CKDUmVgyoX1XMO+uFxf/2d21//d5RxekqacaOhXkG4v5ZS4WB5miFv
CLYaMDa612Z0/kgBrrfWR/Cp9xylFmWjtBLHL/wZIbVt/Hrkyn+BQKgDRpoj9uye
tseVp3dFW4jwjsxMx6FlnjoXxgTiV4VLq356kwDZefI9Ca2acUhS+eWL/DYJkBDT
S6J434Iqs1z32jSIuQAPvVHo+e3IPNqT185fpaDX/lR+3dqwwuZwFthptbiLyfWW
hBeNKMBcWUwA/LMVviPkJNtZkHr/z6gWNRQhOicpsKs0kj+t4V/QssDfiODhWgEs
PYYccWuMJKxN4UVqhuh2NcUHqZSk5FDHKNUkUc/oRsVX0LvKTjF/WJ9UJMcov0U/
gUVeBIO34BMrkRBBQNULo0Pm/68kEGju7TK3hdYgpQUCAwEAAaOCAUcwggFDMAkG
A1UdEwQCMAAwIwYJYIZIAYb4QgENBBYWFFZQTiBVc2VyIENlcnRpZmljYXRlMBEG
CWCGSAGG+EIBAQQEAwIHgDALBgNVHQ8EBAMCB4AwEwYDVR0lBAwwCgYIKwYBBQUH
AwIwHQYDVR0OBBYEFAPULLHwvlw+4XFcRxOgCiCNzZ4LMIG8BgNVHSMEgbQwgbGA
FIZPuG0YKhs8jyc0KfCBn7puYQ7hoYGNpIGKMIGHMQswCQYDVQQGEwJDSDEMMAoG
A1UECBMDWnVnMQwwCgYDVQQHEwNadWcxGDAWBgNVBAoTD1BlcmZlY3QgUHJpdmFj
eTEYMBYGA1UEAxMPUGVyZmVjdCBQcml2YWN5MSgwJgYJKoZIhvcNAQkBFhlhZG1p
bkBwZXJmZWN0LXByaXZhY3kuY29tggkA+hG1xKppr2kwDQYJKoZIhvcNAQENBQAD
ggIBAJbK4b06FEgbQdBa7x7xRKwbrAmImJXYQpaE5gcyHMbe30CUg3nz6rP6tL/a
ijbluY3Axql/vBr8cBAvaC73e8EzKJAMGMQ/FsW3cl4WkWg4Jj5ok+xq/wDo/1a3
K+BzuSL1IbGAFhONVzw9TGyFRQf6R9rft80+oUgBZmUJV1HXaruvwHAkSrrtvqam
UpHuxJUSuXT7Xl06HkKl6+0K43R8Jt5Q/ema7VthCZ0FPEleaX1bYIDpcH/yZt8w
Ex3ehrxLBlYKtBJijp3p99SMI0OtiuUYb+qp2O5Tmt686OVraAcpUFFCtzZFqgyd
wzHbVQGtkBnuU38jMO5RsAJ9WJd/4mAKMdkWLJJIuSKIp/CTW1JzJUI4V7qY8pBa
PK9eJ5h0iwm4fbVxTw1icCUA50BdbmCvZ387RMYfe7s/fn3juEkBTbZ0tdnqHqpK
/UHG6a9x3Aw9hwrqZY5+hA/u/1FNt+zID0WDJAFAL7W4MPjZFw5kLvEx8DQg26QR
gg3YS0s156T29GutJz/wlYLkp/ZhtTtd6cTsPeRMYHYcU+QfuBzoAnpGb4ZINHkx
F1GDaGitiSs/a3nYOfYu2gtkjlkvhtHYyD9cEyY3A6FgsYKXGPASoJ/fL8f+BZZh
jDKkzH3yX+toklMzoqb+rkYu2MdXIVLy3fIHOOEhV2QyW3SO
-----END CERTIFICATE-----
