Certificate:
    Data:
        Version: 3 (0x2)
        Serial Number: 4946613547698006571 (0x44a5e6d037acaa2b)
    Signature Algorithm: sha512WithRSAEncryption
        Issuer: C=CH, ST=Zug, L=Zug, O=Perfect Privacy, CN=Perfect Privacy/emailAddress=admin@perfect-privacy.com
        Validity
            Not Before: Jun 16 00:00:00 2024 GMT
            Not After : Feb 11 00:00:00 2026 GMT
        Subject: C=CH, ST=Zug, O=Perfect Privacy, CN=Client_miami.perfect-privacy.com/emailAddress=admin@perfect-privacy.com
        Subject Public Key Info:
            Public Key Algorithm: rsaEncryption
                Public-Key: (4096 bit)
                Modulus:
                    00:c3:c7:08:70:88:e0:d7:e2:75:36:bf:48:30:b6:
                    7d:14:56:8b:c6:81:f7:f4:de:b5:48:a0:51:c9:f5:
                    86:4c:f3:c6:ab:a6:98:76:b2:23:1b:cd:5e:14:64:
                    6a:3b:6c:81:af:cb:81:6d:63:f2:5d:c9:60:6f:4b:
                    8d:28:77:27:46:d7:52:83:fc:ae:2f:64:01:6f:7a:
                    b1:c1:de:d6:87:2a:87:c2:f5:4a:55:8b:a6:dd:45:
                    0a:d1:c2:14:95:17:7f:99:92:f9:2c:26:32:72:78:
                    84:d9:21:76:f2:af:15:c0:02:68:5c:06:70:7f:bf:
                    b3:75:0e:9e:c7:4b:4f:89:30:12:3e:54:24:ee:c4:
                    6c:bf:a4:15:04:92:01:29:4e:b8:ad:96:77:00:f9:
                    58:cb:84:cb:05:d8:c8:18:89:a6:65:f9:09:34:49:
                    74:54:1e:a9:71:52:5e:04:f4:41:8e:d4:d8:ce:d0:
                    9b:97:2b:ca:a5:9d:dc:73:2a:e8:61:f7:b9:0d:4c:
                    77:7c:d1:b7:8c:ec:f9:7a:77:8a:7a:4f:94:82:43:
                    ae:32:27:5f:03:0f:44:3d:0a:84:b8:13:fc:bb:0f:
                    a7:54:89:73:9c:81:85:6d:48:52:db:f0:05:7b:29:
                    64:3e:a7:1b:2a:54:ff:c1:87:25:2b:7e:c7:d8:f0:
                    d2:37:f1:5d:7c:75:6f:de:b0:68:3f:e4:c3:6e:48:
                    41:5a:4e:0c:85:fa:89:05:b0:e7:78:7a:1c:4d:f4:
                    68:13:d2:5f:0f:75:d8:d7:1d:10:14:2d:26:4a:da:
                    3e:85:86:b0:80:a8:86:4c:3e:79:85:cf:a3:5b:d4:
                    30:b4:8f:82:c9:ee:d6:ad:2d:ed:c4:8e:55:28:34:
                    0d:02:a6:62:58:fe:55:03:57:17:84:8f:ab:f8:64:
                    a8:01:59:ea:10:1b:c0:b9:15:3e:a1:53:64:0d:d3:
                    eb:f6:87:43:c5:ea:55:8c:61:9a:44:ba:0a:79:7f:
                    b5:3d:bf:c7:55:c3:c9:2c:4b:5f:42:be:9e:5c:69:
                    8b:da:0a:3e:8e:2e:34:9e:f2:65:5a:04:45:61:b4:
                    77:fe:c7:84:67:4e:e0:c4:7a:9f:83:18:ff:72:ef:
                    9a:ef:00:d8:2e:7a:b5:2f:e9:7f:cc:77:69:65:ec:
                    90:2a:d4:3d:1e:5f:a0:2e:e5:10:e8:05:4c:76:8e:
                    5d:52:ef:98:8d:4c:aa:64:45:dd:79:bd:de:28:3f:
                    7a:25:c0:76:04:9b:70:7f:f2:b9:c8:70:d0:e5:cd:
                    25:e6:88:c3:78:bd:e8:46:34:b1:73:f6:94:30:ac:
                    ef:ea:be:9a:2b:73:a2:ac:be:84:81:6f:79:8e:64:
                    c5:11:5f
                Exponent: 65537 (0x10001)
        X509v3 extensions:
            X509v3 Basic Constraints: 
                CA:FALSE
            Netscape Comment: 
                VPN User Certificate
            Netscape Cert Type: 
                SSL Client
            X509v3 Key Usage: 
                Digital Signature
            X509v3 Extended Key Usage: 
                TLS Web Client Authentication
            X509v3 Subject Key Identifier: 
                AA:5F:D1:20:BA:79:0C:CD:A3:36:1E:FD:26:5D:B2:C2:49:74:88:93
            X509v3 Authority Key Identifier: 
                keyid:86:4F:B8:6D:18:2A:1B:3C:8F:27:34:29:F0:81:9F:BA:6E:61:0E:E1
                DirName:/C=CH/ST=Zug/L=Zug/O=Perfect Privacy/CN=Perfect Privacy/emailAddress=admin@perfect-privacy.com
                serial:FA:11:B5:C4:AA:69:AF:69

    Signature Algorithm: sha512WithRSAEncryption
         36:3d:af:12:81:6f:1d:d1:96:4c:05:2e:9c:f2:8e:93:f2:01:
         a1:1e:0b:89:f9:20:66:f4:7e:d8:27:07:36:c3:bc:33:88:e1:
         27:42:4a:f7:1d:a3:7c:76:ca:3d:1f:ed:72:dd:4f:85:50:53:
         14:b7:d9:96:38:70:71:8c:a3:ff:a5:45:6e:51:af:2d:c5:11:
         01:1c:2e:ba:14:2a:7f:3a:7f:5b:e7:4b:00:a2:97:28:cb:f2:
         6b:31:d3:70:69:34:97:0a:8b:8f:be:d7:ed:37:f1:3b:6e:09:
         19:b3:c1:90:81:af:c1:69:99:dc:9c:95:20:6b:cd:5d:df:d2:
         e9:65:d8:d3:5c:ea:f5:a5:46:6c:c7:5d:6d:c5:0f:64:b6:03:
         b7:db:fd:94:36:b8:eb:53:cc:e4:79:c0:63:77:41:63:e8:b6:
         e6:b2:bd:d2:70:f1:89:4a:64:b5:9a:6b:0e:e9:b5:54:aa:2b:
         19:46:98:6c:d7:dc:b5:a2:c3:5a:be:e2:b5:8d:18:e2:26:45:
         8d:82:9d:f8:bc:e0:3c:28:97:1a:f8:32:43:0f:31:3b:af:ac:
         4a:9d:2f:22:79:60:c4:15:93:1f:2c:c4:bb:b8:38:9d:98:3c:
         4d:b9:99:60:0d:a7:e5:29:e0:24:a9:77:e3:45:17:a0:1c:77:
         d3:cd:20:3c:40:9a:92:d3:c6:ff:5b:99:b2:48:2e:bf:16:39:
         92:99:cd:7f:ac:41:29:1c:02:f2:2d:8d:6f:6d:1d:47:3e:22:
         d2:90:50:1c:00:71:68:92:9f:5e:0c:81:6e:f4:96:0c:fa:56:
         38:27:b8:03:ec:4e:74:35:ca:fa:12:16:72:22:16:31:e7:83:
         05:45:05:57:59:14:e3:18:63:0a:10:21:69:57:be:40:3f:fa:
         94:8a:ed:c9:2a:f3:76:19:42:df:3c:45:95:c0:f0:c4:09:de:
         f4:3e:fa:ba:61:00:22:0f:ea:41:0b:fb:05:26:96:5b:f8:b2:
         ba:1a:33:8a:6c:6b:c8:32:34:6c:f0:e4:e1:cb:21:40:ae:c4:
         99:d3:7a:40:ba:bc:1f:03:c8:24:aa:cc:4a:2c:8b:4b:da:ae:
         d1:55:c5:8b:d4:40:bd:e1:d7:9f:38:a4:32:98:26:d5:b8:de:
         e0:eb:31:35:f4:81:da:e1:de:4a:6d:77:13:87:49:82:a5:fa:
         19:84:9d:6d:4f:24:8d:04:75:80:60:9d:69:37:5e:00:57:c9:
         da:ce:3e:b1:5d:f5:0c:da:18:eb:1b:6a:98:6a:95:ad:f3:68:
         e4:e4:10:53:96:fe:0c:96:6a:f5:fd:b0:1f:69:7e:fb:d6:26:
         2b:bb:9f:92:3d:e2:09:00
-----BEGIN CERTIFICATE-----
MIIG3jCCBMagAwIBAgIIRKXm0DesqiswDQYJKoZIhvcNAQENBQAwgYcxCzAJBgNV
BAYTAkNIMQwwCgYDVQQIEwNadWcxDDAKBgNVBAcTA1p1ZzEYMBYGA1UEChMPUGVy
ZmVjdCBQcml2YWN5MRgwFgYDVQQDEw9QZXJmZWN0IFByaXZhY3kxKDAmBgkqhkiG
9w0BCQEWGWFkbWluQHBlcmZlY3QtcHJpdmFjeS5jb20wHhcNMjQwNjE2MDAwMDAw
WhcNMjYwMjExMDAwMDAwWjCBijELMAkGA1UEBhMCQ0gxDDAKBgNVBAgTA1p1ZzEY
MBYGA1UEChMPUGVyZmVjdCBQcml2YWN5MSkwJwYDVQQDFCBDbGllbnRfbWlhbWku
cGVyZmVjdC1wcml2YWN5LmNvbTEoMCYGCSqGSIb3DQEJARYZYWRtaW5AcGVyZmVj
dC1wcml2YWN5LmNvbTCCAiIwDQYJKoZIhvcNAQEBBQADggIPADCCAgoCggIBAMPH
CHCI4NfidTa/SDC2fRRWi8aB9/TetUigUcn1hkzzxqummHayIxvNXhRkajtsga/L
gW1j8l3JYG9LjSh3J0bXUoP8ri9kAW96scHe1ocqh8L1SlWLpt1FCtHCFJUXf5mS
+SwmMnJ4hNkhdvKvFcACaFwGcH+/s3UOnsdLT4kwEj5UJO7EbL+kFQSSASlOuK2W
dwD5WMuEywXYyBiJpmX5CTRJdFQeqXFSXgT0QY7U2M7Qm5cryqWd3HMq6GH3uQ1M
d3zRt4zs+Xp3inpPlIJDrjInXwMPRD0KhLgT/LsPp1SJc5yBhW1IUtvwBXspZD6n
GypU/8GHJSt+x9jw0jfxXXx1b96waD/kw25IQVpODIX6iQWw53h6HE30aBPSXw91
2NcdEBQtJkraPoWGsICohkw+eYXPo1vUMLSPgsnu1q0t7cSOVSg0DQKmYlj+VQNX
F4SPq/hkqAFZ6hAbwLkVPqFTZA3T6/aHQ8XqVYxhmkS6Cnl/tT2/x1XDySxLX0K+
nlxpi9oKPo4uNJ7yZVoERWG0d/7HhGdO4MR6n4MY/3Lvmu8A2C56tS/pf8x3aWXs
kCrUPR5foC7lEOgFTHaOXVLvmI1MqmRF3Xm93ig/eiXAdgSbcH/yuchw0OXNJeaI
w3i96EY0sXP2lDCs7+q+mitzoqy+hIFveY5kxRFfAgMBAAGjggFHMIIBQzAJBgNV
HRMEAjAAMCMGCWCGSAGG+EIBDQQWFhRWUE4gVXNlciBDZXJ0aWZpY2F0ZTARBglg
hkgBhvhCAQEEBAMCB4AwCwYDVR0PBAQDAgeAMBMGA1UdJQQMMAoGCCsGAQUFBwMC
MB0GA1UdDgQWBBSqX9EgunkMzaM2Hv0mXbLCSXSIkzCBvAYDVR0jBIG0MIGxgBSG
T7htGCobPI8nNCnwgZ+6bmEO4aGBjaSBijCBhzELMAkGA1UEBhMCQ0gxDDAKBgNV
BAgTA1p1ZzEMMAoGA1UEBxMDWnVnMRgwFgYDVQQKEw9QZXJmZWN0IFByaXZhY3kx
GDAWBgNVBAMTD1BlcmZlY3QgUHJpdmFjeTEoMCYGCSqGSIb3DQEJARYZYWRtaW5A
cGVyZmVjdC1wcml2YWN5LmNvbYIJAPoRtcSqaa9pMA0GCSqGSIb3DQEBDQUAA4IC
AQA2Pa8SgW8d0ZZMBS6c8o6T8gGhHguJ+SBm9H7YJwc2w7wziOEnQkr3HaN8dso9
H+1y3U+FUFMUt9mWOHBxjKP/pUVuUa8txREBHC66FCp/On9b50sAopcoy/JrMdNw
aTSXCouPvtftN/E7bgkZs8GQga/BaZncnJUga81d39LpZdjTXOr1pUZsx11txQ9k
tgO32/2UNrjrU8zkecBjd0Fj6Lbmsr3ScPGJSmS1mmsO6bVUqisZRphs19y1osNa
vuK1jRjiJkWNgp34vOA8KJca+DJDDzE7r6xKnS8ieWDEFZMfLMS7uDidmDxNuZlg
DaflKeAkqXfjRRegHHfTzSA8QJqS08b/W5mySC6/FjmSmc1/rEEpHALyLY1vbR1H
PiLSkFAcAHFokp9eDIFu9JYM+lY4J7gD7E50Ncr6EhZyIhYx54MFRQVXWRTjGGMK
ECFpV75AP/qUiu3JKvN2GULfPEWVwPDECd70Pvq6YQAiD+pBC/sFJpZb+LK6GjOK
bGvIMjRs8OThyyFArsSZ03pAurwfA8gkqsxKLItL2q7RVcWL1EC94defOKQymCbV
uN7g6zE19IHa4d5KbXcTh0mCpfoZhJ1tTySNBHWAYJ1pN14AV8nazj6xXfUM2hjr
G2qYapWt82jk5BBTlv4Mlmr1/bAfaX771iYru5+SPeIJAA==
-----END CERTIFICATE-----
