Certificate:
    Data:
        Version: 3 (0x2)
        Serial Number: 1275545232302792858 (0x11b3a5a17259e09a)
    Signature Algorithm: sha512WithRSAEncryption
        Issuer: C=CH, ST=Zug, L=Zug, O=Perfect Privacy, CN=Perfect Privacy/emailAddress=admin@perfect-privacy.com
        Validity
            Not Before: Jan 12 00:00:00 2023 GMT
            Not After : Sep  8 00:00:00 2024 GMT
        Subject: C=CH, ST=Zug, O=Perfect Privacy, CN=Client_manchester.perfect-privacy.com/emailAddress=admin@perfect-privacy.com
        Subject Public Key Info:
            Public Key Algorithm: rsaEncryption
                Public-Key: (4096 bit)
                Modulus:
                    00:e9:13:cf:a9:da:ba:a9:dc:97:21:1a:42:f1:13:
                    79:b1:2a:23:96:a9:a3:56:80:46:93:27:52:bd:60:
                    d5:00:8e:53:61:d7:e8:81:d4:1b:fe:20:79:2a:77:
                    6f:a7:17:ce:62:14:08:da:e4:95:2a:ff:e3:da:58:
                    cb:ca:92:eb:f9:e6:7a:c5:b5:4c:41:dd:e3:29:39:
                    55:0d:bc:58:8a:a5:27:75:9e:93:81:67:7c:3b:a5:
                    a1:48:b0:67:3f:fe:ea:67:e9:98:93:b9:f6:bb:67:
                    3a:03:ae:b0:71:5d:57:39:3a:89:df:31:03:30:5d:
                    8d:33:68:92:f3:51:05:38:76:d9:a3:58:08:d7:e6:
                    12:b9:f4:84:57:f4:f4:0d:cc:d3:38:e1:89:d6:99:
                    e6:85:ba:be:02:81:ef:62:56:2a:02:8c:60:24:6a:
                    31:ab:7a:ac:84:3d:7b:f0:6b:f1:bd:8f:11:ff:13:
                    85:0c:ec:f9:70:71:5e:ac:6c:b2:c2:0c:05:c9:4a:
                    93:ef:e0:0d:ac:c3:85:9f:a0:4e:de:fe:e6:de:ab:
                    2c:c0:06:89:09:38:36:d0:57:79:61:8e:61:9e:b7:
                    f9:14:6e:69:95:de:ca:ee:20:5f:f5:d1:d4:b5:3d:
                    34:18:7d:3e:42:00:e7:2e:0a:7b:47:75:cb:6b:8f:
                    c9:17:4d:f0:17:67:bf:43:ae:00:c9:cc:3f:76:e9:
                    29:0f:d2:9b:d6:f7:d0:c2:c4:76:54:01:72:5d:2e:
                    3e:13:92:ff:97:0e:b2:57:c8:24:18:9d:bc:e2:7e:
                    be:fc:a3:41:b2:0e:ab:25:4a:d2:61:85:2c:a1:b8:
                    b9:30:db:0f:ab:97:70:63:4f:9b:8e:a5:e1:8f:4c:
                    a7:bb:d6:83:b8:d8:20:68:59:77:90:30:e5:20:90:
                    77:f8:fb:a1:93:e4:c8:6b:18:6a:a5:d6:2e:83:00:
                    74:75:8d:53:a0:7d:72:34:4b:d1:d7:43:e2:69:cd:
                    9c:d3:f5:00:41:fb:d1:e2:97:25:b0:d0:c4:fc:25:
                    d8:cb:26:4f:d9:44:a2:d0:31:24:cd:0e:64:3d:91:
                    20:7c:5a:4d:03:10:82:6a:ce:0c:51:81:a0:00:d7:
                    72:44:c4:84:17:55:5b:03:89:fa:77:69:7c:47:ed:
                    06:6a:22:79:ff:9b:7f:0b:f6:bf:f3:ec:f4:e3:d6:
                    67:95:1e:a5:f7:ad:64:63:f4:67:a0:98:ef:19:7b:
                    d5:f4:9b:e8:ab:fb:02:c6:f1:4e:98:6a:f5:02:f4:
                    1e:1b:6e:0b:c4:96:46:2f:b9:52:e9:18:24:cc:7f:
                    59:28:ef:8d:9f:0c:6d:10:f4:46:1d:ac:b4:02:80:
                    ee:be:dd
                Exponent: 65537 (0x10001)
        X509v3 extensions:
            X509v3 Basic Constraints: 
                CA:FALSE
            Netscape Comment: 
                VPN User Certificate
            Netscape Cert Type: 
                SSL Client
            X509v3 Key Usage: 
                Digital Signature
            X509v3 Extended Key Usage: 
                TLS Web Client Authentication
            X509v3 Subject Key Identifier: 
                D6:07:77:60:D4:98:A1:93:88:8C:2D:66:AA:BA:25:C3:BD:53:67:11
            X509v3 Authority Key Identifier: 
                keyid:86:4F:B8:6D:18:2A:1B:3C:8F:27:34:29:F0:81:9F:BA:6E:61:0E:E1
                DirName:/C=CH/ST=Zug/L=Zug/O=Perfect Privacy/CN=Perfect Privacy/emailAddress=admin@perfect-privacy.com
                serial:FA:11:B5:C4:AA:69:AF:69

    Signature Algorithm: sha512WithRSAEncryption
         a3:63:d5:95:de:2a:ff:d3:ac:0a:84:af:16:b3:30:61:b5:f5:
         4d:c7:30:52:df:dc:64:83:cd:73:e0:57:2e:9b:f5:6f:53:db:
         09:3e:1b:0a:29:22:5e:2d:01:14:b2:f3:22:9b:a0:53:67:88:
         bc:e4:31:8c:3c:21:51:3f:fb:f7:7e:fb:a5:17:63:6a:d0:d6:
         ba:e5:57:d0:34:20:be:3a:ce:55:17:b6:07:2b:99:f5:61:3b:
         c1:33:87:a9:a6:2b:45:dd:2e:51:be:e5:ee:07:86:e7:b9:9b:
         7b:9b:0c:52:e4:64:f9:ce:33:98:f7:db:ec:9f:b5:b9:8e:97:
         c8:75:73:60:42:78:fc:bb:24:12:6c:09:6e:26:eb:30:1c:46:
         eb:56:50:ef:f3:f3:72:bb:ff:10:55:ef:5b:19:56:53:66:95:
         12:77:00:00:a1:87:c6:56:9e:7f:44:46:f8:8d:00:04:c6:be:
         7d:d1:b4:b5:22:27:8b:32:9c:86:a9:5a:7f:e7:e7:6e:df:4c:
         74:f4:d4:e9:49:1a:31:29:19:0b:de:e5:be:4e:fa:e3:3b:46:
         ec:65:9a:40:8b:7b:8d:76:86:24:8c:01:69:69:c9:d6:27:10:
         fa:72:cb:83:58:b3:4b:b1:7f:5b:f3:f7:58:74:0f:3b:f8:45:
         ed:64:06:d2:ea:07:29:10:dd:91:a4:5e:a1:53:81:5b:32:2a:
         3b:34:cf:01:f2:c8:e4:b5:d6:10:53:0e:82:7d:ca:b9:db:a5:
         f4:28:05:41:db:56:1b:5e:39:92:73:94:13:61:18:bd:d9:be:
         7b:a9:3b:cc:9c:16:bf:a4:47:ab:2f:c5:b6:a8:22:a6:0b:c1:
         f1:e3:d7:a2:99:30:47:dc:7e:c7:e4:48:9c:24:0e:42:4e:7a:
         ae:06:f9:f4:d3:c6:26:c6:04:0b:57:3d:08:fd:3b:94:40:89:
         c2:be:2b:71:2d:d6:3a:af:23:3c:ea:9f:9f:9e:dc:d1:0a:95:
         a4:9e:ee:e2:66:50:75:8f:19:47:cd:bd:42:9e:55:4d:18:27:
         cd:90:bc:85:30:45:10:3f:0e:82:61:20:c4:b7:11:d6:c3:b2:
         b0:50:c7:23:7a:ce:e8:02:58:c1:9c:22:bb:84:c7:80:db:a4:
         ac:f4:78:68:ec:01:a6:ef:99:aa:40:dd:44:b8:f5:d9:4e:37:
         d0:19:dc:a9:47:d8:10:8b:26:ad:34:65:36:8a:6b:3c:2c:aa:
         6d:16:30:37:7b:97:9a:93:46:e9:2f:b7:c5:1c:5b:61:0f:ff:
         11:bf:08:2a:53:ae:a8:19:ea:cb:b3:68:b5:90:07:08:dc:15:
         16:ad:3d:45:4d:07:a4:e5
-----BEGIN CERTIFICATE-----
MIIG4zCCBMugAwIBAgIIEbOloXJZ4JowDQYJKoZIhvcNAQENBQAwgYcxCzAJBgNV
BAYTAkNIMQwwCgYDVQQIEwNadWcxDDAKBgNVBAcTA1p1ZzEYMBYGA1UEChMPUGVy
ZmVjdCBQcml2YWN5MRgwFgYDVQQDEw9QZXJmZWN0IFByaXZhY3kxKDAmBgkqhkiG
9w0BCQEWGWFkbWluQHBlcmZlY3QtcHJpdmFjeS5jb20wHhcNMjMwMTEyMDAwMDAw
WhcNMjQwOTA4MDAwMDAwWjCBjzELMAkGA1UEBhMCQ0gxDDAKBgNVBAgTA1p1ZzEY
MBYGA1UEChMPUGVyZmVjdCBQcml2YWN5MS4wLAYDVQQDFCVDbGllbnRfbWFuY2hl
c3Rlci5wZXJmZWN0LXByaXZhY3kuY29tMSgwJgYJKoZIhvcNAQkBFhlhZG1pbkBw
ZXJmZWN0LXByaXZhY3kuY29tMIICIjANBgkqhkiG9w0BAQEFAAOCAg8AMIICCgKC
AgEA6RPPqdq6qdyXIRpC8RN5sSojlqmjVoBGkydSvWDVAI5TYdfogdQb/iB5Kndv
pxfOYhQI2uSVKv/j2ljLypLr+eZ6xbVMQd3jKTlVDbxYiqUndZ6TgWd8O6WhSLBn
P/7qZ+mYk7n2u2c6A66wcV1XOTqJ3zEDMF2NM2iS81EFOHbZo1gI1+YSufSEV/T0
DczTOOGJ1pnmhbq+AoHvYlYqAoxgJGoxq3qshD178GvxvY8R/xOFDOz5cHFerGyy
wgwFyUqT7+ANrMOFn6BO3v7m3qsswAaJCTg20Fd5YY5hnrf5FG5pld7K7iBf9dHU
tT00GH0+QgDnLgp7R3XLa4/JF03wF2e/Q64Aycw/dukpD9Kb1vfQwsR2VAFyXS4+
E5L/lw6yV8gkGJ284n6+/KNBsg6rJUrSYYUsobi5MNsPq5dwY0+bjqXhj0ynu9aD
uNggaFl3kDDlIJB3+Puhk+TIaxhqpdYugwB0dY1ToH1yNEvR10Piac2c0/UAQfvR
4pclsNDE/CXYyyZP2USi0DEkzQ5kPZEgfFpNAxCCas4MUYGgANdyRMSEF1VbA4n6
d2l8R+0GaiJ5/5t/C/a/8+z049ZnlR6l961kY/RnoJjvGXvV9Jvoq/sCxvFOmGr1
AvQeG24LxJZGL7lS6RgkzH9ZKO+NnwxtEPRGHay0AoDuvt0CAwEAAaOCAUcwggFD
MAkGA1UdEwQCMAAwIwYJYIZIAYb4QgENBBYWFFZQTiBVc2VyIENlcnRpZmljYXRl
MBEGCWCGSAGG+EIBAQQEAwIHgDALBgNVHQ8EBAMCB4AwEwYDVR0lBAwwCgYIKwYB
BQUHAwIwHQYDVR0OBBYEFNYHd2DUmKGTiIwtZqq6JcO9U2cRMIG8BgNVHSMEgbQw
gbGAFIZPuG0YKhs8jyc0KfCBn7puYQ7hoYGNpIGKMIGHMQswCQYDVQQGEwJDSDEM
MAoGA1UECBMDWnVnMQwwCgYDVQQHEwNadWcxGDAWBgNVBAoTD1BlcmZlY3QgUHJp
dmFjeTEYMBYGA1UEAxMPUGVyZmVjdCBQcml2YWN5MSgwJgYJKoZIhvcNAQkBFhlh
ZG1pbkBwZXJmZWN0LXByaXZhY3kuY29tggkA+hG1xKppr2kwDQYJKoZIhvcNAQEN
BQADggIBAKNj1ZXeKv/TrAqErxazMGG19U3HMFLf3GSDzXPgVy6b9W9T2wk+Gwop
Il4tARSy8yKboFNniLzkMYw8IVE/+/d++6UXY2rQ1rrlV9A0IL46zlUXtgcrmfVh
O8Ezh6mmK0XdLlG+5e4Hhue5m3ubDFLkZPnOM5j32+yftbmOl8h1c2BCePy7JBJs
CW4m6zAcRutWUO/z83K7/xBV71sZVlNmlRJ3AAChh8ZWnn9ERviNAATGvn3RtLUi
J4synIapWn/n527fTHT01OlJGjEpGQve5b5O+uM7RuxlmkCLe412hiSMAWlpydYn
EPpyy4NYs0uxf1vz91h0Dzv4Re1kBtLqBykQ3ZGkXqFTgVsyKjs0zwHyyOS11hBT
DoJ9yrnbpfQoBUHbVhteOZJzlBNhGL3ZvnupO8ycFr+kR6svxbaoIqYLwfHj16KZ
MEfcfsfkSJwkDkJOeq4G+fTTxibGBAtXPQj9O5RAicK+K3Et1jqvIzzqn5+e3NEK
laSe7uJmUHWPGUfNvUKeVU0YJ82QvIUwRRA/DoJhIMS3EdbDsrBQxyN6zugCWMGc
IruEx4DbpKz0eGjsAabvmapA3US49dlON9AZ3KlH2BCLJq00ZTaKazwsqm0WMDd7
l5qTRukvt8UcW2EP/xG/CCpTrqgZ6suzaLWQBwjcFRatPUVNB6Tl
-----END CERTIFICATE-----
