Certificate:
    Data:
        Version: 3 (0x2)
        Serial Number: 2880910134621594008 (0x27fb0c80f3f16198)
    Signature Algorithm: sha512WithRSAEncryption
        Issuer: C=CH, ST=Zug, L=Zug, O=Perfect Privacy, CN=Perfect Privacy/emailAddress=admin@perfect-privacy.com
        Validity
            Not Before: Jan 21 00:00:00 2023 GMT
            Not After : Sep 17 00:00:00 2024 GMT
        Subject: C=CH, ST=Zug, O=Perfect Privacy, CN=Client_milan.perfect-privacy.com/emailAddress=admin@perfect-privacy.com
        Subject Public Key Info:
            Public Key Algorithm: rsaEncryption
                Public-Key: (4096 bit)
                Modulus:
                    00:b5:80:fb:d3:53:21:17:db:08:6b:ee:2e:bc:5f:
                    6d:bc:ce:31:f8:3c:e6:41:78:22:f9:81:24:10:2f:
                    99:7c:f5:c5:04:82:f3:fc:fc:e0:25:b3:45:63:5d:
                    a6:59:a5:68:7b:51:a9:ae:c4:79:57:3c:23:ec:5e:
                    2a:ba:d5:b4:6f:0b:9e:56:9c:a2:58:d1:e5:58:04:
                    54:4c:ee:22:aa:3f:52:5a:85:43:41:ec:96:e7:d6:
                    1c:d2:c1:6d:e2:9b:b7:59:f5:66:c7:b0:fb:33:79:
                    43:62:7e:52:9b:7f:f0:a4:bb:e4:c2:8c:81:81:8e:
                    43:7e:d9:d1:56:23:96:2a:c3:6c:d4:36:80:1f:76:
                    cd:3f:06:5b:6d:bc:b4:d9:89:6b:ee:ad:f2:6d:1a:
                    5d:56:4b:8d:89:e4:a2:7c:75:22:df:27:5a:d1:92:
                    ee:31:6b:24:28:a9:85:dc:c1:b2:d3:93:91:3c:b3:
                    9d:fd:8a:23:cc:fb:fd:43:4f:80:47:81:c8:9b:7f:
                    e4:7b:1b:35:a3:aa:55:c3:43:93:e7:b7:c8:4b:9f:
                    77:44:5f:8d:bc:89:02:9c:50:42:1f:47:8e:bd:af:
                    f6:11:ef:d6:5c:69:b7:58:bb:b4:ce:57:14:47:d8:
                    37:b1:d2:4e:58:42:c6:19:ff:54:89:70:75:9b:37:
                    2d:06:6b:95:ba:4e:b9:bf:15:d8:b8:29:95:22:a7:
                    b9:f2:5c:01:76:70:ca:6a:36:d3:8b:18:c5:82:94:
                    9b:59:99:17:2c:9d:c8:fb:21:71:e5:2c:71:90:da:
                    db:b1:9f:da:fe:37:cf:24:37:ba:5b:86:e7:46:52:
                    7b:a8:71:09:70:3b:22:68:65:cc:fa:fb:a8:3b:b4:
                    10:d2:4e:08:03:4d:0a:05:55:16:56:81:ec:14:42:
                    b6:86:f9:d8:9f:d0:47:da:3d:b5:9a:e3:40:ce:9e:
                    65:6f:6e:fb:1f:bb:83:0e:cd:73:50:e7:6b:09:8c:
                    98:c2:c4:9f:ae:95:d1:ef:11:73:97:48:f5:2f:2d:
                    1e:08:f6:ce:9f:bf:ae:b0:2a:e3:a5:f2:3f:8a:74:
                    15:48:87:b3:ac:3c:d6:71:bb:6d:d8:4f:8f:c7:7e:
                    3e:f8:ce:d7:a8:27:ec:7d:51:91:42:28:3f:c8:11:
                    16:b9:cd:d6:86:7d:a7:0a:4c:de:4a:48:f1:b5:a6:
                    a7:d4:3b:e6:b3:8e:31:3d:d9:3d:58:33:92:be:4c:
                    39:9b:e7:6a:95:c0:6c:41:0f:3f:d3:e3:dd:97:e1:
                    fd:ba:37:03:7b:53:55:a2:09:ad:a1:fc:18:83:ac:
                    75:1d:3b:ec:03:62:97:e6:f8:86:94:3e:f5:6f:c9:
                    b6:90:6d
                Exponent: 65537 (0x10001)
        X509v3 extensions:
            X509v3 Basic Constraints: 
                CA:FALSE
            Netscape Comment: 
                VPN User Certificate
            Netscape Cert Type: 
                SSL Client
            X509v3 Key Usage: 
                Digital Signature
            X509v3 Extended Key Usage: 
                TLS Web Client Authentication
            X509v3 Subject Key Identifier: 
                DB:99:F1:08:86:EB:9D:26:87:5C:EE:C2:18:37:AC:85:1C:28:3D:EC
            X509v3 Authority Key Identifier: 
                keyid:86:4F:B8:6D:18:2A:1B:3C:8F:27:34:29:F0:81:9F:BA:6E:61:0E:E1
                DirName:/C=CH/ST=Zug/L=Zug/O=Perfect Privacy/CN=Perfect Privacy/emailAddress=admin@perfect-privacy.com
                serial:FA:11:B5:C4:AA:69:AF:69

    Signature Algorithm: sha512WithRSAEncryption
         a1:9e:aa:b4:e8:86:e5:33:0c:cb:ad:ea:d2:07:1b:64:4a:fe:
         ce:5d:f0:13:92:52:27:f0:69:27:80:46:ce:35:5b:af:a5:3d:
         4e:6d:68:2e:53:98:65:36:ff:6f:59:44:d3:65:50:c0:a5:b9:
         34:34:bd:07:74:8d:a2:7d:47:3a:61:7b:3b:25:87:e5:68:bd:
         d7:76:6f:18:c4:56:c8:81:9f:54:8c:07:67:e4:90:33:f4:98:
         9e:5d:3e:14:35:60:28:44:33:27:c7:5f:15:b0:57:e7:76:a5:
         37:f8:99:75:dc:47:de:9d:ae:29:69:f2:d2:01:08:6f:44:42:
         5f:5c:bf:84:9c:09:34:45:f9:16:51:5f:75:8f:31:48:63:c1:
         b7:1d:e0:85:33:e1:d9:49:ad:7a:b7:61:93:82:fc:33:08:e9:
         96:cb:86:82:59:64:de:a3:ca:61:49:81:45:ad:9e:0f:5f:98:
         28:44:24:02:8b:af:e3:11:10:e3:19:c3:46:35:38:33:2b:1d:
         81:eb:78:69:f8:89:85:cb:1e:c8:09:c9:b9:0c:c0:2a:46:a8:
         8e:96:0a:4e:d3:e8:43:a2:9e:49:6e:52:d3:2b:a5:5d:0d:9b:
         aa:56:99:35:95:ed:c0:89:10:27:d5:6c:04:4b:7f:e2:f3:f3:
         92:f3:12:f3:91:f6:12:42:21:da:10:a1:69:b7:9e:6c:29:ac:
         4f:a7:e9:3c:7f:68:d5:a4:fa:01:11:b0:c9:9b:c0:77:16:61:
         d3:7e:45:f4:9d:fa:dd:95:3e:5d:16:e2:b7:29:22:e2:0b:80:
         48:34:c2:16:34:27:bf:3d:6f:c0:66:f3:dd:a7:f0:9e:1f:df:
         61:05:7a:1e:78:3b:9e:ef:76:29:35:d7:47:3b:46:90:1e:10:
         c6:cb:ff:a8:fc:85:0a:8a:b1:41:4d:12:8f:c5:b7:a0:c7:f0:
         1b:8e:ae:75:d5:91:46:17:0c:cc:5c:20:f8:11:3e:16:93:0d:
         80:7d:2b:d0:4d:5f:d3:f0:59:74:cc:70:5c:9c:bd:fe:f5:9b:
         a5:58:96:ad:2c:73:92:17:23:1e:10:73:b5:5b:bb:dc:22:7b:
         5c:2a:41:d4:a4:aa:d2:f1:27:d8:8b:6a:93:73:b1:24:b5:ab:
         6f:c0:e8:1c:78:ee:84:62:4d:38:d3:bd:23:78:b5:45:84:58:
         f7:53:c8:14:80:8c:e6:65:fe:d0:ec:c0:b3:49:08:6d:8a:42:
         13:56:8a:65:97:14:e8:96:ce:69:80:66:20:e7:8d:61:0a:dd:
         b6:83:d6:3f:1c:f2:70:14:c4:59:7f:a3:b9:c4:2f:82:be:19:
         b8:4b:f5:92:e5:ea:26:4a
-----BEGIN CERTIFICATE-----
MIIG3jCCBMagAwIBAgIIJ/sMgPPxYZgwDQYJKoZIhvcNAQENBQAwgYcxCzAJBgNV
BAYTAkNIMQwwCgYDVQQIEwNadWcxDDAKBgNVBAcTA1p1ZzEYMBYGA1UEChMPUGVy
ZmVjdCBQcml2YWN5MRgwFgYDVQQDEw9QZXJmZWN0IFByaXZhY3kxKDAmBgkqhkiG
9w0BCQEWGWFkbWluQHBlcmZlY3QtcHJpdmFjeS5jb20wHhcNMjMwMTIxMDAwMDAw
WhcNMjQwOTE3MDAwMDAwWjCBijELMAkGA1UEBhMCQ0gxDDAKBgNVBAgTA1p1ZzEY
MBYGA1UEChMPUGVyZmVjdCBQcml2YWN5MSkwJwYDVQQDFCBDbGllbnRfbWlsYW4u
cGVyZmVjdC1wcml2YWN5LmNvbTEoMCYGCSqGSIb3DQEJARYZYWRtaW5AcGVyZmVj
dC1wcml2YWN5LmNvbTCCAiIwDQYJKoZIhvcNAQEBBQADggIPADCCAgoCggIBALWA
+9NTIRfbCGvuLrxfbbzOMfg85kF4IvmBJBAvmXz1xQSC8/z84CWzRWNdplmlaHtR
qa7EeVc8I+xeKrrVtG8LnlacoljR5VgEVEzuIqo/UlqFQ0HslufWHNLBbeKbt1n1
Zsew+zN5Q2J+Upt/8KS75MKMgYGOQ37Z0VYjlirDbNQ2gB92zT8GW228tNmJa+6t
8m0aXVZLjYnkonx1It8nWtGS7jFrJCiphdzBstOTkTyznf2KI8z7/UNPgEeByJt/
5HsbNaOqVcNDk+e3yEufd0RfjbyJApxQQh9Hjr2v9hHv1lxpt1i7tM5XFEfYN7HS
TlhCxhn/VIlwdZs3LQZrlbpOub8V2LgplSKnufJcAXZwymo204sYxYKUm1mZFyyd
yPshceUscZDa27Gf2v43zyQ3uluG50ZSe6hxCXA7ImhlzPr7qDu0ENJOCANNCgVV
FlaB7BRCtob52J/QR9o9tZrjQM6eZW9u+x+7gw7Nc1DnawmMmMLEn66V0e8Rc5dI
9S8tHgj2zp+/rrAq46XyP4p0FUiHs6w81nG7bdhPj8d+PvjO16gn7H1RkUIoP8gR
FrnN1oZ9pwpM3kpI8bWmp9Q75rOOMT3ZPVgzkr5MOZvnapXAbEEPP9Pj3Zfh/bo3
A3tTVaIJraH8GIOsdR077ANil+b4hpQ+9W/JtpBtAgMBAAGjggFHMIIBQzAJBgNV
HRMEAjAAMCMGCWCGSAGG+EIBDQQWFhRWUE4gVXNlciBDZXJ0aWZpY2F0ZTARBglg
hkgBhvhCAQEEBAMCB4AwCwYDVR0PBAQDAgeAMBMGA1UdJQQMMAoGCCsGAQUFBwMC
MB0GA1UdDgQWBBTbmfEIhuudJodc7sIYN6yFHCg97DCBvAYDVR0jBIG0MIGxgBSG
T7htGCobPI8nNCnwgZ+6bmEO4aGBjaSBijCBhzELMAkGA1UEBhMCQ0gxDDAKBgNV
BAgTA1p1ZzEMMAoGA1UEBxMDWnVnMRgwFgYDVQQKEw9QZXJmZWN0IFByaXZhY3kx
GDAWBgNVBAMTD1BlcmZlY3QgUHJpdmFjeTEoMCYGCSqGSIb3DQEJARYZYWRtaW5A
cGVyZmVjdC1wcml2YWN5LmNvbYIJAPoRtcSqaa9pMA0GCSqGSIb3DQEBDQUAA4IC
AQChnqq06IblMwzLrerSBxtkSv7OXfATklIn8GkngEbONVuvpT1ObWguU5hlNv9v
WUTTZVDApbk0NL0HdI2ifUc6YXs7JYflaL3Xdm8YxFbIgZ9UjAdn5JAz9JieXT4U
NWAoRDMnx18VsFfndqU3+Jl13Efena4pafLSAQhvREJfXL+EnAk0RfkWUV91jzFI
Y8G3HeCFM+HZSa16t2GTgvwzCOmWy4aCWWTeo8phSYFFrZ4PX5goRCQCi6/jERDj
GcNGNTgzKx2B63hp+ImFyx7ICcm5DMAqRqiOlgpO0+hDop5JblLTK6VdDZuqVpk1
le3AiRAn1WwES3/i8/OS8xLzkfYSQiHaEKFpt55sKaxPp+k8f2jVpPoBEbDJm8B3
FmHTfkX0nfrdlT5dFuK3KSLiC4BINMIWNCe/PW/AZvPdp/CeH99hBXoeeDue73Yp
NddHO0aQHhDGy/+o/IUKirFBTRKPxbegx/Abjq511ZFGFwzMXCD4ET4Wkw2AfSvQ
TV/T8Fl0zHBcnL3+9ZulWJatLHOSFyMeEHO1W7vcIntcKkHUpKrS8SfYi2qTc7Ek
tatvwOgceO6EYk04070jeLVFhFj3U8gUgIzmZf7Q7MCzSQhtikITVopllxTols5p
gGYg541hCt22g9Y/HPJwFMRZf6O5xC+Cvhm4S/WS5eomSg==
-----END CERTIFICATE-----
