Certificate:
    Data:
        Version: 3 (0x2)
        Serial Number: 1931421492436244911 (0x1acdc99d403799af)
    Signature Algorithm: sha512WithRSAEncryption
        Issuer: C=CH, ST=Zug, L=Zug, O=Perfect Privacy, CN=Perfect Privacy/emailAddress=admin@perfect-privacy.com
        Validity
            Not Before: Jul 28 00:00:00 2023 GMT
            Not After : Mar 24 00:00:00 2025 GMT
        Subject: C=CH, ST=Zug, O=Perfect Privacy, CN=Client_milan.perfect-privacy.com/emailAddress=admin@perfect-privacy.com
        Subject Public Key Info:
            Public Key Algorithm: rsaEncryption
                Public-Key: (4096 bit)
                Modulus:
                    00:c1:13:7f:17:3b:8a:79:bf:cc:9f:87:2f:ec:11:
                    ab:4e:cb:74:de:2c:a0:57:78:80:20:0c:9f:a0:f4:
                    07:09:ca:52:bc:e9:2b:81:dd:cf:fc:70:be:29:7b:
                    70:8c:9f:03:d6:45:32:7f:81:ab:8a:82:4a:53:7a:
                    db:0f:78:41:ed:0d:f2:f1:cc:a3:20:60:81:47:c9:
                    47:c3:b6:1d:f5:67:b3:db:bf:4d:ce:01:ab:45:b6:
                    dc:73:cd:34:c6:e4:30:42:b2:b1:97:60:99:6f:be:
                    c6:a1:63:ca:56:2e:25:83:9c:e7:40:91:dd:79:18:
                    a0:8b:4f:d8:5d:19:c1:1e:c6:4c:da:14:d1:f7:23:
                    30:89:4a:6f:2f:24:15:12:cd:f3:7c:68:3f:54:31:
                    5d:5e:e2:32:94:a6:97:ac:5c:fb:f2:23:1d:d6:2d:
                    9d:4e:9a:cd:ff:93:bd:59:b9:d8:a8:d8:cf:d8:99:
                    c5:13:f1:74:94:e1:a6:17:92:c6:d8:03:16:2f:65:
                    85:f4:ce:e7:ca:af:c3:88:ab:ab:7c:fb:55:a5:72:
                    ac:6e:7b:b3:59:b0:6d:b3:34:89:a1:c0:14:cb:26:
                    33:7c:54:19:e7:68:da:ba:6d:7b:c9:89:05:9a:0e:
                    1b:90:48:fc:d4:e6:cf:bd:5d:45:36:f0:bc:d7:0b:
                    7c:77:f3:e7:8a:34:36:75:2e:fc:0e:86:70:ed:49:
                    a1:5c:80:32:d5:0a:3f:d7:ed:fc:14:51:bc:d5:93:
                    ed:28:cc:76:26:b6:59:f1:03:0a:27:8e:e7:b5:20:
                    f4:2c:3e:06:b7:73:69:35:5a:d7:c5:80:e9:d4:3e:
                    6f:54:09:af:2e:1d:73:e0:12:97:2b:4b:84:f7:7a:
                    72:08:ba:19:5a:95:21:31:66:3e:5e:dd:98:20:c2:
                    ec:2f:31:90:8e:27:f8:ff:d1:88:37:d4:f8:3d:f3:
                    1a:18:96:0f:eb:de:12:b6:ad:d9:f1:be:ba:13:f1:
                    e7:6f:dc:be:51:33:a8:03:57:6d:a0:36:a5:92:14:
                    aa:f4:e1:f1:a0:4f:67:4a:d5:5b:11:f2:1a:ed:88:
                    bb:d9:18:77:43:ff:3c:83:84:10:b1:a0:7c:66:95:
                    4d:ee:e3:58:57:81:d4:26:f7:e2:a4:2c:b8:07:bf:
                    0f:a1:2a:c7:34:97:e8:7c:3a:0d:66:86:ed:5f:19:
                    62:b2:1f:04:99:e6:50:8e:3f:be:ab:79:39:4d:a3:
                    82:70:d1:d1:f1:72:51:8d:36:17:23:97:3b:13:f2:
                    dc:ce:a6:c8:9d:8f:f4:42:d3:1c:ab:71:4c:17:c6:
                    f8:bf:1b:79:13:54:ca:0e:a8:cd:8e:cb:43:23:74:
                    55:54:db
                Exponent: 65537 (0x10001)
        X509v3 extensions:
            X509v3 Basic Constraints: 
                CA:FALSE
            Netscape Comment: 
                VPN User Certificate
            Netscape Cert Type: 
                SSL Client
            X509v3 Key Usage: 
                Digital Signature
            X509v3 Extended Key Usage: 
                TLS Web Client Authentication
            X509v3 Subject Key Identifier: 
                8A:2A:48:C4:73:84:E1:F1:21:27:7B:46:A8:9E:2C:F6:D4:13:E8:13
            X509v3 Authority Key Identifier: 
                keyid:86:4F:B8:6D:18:2A:1B:3C:8F:27:34:29:F0:81:9F:BA:6E:61:0E:E1
                DirName:/C=CH/ST=Zug/L=Zug/O=Perfect Privacy/CN=Perfect Privacy/emailAddress=admin@perfect-privacy.com
                serial:FA:11:B5:C4:AA:69:AF:69

    Signature Algorithm: sha512WithRSAEncryption
         02:d8:82:48:53:f6:e6:e4:b2:ad:ea:a2:47:56:67:69:0f:2c:
         03:36:27:b1:f7:4d:8c:b3:67:72:93:40:f1:f0:1e:3c:2a:78:
         9b:0c:9b:1d:b8:42:84:40:87:2a:c7:fe:0c:b8:47:42:20:47:
         f8:a0:2e:6e:99:a1:8e:1f:12:47:d7:25:67:48:8c:59:1a:d8:
         61:58:18:15:0c:5e:96:28:14:d9:5f:ef:5b:cd:64:ca:f5:91:
         3d:fd:cc:75:af:4a:8a:50:bb:be:27:80:bd:ff:7e:a1:79:1e:
         1a:87:6d:2b:1d:35:ec:1e:da:57:2c:28:b2:fd:37:61:dc:6b:
         36:3b:91:93:79:1e:84:25:63:d0:9c:b5:09:72:48:2d:fc:e0:
         6e:a7:7b:a4:40:98:45:cb:4f:0e:67:72:85:e8:14:58:0a:91:
         96:42:be:53:86:fa:1e:f0:ba:2d:86:93:ae:8d:0c:0f:fa:c4:
         07:8d:d1:c9:0f:74:4f:28:4a:e1:d5:48:51:fe:59:71:7a:66:
         90:21:6f:35:08:ce:0b:9d:fb:de:d4:a8:c5:a9:c8:cb:82:44:
         37:5b:05:10:17:b7:1f:8a:4f:4f:36:81:b9:a5:4f:9b:11:36:
         44:18:eb:d0:72:8f:1f:ff:00:90:91:a1:e3:0a:5e:c7:f1:ab:
         e3:bd:b4:f8:e1:01:d2:75:58:3b:67:f8:76:8e:5b:70:53:70:
         5f:76:ed:4a:e3:6b:96:04:b6:6d:6e:4c:e1:fd:10:c9:68:ef:
         61:1c:93:76:93:8b:b7:4b:08:5c:27:e0:79:7c:e3:c5:36:96:
         68:5f:e1:0b:63:35:8c:92:d4:6b:39:48:06:32:ce:36:d2:2c:
         07:93:f8:c2:62:36:15:0a:5d:22:cb:5d:7d:71:e4:17:46:5d:
         73:4a:90:39:ac:aa:45:f9:21:7d:cf:e0:fe:2c:c3:35:7b:9a:
         38:13:fb:18:4a:fb:58:68:1c:c6:41:8f:41:af:04:5f:5d:cc:
         d5:f1:6b:d1:fd:88:de:27:60:ec:f9:f0:be:1f:04:66:c3:d4:
         08:9c:85:46:ab:40:8e:b4:f6:7c:17:44:94:0f:7f:48:f6:6d:
         e5:7c:8e:b8:8f:ce:0e:30:d0:15:f1:31:f0:9a:38:a1:03:73:
         c7:0e:ef:9b:03:a0:15:93:4b:b6:fc:da:9d:04:71:b0:e4:ba:
         19:d6:b2:66:eb:43:b8:a4:d2:5e:35:c2:dd:54:12:d9:fe:75:
         91:69:f0:b9:fc:89:72:01:18:04:65:39:a8:62:3a:e4:3c:57:
         29:be:2c:0d:33:81:46:b3:12:7b:a5:0c:bb:0d:af:cd:30:0b:
         45:14:8e:54:dd:49:97:8a
-----BEGIN CERTIFICATE-----
MIIG3jCCBMagAwIBAgIIGs3JnUA3ma8wDQYJKoZIhvcNAQENBQAwgYcxCzAJBgNV
BAYTAkNIMQwwCgYDVQQIEwNadWcxDDAKBgNVBAcTA1p1ZzEYMBYGA1UEChMPUGVy
ZmVjdCBQcml2YWN5MRgwFgYDVQQDEw9QZXJmZWN0IFByaXZhY3kxKDAmBgkqhkiG
9w0BCQEWGWFkbWluQHBlcmZlY3QtcHJpdmFjeS5jb20wHhcNMjMwNzI4MDAwMDAw
WhcNMjUwMzI0MDAwMDAwWjCBijELMAkGA1UEBhMCQ0gxDDAKBgNVBAgTA1p1ZzEY
MBYGA1UEChMPUGVyZmVjdCBQcml2YWN5MSkwJwYDVQQDFCBDbGllbnRfbWlsYW4u
cGVyZmVjdC1wcml2YWN5LmNvbTEoMCYGCSqGSIb3DQEJARYZYWRtaW5AcGVyZmVj
dC1wcml2YWN5LmNvbTCCAiIwDQYJKoZIhvcNAQEBBQADggIPADCCAgoCggIBAMET
fxc7inm/zJ+HL+wRq07LdN4soFd4gCAMn6D0BwnKUrzpK4Hdz/xwvil7cIyfA9ZF
Mn+Bq4qCSlN62w94Qe0N8vHMoyBggUfJR8O2HfVns9u/Tc4Bq0W23HPNNMbkMEKy
sZdgmW++xqFjylYuJYOc50CR3XkYoItP2F0ZwR7GTNoU0fcjMIlKby8kFRLN83xo
P1QxXV7iMpSml6xc+/IjHdYtnU6azf+TvVm52KjYz9iZxRPxdJThpheSxtgDFi9l
hfTO58qvw4irq3z7VaVyrG57s1mwbbM0iaHAFMsmM3xUGedo2rpte8mJBZoOG5BI
/NTmz71dRTbwvNcLfHfz54o0NnUu/A6GcO1JoVyAMtUKP9ft/BRRvNWT7SjMdia2
WfEDCieO57Ug9Cw+BrdzaTVa18WA6dQ+b1QJry4dc+ASlytLhPd6cgi6GVqVITFm
Pl7dmCDC7C8xkI4n+P/RiDfU+D3zGhiWD+veErat2fG+uhPx52/cvlEzqANXbaA2
pZIUqvTh8aBPZ0rVWxHyGu2Iu9kYd0P/PIOEELGgfGaVTe7jWFeB1Cb34qQsuAe/
D6EqxzSX6Hw6DWaG7V8ZYrIfBJnmUI4/vqt5OU2jgnDR0fFyUY02FyOXOxPy3M6m
yJ2P9ELTHKtxTBfG+L8beRNUyg6ozY7LQyN0VVTbAgMBAAGjggFHMIIBQzAJBgNV
HRMEAjAAMCMGCWCGSAGG+EIBDQQWFhRWUE4gVXNlciBDZXJ0aWZpY2F0ZTARBglg
hkgBhvhCAQEEBAMCB4AwCwYDVR0PBAQDAgeAMBMGA1UdJQQMMAoGCCsGAQUFBwMC
MB0GA1UdDgQWBBSKKkjEc4Th8SEne0aoniz21BPoEzCBvAYDVR0jBIG0MIGxgBSG
T7htGCobPI8nNCnwgZ+6bmEO4aGBjaSBijCBhzELMAkGA1UEBhMCQ0gxDDAKBgNV
BAgTA1p1ZzEMMAoGA1UEBxMDWnVnMRgwFgYDVQQKEw9QZXJmZWN0IFByaXZhY3kx
GDAWBgNVBAMTD1BlcmZlY3QgUHJpdmFjeTEoMCYGCSqGSIb3DQEJARYZYWRtaW5A
cGVyZmVjdC1wcml2YWN5LmNvbYIJAPoRtcSqaa9pMA0GCSqGSIb3DQEBDQUAA4IC
AQAC2IJIU/bm5LKt6qJHVmdpDywDNiex902Ms2dyk0Dx8B48KnibDJsduEKEQIcq
x/4MuEdCIEf4oC5umaGOHxJH1yVnSIxZGthhWBgVDF6WKBTZX+9bzWTK9ZE9/cx1
r0qKULu+J4C9/36heR4ah20rHTXsHtpXLCiy/Tdh3Gs2O5GTeR6EJWPQnLUJckgt
/OBup3ukQJhFy08OZ3KF6BRYCpGWQr5Thvoe8LothpOujQwP+sQHjdHJD3RPKErh
1UhR/llxemaQIW81CM4Lnfve1KjFqcjLgkQ3WwUQF7cfik9PNoG5pU+bETZEGOvQ
co8f/wCQkaHjCl7H8avjvbT44QHSdVg7Z/h2jltwU3Bfdu1K42uWBLZtbkzh/RDJ
aO9hHJN2k4u3SwhcJ+B5fOPFNpZoX+ELYzWMktRrOUgGMs420iwHk/jCYjYVCl0i
y119ceQXRl1zSpA5rKpF+SF9z+D+LMM1e5o4E/sYSvtYaBzGQY9BrwRfXczV8WvR
/YjeJ2Ds+fC+HwRmw9QInIVGq0COtPZ8F0SUD39I9m3lfI64j84OMNAV8THwmjih
A3PHDu+bA6AVk0u2/NqdBHGw5LoZ1rJm60O4pNJeNcLdVBLZ/nWRafC5/IlyARgE
ZTmoYjrkPFcpviwNM4FGsxJ7pQy7Da/NMAtFFI5U3UmXig==
-----END CERTIFICATE-----
