Certificate:
    Data:
        Version: 3 (0x2)
        Serial Number:
            bd:44:2d:5a:f7:4e:d9:40
    Signature Algorithm: sha512WithRSAEncryption
        Issuer: C=CH, ST=Zug, L=Zug, O=Perfect Privacy, CN=Perfect Privacy/emailAddress=admin@perfect-privacy.com
        Validity
            Not Before: Dec 21 00:00:00 2022 GMT
            Not After : Aug 17 00:00:00 2024 GMT
        Subject: C=CH, ST=Zug, O=Perfect Privacy, CN=Client_montreal.perfect-privacy.com/emailAddress=admin@perfect-privacy.com
        Subject Public Key Info:
            Public Key Algorithm: rsaEncryption
                Public-Key: (4096 bit)
                Modulus:
                    00:b1:65:e5:2f:ff:5a:7a:ed:3f:81:a7:32:c2:ec:
                    cf:73:e8:7e:ef:55:8b:bb:85:cc:d1:8a:40:86:a5:
                    c3:5c:4d:cb:17:53:e7:c7:72:e4:ff:f0:44:31:40:
                    d2:09:af:b6:d6:75:85:28:74:76:54:70:72:6b:ef:
                    92:17:1f:31:82:cf:ba:cf:35:b3:36:fd:70:e5:73:
                    43:89:92:e5:36:04:de:b0:3f:01:34:61:3d:a1:7c:
                    74:76:ff:35:8e:d2:92:f3:7e:a8:77:20:c1:a2:49:
                    9c:af:e3:c8:c3:ee:88:0f:b9:81:e4:fc:a2:2f:68:
                    fd:54:76:b3:be:ca:67:64:fb:bf:95:6e:6e:41:9b:
                    ea:2b:6d:11:1f:b3:c5:ca:a6:40:79:48:dd:e3:cb:
                    68:bb:3a:b0:2c:25:13:05:c5:83:1b:fe:68:46:c2:
                    92:69:a0:75:a2:7a:7a:7f:36:7a:90:3b:3e:02:32:
                    19:bb:03:4e:68:7b:fd:3b:57:61:e1:68:34:9c:1e:
                    9c:f3:5f:4b:e2:a5:9f:8a:6e:74:ed:dc:db:62:0e:
                    08:69:cd:bd:9b:eb:1b:c0:a3:ae:65:0e:e7:a4:8b:
                    f2:9e:e9:3c:26:4c:d6:4e:df:99:ab:ba:93:5a:fe:
                    a7:7a:41:79:40:e7:94:e8:9f:d9:4f:c6:61:21:c5:
                    ea:93:86:b2:de:f7:69:0b:89:b7:03:2f:cf:12:90:
                    66:2d:8b:dc:bd:fc:f4:d4:48:88:36:1e:f6:f9:7f:
                    f0:3c:60:18:71:28:43:c9:16:e6:bb:84:ac:87:28:
                    7f:09:80:8e:1c:10:20:b5:c5:6e:64:44:82:f6:3d:
                    9b:d0:23:bf:55:1b:c8:d7:a4:4e:b3:36:7c:be:9c:
                    89:10:cd:0c:54:72:a4:e7:96:ff:f5:89:a1:c8:99:
                    15:ed:a5:94:48:7c:1b:f7:60:3b:71:8a:c4:2a:b2:
                    0a:a3:52:79:4e:d8:99:79:45:53:b9:ae:3b:c9:a9:
                    5b:7a:0c:b5:b9:b8:fd:59:ce:62:8f:fc:65:de:74:
                    0f:b0:ab:78:cf:28:54:a2:29:55:99:4f:72:6e:80:
                    92:27:31:f2:0e:0a:ec:a0:4e:bf:e7:ef:2e:d2:e7:
                    39:a5:26:d5:42:6e:61:83:e6:c6:b2:10:41:bd:67:
                    85:1f:e3:8b:87:6c:27:41:c4:62:f8:2f:85:61:63:
                    43:84:f4:b1:2f:d9:2c:55:d1:01:6d:0e:7a:ad:d1:
                    46:cd:2b:c8:2a:f9:3d:b2:94:d3:7b:64:97:48:55:
                    72:ea:a6:af:59:69:0a:85:95:0c:ba:75:8f:b5:14:
                    f2:46:93:8d:0c:ad:3a:da:5d:82:6f:7e:0c:0c:e9:
                    ce:8f:9b
                Exponent: 65537 (0x10001)
        X509v3 extensions:
            X509v3 Basic Constraints: 
                CA:FALSE
            Netscape Comment: 
                VPN User Certificate
            Netscape Cert Type: 
                SSL Client
            X509v3 Key Usage: 
                Digital Signature
            X509v3 Extended Key Usage: 
                TLS Web Client Authentication
            X509v3 Subject Key Identifier: 
                2B:35:4A:13:60:CF:C5:FC:C8:C5:41:03:43:E0:4C:77:56:91:E5:00
            X509v3 Authority Key Identifier: 
                keyid:86:4F:B8:6D:18:2A:1B:3C:8F:27:34:29:F0:81:9F:BA:6E:61:0E:E1
                DirName:/C=CH/ST=Zug/L=Zug/O=Perfect Privacy/CN=Perfect Privacy/emailAddress=admin@perfect-privacy.com
                serial:FA:11:B5:C4:AA:69:AF:69

    Signature Algorithm: sha512WithRSAEncryption
         83:97:2e:32:85:ec:3a:42:fd:9d:43:f7:4a:5d:39:7f:63:ed:
         f9:ee:a1:b7:47:9b:64:6a:11:38:cf:1d:6a:6f:67:6a:a3:07:
         bb:fa:fb:98:c8:52:86:a9:bc:b5:84:2d:99:bc:90:ee:5a:fe:
         a7:80:1d:57:ab:7b:70:68:87:47:cc:02:15:21:2f:9a:47:b8:
         72:32:a3:49:45:90:92:75:5e:82:27:5a:3c:b7:8d:fc:22:9b:
         fa:af:4d:ef:42:9f:48:ca:79:4f:2c:5e:00:c7:4d:f3:50:6d:
         7b:d0:54:b9:1b:38:4e:7c:25:f6:fe:90:4c:82:60:91:92:02:
         af:8f:b8:85:76:d1:54:d2:0b:5f:d8:4a:ea:35:d7:8e:38:24:
         c3:e5:da:a3:be:c8:28:78:96:ea:88:9e:c3:df:c0:02:b7:32:
         aa:93:60:3c:9a:00:46:99:7c:da:f0:85:21:11:d7:d4:91:48:
         9e:0c:34:2b:7e:df:86:61:a6:ef:d2:09:fb:17:bf:74:87:f2:
         6e:14:9a:a7:37:d9:40:31:28:41:ac:8f:ba:0e:31:16:2b:56:
         80:12:3c:24:86:13:38:44:e0:23:7d:a7:e1:47:2d:c9:6b:7d:
         29:fb:e0:ef:04:44:15:fe:19:ab:70:b9:4c:7d:5f:7f:87:d3:
         df:47:7e:fd:36:39:98:61:2b:e3:fb:bd:73:3d:9b:4b:e4:eb:
         d3:55:c7:06:99:0a:b7:d9:f8:e2:df:70:e5:77:83:01:d3:20:
         3d:3d:38:d2:02:dc:9a:ba:79:d9:60:b9:17:12:24:bc:8d:82:
         7d:0a:b6:f6:81:2a:95:9d:25:79:28:ce:d6:0d:c8:65:19:b7:
         35:a4:a4:eb:2a:b8:f5:1c:0a:ab:e6:bf:58:8f:38:3c:1a:b1:
         c3:a4:7f:80:ba:4c:c9:68:2c:a7:8f:33:34:9c:2e:3b:54:d7:
         0f:8a:f9:83:7e:2c:95:c9:10:ac:55:d6:6b:5c:24:6b:51:5e:
         11:b0:bf:ca:c4:07:29:50:60:95:2a:41:25:b6:c4:2c:86:a2:
         c7:02:78:b1:9c:4b:53:db:26:c1:ab:ab:a5:05:2b:b7:06:3b:
         95:6a:80:bd:eb:3d:24:b4:d0:ab:3f:46:4a:8b:95:3a:8a:e1:
         c5:ac:24:6b:4d:35:32:09:c0:8e:24:94:ed:b4:d8:be:e7:cb:
         05:8c:41:3c:1c:bf:90:ad:03:e9:50:51:7e:43:89:8e:4a:3b:
         1f:9e:39:c5:15:33:18:bf:5e:9a:3f:e8:89:f2:d0:87:51:57:
         01:00:13:02:f8:ac:b6:36:5d:6b:45:48:6d:84:87:58:36:f4:
         8a:2c:f9:e9:a2:5f:02:1f
-----BEGIN CERTIFICATE-----
MIIG4jCCBMqgAwIBAgIJAL1ELVr3TtlAMA0GCSqGSIb3DQEBDQUAMIGHMQswCQYD
VQQGEwJDSDEMMAoGA1UECBMDWnVnMQwwCgYDVQQHEwNadWcxGDAWBgNVBAoTD1Bl
cmZlY3QgUHJpdmFjeTEYMBYGA1UEAxMPUGVyZmVjdCBQcml2YWN5MSgwJgYJKoZI
hvcNAQkBFhlhZG1pbkBwZXJmZWN0LXByaXZhY3kuY29tMB4XDTIyMTIyMTAwMDAw
MFoXDTI0MDgxNzAwMDAwMFowgY0xCzAJBgNVBAYTAkNIMQwwCgYDVQQIEwNadWcx
GDAWBgNVBAoTD1BlcmZlY3QgUHJpdmFjeTEsMCoGA1UEAxQjQ2xpZW50X21vbnRy
ZWFsLnBlcmZlY3QtcHJpdmFjeS5jb20xKDAmBgkqhkiG9w0BCQEWGWFkbWluQHBl
cmZlY3QtcHJpdmFjeS5jb20wggIiMA0GCSqGSIb3DQEBAQUAA4ICDwAwggIKAoIC
AQCxZeUv/1p67T+BpzLC7M9z6H7vVYu7hczRikCGpcNcTcsXU+fHcuT/8EQxQNIJ
r7bWdYUodHZUcHJr75IXHzGCz7rPNbM2/XDlc0OJkuU2BN6wPwE0YT2hfHR2/zWO
0pLzfqh3IMGiSZyv48jD7ogPuYHk/KIvaP1UdrO+ymdk+7+Vbm5Bm+orbREfs8XK
pkB5SN3jy2i7OrAsJRMFxYMb/mhGwpJpoHWienp/NnqQOz4CMhm7A05oe/07V2Hh
aDScHpzzX0vipZ+KbnTt3NtiDghpzb2b6xvAo65lDueki/Ke6TwmTNZO35mrupNa
/qd6QXlA55Ton9lPxmEhxeqThrLe92kLibcDL88SkGYti9y9/PTUSIg2Hvb5f/A8
YBhxKEPJFua7hKyHKH8JgI4cECC1xW5kRIL2PZvQI79VG8jXpE6zNny+nIkQzQxU
cqTnlv/1iaHImRXtpZRIfBv3YDtxisQqsgqjUnlO2Jl5RVO5rjvJqVt6DLW5uP1Z
zmKP/GXedA+wq3jPKFSiKVWZT3JugJInMfIOCuygTr/n7y7S5zmlJtVCbmGD5say
EEG9Z4Uf44uHbCdBxGL4L4VhY0OE9LEv2SxV0QFtDnqt0UbNK8gq+T2ylNN7ZJdI
VXLqpq9ZaQqFlQy6dY+1FPJGk40MrTraXYJvfgwM6c6PmwIDAQABo4IBRzCCAUMw
CQYDVR0TBAIwADAjBglghkgBhvhCAQ0EFhYUVlBOIFVzZXIgQ2VydGlmaWNhdGUw
EQYJYIZIAYb4QgEBBAQDAgeAMAsGA1UdDwQEAwIHgDATBgNVHSUEDDAKBggrBgEF
BQcDAjAdBgNVHQ4EFgQUKzVKE2DPxfzIxUEDQ+BMd1aR5QAwgbwGA1UdIwSBtDCB
sYAUhk+4bRgqGzyPJzQp8IGfum5hDuGhgY2kgYowgYcxCzAJBgNVBAYTAkNIMQww
CgYDVQQIEwNadWcxDDAKBgNVBAcTA1p1ZzEYMBYGA1UEChMPUGVyZmVjdCBQcml2
YWN5MRgwFgYDVQQDEw9QZXJmZWN0IFByaXZhY3kxKDAmBgkqhkiG9w0BCQEWGWFk
bWluQHBlcmZlY3QtcHJpdmFjeS5jb22CCQD6EbXEqmmvaTANBgkqhkiG9w0BAQ0F
AAOCAgEAg5cuMoXsOkL9nUP3Sl05f2Pt+e6ht0ebZGoROM8dam9naqMHu/r7mMhS
hqm8tYQtmbyQ7lr+p4AdV6t7cGiHR8wCFSEvmke4cjKjSUWQknVegidaPLeN/CKb
+q9N70KfSMp5TyxeAMdN81Bte9BUuRs4Tnwl9v6QTIJgkZICr4+4hXbRVNILX9hK
6jXXjjgkw+Xao77IKHiW6oiew9/AArcyqpNgPJoARpl82vCFIRHX1JFIngw0K37f
hmGm79IJ+xe/dIfybhSapzfZQDEoQayPug4xFitWgBI8JIYTOETgI32n4UctyWt9
Kfvg7wREFf4Zq3C5TH1ff4fT30d+/TY5mGEr4/u9cz2bS+Tr01XHBpkKt9n44t9w
5XeDAdMgPT040gLcmrp52WC5FxIkvI2CfQq29oEqlZ0leSjO1g3IZRm3NaSk6yq4
9RwKq+a/WI84PBqxw6R/gLpMyWgsp48zNJwuO1TXD4r5g34slckQrFXWa1wka1Fe
EbC/ysQHKVBglSpBJbbELIaixwJ4sZxLU9smwaurpQUrtwY7lWqAves9JLTQqz9G
SouVOorhxawka001MgnAjiSU7bTYvufLBYxBPBy/kK0D6VBRfkOJjko7H545xRUz
GL9emj/oifLQh1FXAQATAvistjZda0VIbYSHWDb0iiz56aJfAh8=
-----END CERTIFICATE-----
