Certificate:
    Data:
        Version: 3 (0x2)
        Serial Number: 4765839031718316149 (0x4223a9594e430875)
    Signature Algorithm: sha512WithRSAEncryption
        Issuer: C=CH, ST=Zug, L=Zug, O=Perfect Privacy, CN=Perfect Privacy/emailAddress=admin@perfect-privacy.com
        Validity
            Not Before: Jun 10 00:00:00 2023 GMT
            Not After : Feb  4 00:00:00 2025 GMT
        Subject: C=CH, ST=Zug, O=Perfect Privacy, CN=Client_montreal.perfect-privacy.com/emailAddress=admin@perfect-privacy.com
        Subject Public Key Info:
            Public Key Algorithm: rsaEncryption
                Public-Key: (4096 bit)
                Modulus:
                    00:c2:16:c8:54:9b:c3:cf:fb:7a:37:48:26:de:30:
                    23:56:29:d0:9e:94:a9:26:20:e4:c5:c0:f1:da:bd:
                    63:c7:2d:d6:67:5b:ee:ad:ad:45:03:d3:a2:2f:3f:
                    c9:05:bd:92:a0:75:59:24:51:58:96:5f:94:2b:b4:
                    23:77:2c:40:5a:af:2a:e6:df:03:ef:ee:f0:5d:3d:
                    a7:8d:23:bd:f7:6a:9a:4e:84:b4:78:56:80:cb:b9:
                    9a:ef:87:d1:f1:5d:15:1c:b5:02:48:81:62:c9:df:
                    74:a6:c5:d1:b4:ea:b8:23:59:95:f2:66:71:da:0e:
                    64:19:c7:7f:28:8f:30:66:d3:cc:3e:33:99:c9:b1:
                    c8:21:1a:a9:1c:ea:e9:26:6d:bc:38:bb:7f:36:f6:
                    bb:91:75:ee:58:8b:e8:e6:c8:7b:14:51:50:57:c0:
                    97:32:91:98:63:af:a1:e4:de:3c:ba:26:1c:90:8f:
                    f9:67:fa:ab:0e:65:4d:62:dc:1d:f2:17:88:a0:91:
                    13:a2:8a:75:80:a4:80:a7:05:8f:73:72:1e:17:88:
                    5c:bc:02:a6:b7:b3:87:cf:2f:7a:c4:90:df:93:17:
                    3a:28:21:ff:e6:ec:84:de:74:48:80:50:0e:6d:8b:
                    86:3c:58:ec:cd:93:cd:1e:4f:bd:e9:fc:43:14:41:
                    51:49:0d:8a:90:fd:57:43:16:e4:74:74:d1:a2:35:
                    d7:7f:9e:67:ac:ab:09:c3:63:a5:7a:c6:3f:e5:2a:
                    07:59:89:55:80:51:c6:20:55:30:72:7f:57:8d:b8:
                    e5:bb:a8:2e:cd:98:40:5b:82:79:ef:2a:0f:d5:99:
                    60:72:97:1a:3d:9c:89:ad:5e:4b:e1:03:7d:47:ae:
                    dd:57:b0:aa:24:dd:3f:6c:7f:0e:71:2a:ce:87:47:
                    58:cf:5a:5f:9a:c7:3e:f5:53:1d:52:c1:7c:b9:5b:
                    36:8c:26:9f:b0:d3:14:fa:97:21:31:92:ca:bc:89:
                    4e:69:56:b1:aa:c4:ad:38:eb:0c:29:f9:1e:ca:21:
                    bd:c2:5a:3f:9d:9d:7d:a8:fa:96:ab:a4:b7:7b:a4:
                    3f:46:df:2c:c9:60:76:f3:46:c3:8a:40:68:8b:60:
                    d6:4e:e2:04:de:16:43:25:4c:ee:ad:e8:a0:35:52:
                    ad:85:a6:5c:9f:8c:2f:61:2f:db:8d:af:f3:83:68:
                    7a:7c:2b:55:3c:56:d0:83:e3:99:49:06:fb:61:57:
                    39:61:78:23:34:63:51:25:fa:b0:b0:01:65:8e:f0:
                    c6:7c:8b:5a:87:c4:4f:cb:52:3d:54:7d:b3:22:b9:
                    37:e1:8d:2a:cd:4c:05:b7:cd:82:3c:aa:b9:2b:6a:
                    f5:1b:a7
                Exponent: 65537 (0x10001)
        X509v3 extensions:
            X509v3 Basic Constraints: 
                CA:FALSE
            Netscape Comment: 
                VPN User Certificate
            Netscape Cert Type: 
                SSL Client
            X509v3 Key Usage: 
                Digital Signature
            X509v3 Extended Key Usage: 
                TLS Web Client Authentication
            X509v3 Subject Key Identifier: 
                BC:3B:8A:41:E1:D7:5A:DF:61:40:06:D9:CF:68:D8:10:D7:81:E4:F0
            X509v3 Authority Key Identifier: 
                keyid:86:4F:B8:6D:18:2A:1B:3C:8F:27:34:29:F0:81:9F:BA:6E:61:0E:E1
                DirName:/C=CH/ST=Zug/L=Zug/O=Perfect Privacy/CN=Perfect Privacy/emailAddress=admin@perfect-privacy.com
                serial:FA:11:B5:C4:AA:69:AF:69

    Signature Algorithm: sha512WithRSAEncryption
         63:66:08:d0:a8:58:8f:c5:e9:5d:50:e5:68:a7:5e:f4:bf:a0:
         1e:29:34:f8:e9:fd:f9:24:24:01:93:a3:db:90:fa:a5:c2:5b:
         5e:c4:79:06:14:51:ac:e0:79:45:fe:ad:7a:f1:11:6f:e5:f9:
         57:81:f3:86:35:59:7f:b7:68:31:26:15:88:65:d6:de:7d:6d:
         ec:73:7b:ee:d6:47:4e:aa:53:e4:b6:0e:8a:83:c7:78:55:c5:
         93:2a:29:17:28:81:3c:38:fd:3b:98:db:f7:e1:4d:7c:3c:60:
         ae:08:91:91:15:92:eb:04:07:a1:4f:dc:6a:4a:06:5a:be:a8:
         78:e8:c7:76:17:c3:0c:d4:d6:96:15:c0:9d:d3:7c:e3:c6:a3:
         43:f9:ee:65:42:8e:7c:ed:02:47:13:69:69:29:ef:73:86:11:
         c9:f0:d4:56:0c:39:22:08:4f:43:b2:2f:de:d2:7c:b3:cf:76:
         6c:6a:00:22:a6:ec:3f:dc:ed:39:ce:b1:57:ec:68:3f:23:e8:
         85:ea:fb:d9:c0:8b:76:e8:66:cf:51:6c:77:05:20:4d:dc:f5:
         39:f3:d2:ad:81:93:49:47:5a:9a:a5:bb:ae:aa:c5:66:09:d0:
         12:4b:59:76:71:90:16:cd:f0:7c:89:41:e7:34:a4:46:5c:0d:
         49:d2:73:fc:59:ff:64:99:5b:c0:e4:43:a3:e9:bc:96:17:4b:
         5f:51:08:93:77:4e:65:5f:a7:1e:56:33:5e:5b:fd:18:4d:5f:
         35:cb:a1:3d:c4:1c:72:35:c2:7d:04:d1:10:0b:5e:35:25:b4:
         b9:dc:b1:c6:c1:e2:34:fe:c7:e9:d6:05:c6:fb:b9:c5:48:5c:
         99:80:a4:dc:90:4f:26:d8:d7:cb:f2:a0:52:ab:e8:a8:20:47:
         f6:0f:2a:0d:4e:69:7b:d6:f7:2a:de:e7:3b:44:cc:8d:7b:51:
         30:ba:97:f8:9a:11:f6:d9:ff:7c:24:10:8c:8d:84:ca:5c:31:
         cf:9c:8d:7b:c7:b0:58:8f:2a:62:58:ad:28:cf:c4:6a:5c:a6:
         ad:a5:6a:9d:fb:04:45:34:33:de:44:82:1e:43:37:04:86:34:
         6e:6c:2a:8a:6f:a5:ca:84:ff:64:86:8c:ac:92:49:2d:1e:bf:
         d3:79:1b:89:19:e7:75:b0:c6:a9:97:ed:dc:55:ad:d1:e5:7a:
         a0:ab:08:f3:7b:77:1d:9a:b8:06:a6:4d:a8:66:fe:eb:2d:7a:
         33:bd:4a:81:cf:be:ed:b3:b9:09:b5:cb:0a:8a:73:7d:92:54:
         a0:c0:89:65:31:4c:da:f6:e0:e8:f8:52:81:67:88:4c:ac:21:
         28:5f:93:a4:3a:b8:57:f3
-----BEGIN CERTIFICATE-----
MIIG4TCCBMmgAwIBAgIIQiOpWU5DCHUwDQYJKoZIhvcNAQENBQAwgYcxCzAJBgNV
BAYTAkNIMQwwCgYDVQQIEwNadWcxDDAKBgNVBAcTA1p1ZzEYMBYGA1UEChMPUGVy
ZmVjdCBQcml2YWN5MRgwFgYDVQQDEw9QZXJmZWN0IFByaXZhY3kxKDAmBgkqhkiG
9w0BCQEWGWFkbWluQHBlcmZlY3QtcHJpdmFjeS5jb20wHhcNMjMwNjEwMDAwMDAw
WhcNMjUwMjA0MDAwMDAwWjCBjTELMAkGA1UEBhMCQ0gxDDAKBgNVBAgTA1p1ZzEY
MBYGA1UEChMPUGVyZmVjdCBQcml2YWN5MSwwKgYDVQQDFCNDbGllbnRfbW9udHJl
YWwucGVyZmVjdC1wcml2YWN5LmNvbTEoMCYGCSqGSIb3DQEJARYZYWRtaW5AcGVy
ZmVjdC1wcml2YWN5LmNvbTCCAiIwDQYJKoZIhvcNAQEBBQADggIPADCCAgoCggIB
AMIWyFSbw8/7ejdIJt4wI1Yp0J6UqSYg5MXA8dq9Y8ct1mdb7q2tRQPToi8/yQW9
kqB1WSRRWJZflCu0I3csQFqvKubfA+/u8F09p40jvfdqmk6EtHhWgMu5mu+H0fFd
FRy1AkiBYsnfdKbF0bTquCNZlfJmcdoOZBnHfyiPMGbTzD4zmcmxyCEaqRzq6SZt
vDi7fzb2u5F17liL6ObIexRRUFfAlzKRmGOvoeTePLomHJCP+Wf6qw5lTWLcHfIX
iKCRE6KKdYCkgKcFj3NyHheIXLwCprezh88vesSQ35MXOigh/+bshN50SIBQDm2L
hjxY7M2TzR5Pven8QxRBUUkNipD9V0MW5HR00aI113+eZ6yrCcNjpXrGP+UqB1mJ
VYBRxiBVMHJ/V4245buoLs2YQFuCee8qD9WZYHKXGj2cia1eS+EDfUeu3VewqiTd
P2x/DnEqzodHWM9aX5rHPvVTHVLBfLlbNowmn7DTFPqXITGSyryJTmlWsarErTjr
DCn5HsohvcJaP52dfaj6lqukt3ukP0bfLMlgdvNGw4pAaItg1k7iBN4WQyVM7q3o
oDVSrYWmXJ+ML2Ev242v84NoenwrVTxW0IPjmUkG+2FXOWF4IzRjUSX6sLABZY7w
xnyLWofET8tSPVR9syK5N+GNKs1MBbfNgjyquStq9RunAgMBAAGjggFHMIIBQzAJ
BgNVHRMEAjAAMCMGCWCGSAGG+EIBDQQWFhRWUE4gVXNlciBDZXJ0aWZpY2F0ZTAR
BglghkgBhvhCAQEEBAMCB4AwCwYDVR0PBAQDAgeAMBMGA1UdJQQMMAoGCCsGAQUF
BwMCMB0GA1UdDgQWBBS8O4pB4dda32FABtnPaNgQ14Hk8DCBvAYDVR0jBIG0MIGx
gBSGT7htGCobPI8nNCnwgZ+6bmEO4aGBjaSBijCBhzELMAkGA1UEBhMCQ0gxDDAK
BgNVBAgTA1p1ZzEMMAoGA1UEBxMDWnVnMRgwFgYDVQQKEw9QZXJmZWN0IFByaXZh
Y3kxGDAWBgNVBAMTD1BlcmZlY3QgUHJpdmFjeTEoMCYGCSqGSIb3DQEJARYZYWRt
aW5AcGVyZmVjdC1wcml2YWN5LmNvbYIJAPoRtcSqaa9pMA0GCSqGSIb3DQEBDQUA
A4ICAQBjZgjQqFiPxeldUOVop170v6AeKTT46f35JCQBk6PbkPqlwltexHkGFFGs
4HlF/q168RFv5flXgfOGNVl/t2gxJhWIZdbefW3sc3vu1kdOqlPktg6Kg8d4VcWT
KikXKIE8OP07mNv34U18PGCuCJGRFZLrBAehT9xqSgZavqh46Md2F8MM1NaWFcCd
03zjxqND+e5lQo587QJHE2lpKe9zhhHJ8NRWDDkiCE9Dsi/e0nyzz3ZsagAipuw/
3O05zrFX7Gg/I+iF6vvZwIt26GbPUWx3BSBN3PU589KtgZNJR1qapbuuqsVmCdAS
S1l2cZAWzfB8iUHnNKRGXA1J0nP8Wf9kmVvA5EOj6byWF0tfUQiTd05lX6ceVjNe
W/0YTV81y6E9xBxyNcJ9BNEQC141JbS53LHGweI0/sfp1gXG+7nFSFyZgKTckE8m
2NfL8qBSq+ioIEf2DyoNTml71vcq3uc7RMyNe1Ewupf4mhH22f98JBCMjYTKXDHP
nI17x7BYjypiWK0oz8RqXKatpWqd+wRFNDPeRIIeQzcEhjRubCqKb6XKhP9khoys
kkktHr/TeRuJGed1sMapl+3cVa3R5Xqgqwjze3cdmrgGpk2oZv7rLXozvUqBz77t
s7kJtcsKinN9klSgwIllMUza9uDo+FKBZ4hMrCEoX5OkOrhX8w==
-----END CERTIFICATE-----
