Certificate:
    Data:
        Version: 3 (0x2)
        Serial Number: 2236977744118683267 (0x1f0b576800a61683)
    Signature Algorithm: sha512WithRSAEncryption
        Issuer: C=CH, ST=Zug, L=Zug, O=Perfect Privacy, CN=Perfect Privacy/emailAddress=admin@perfect-privacy.com
        Validity
            Not Before: Mar  6 00:00:00 2023 GMT
            Not After : Oct 31 00:00:00 2024 GMT
        Subject: C=CH, ST=Zug, O=Perfect Privacy, CN=Client_madrid.perfect-privacy.com/emailAddress=admin@perfect-privacy.com
        Subject Public Key Info:
            Public Key Algorithm: rsaEncryption
                Public-Key: (4096 bit)
                Modulus:
                    00:c0:97:79:11:a0:eb:d5:5d:32:6f:68:a7:3f:59:
                    3d:15:37:96:06:3e:ff:92:4a:6a:03:d9:36:df:26:
                    41:2e:c2:0e:a6:51:84:e1:40:db:01:92:41:79:d2:
                    2c:b3:02:e1:48:48:d9:bc:81:d0:36:c2:f7:82:1f:
                    72:75:96:db:5b:a1:d0:bb:3a:8f:6b:bc:cd:8e:5d:
                    02:5f:25:3a:f1:6e:1f:1f:23:99:68:14:07:4e:1b:
                    5a:e6:bd:d2:ca:12:57:03:13:7d:60:b0:17:c4:4c:
                    5e:cd:a6:d1:81:c6:3a:7c:56:e9:02:a6:23:08:f2:
                    2d:35:3c:0f:88:f6:c6:d2:13:69:44:f6:b8:d3:60:
                    1d:5a:e1:00:e2:c8:bb:0a:cc:01:1f:b3:e6:83:db:
                    d0:85:fc:7e:5e:79:23:b5:a0:1c:7f:a1:bd:20:a3:
                    9d:29:fd:46:7f:18:e7:f6:89:3c:1f:41:41:73:7f:
                    4d:3b:d5:f3:72:d7:e8:88:96:9a:02:0f:60:1b:d8:
                    5b:fc:af:00:a5:2b:d3:bb:c9:0d:0c:79:32:4b:76:
                    fc:61:14:be:09:ba:05:17:73:9b:85:e0:3c:4d:48:
                    dc:db:ea:09:28:1b:d2:c1:49:3c:92:66:88:80:14:
                    32:e1:7a:2c:46:04:8d:ad:5f:2b:11:d2:28:b7:ee:
                    78:36:14:5a:c9:af:30:d7:9c:4b:9e:48:58:65:48:
                    20:c1:5c:e4:d2:ca:32:52:8e:11:25:1b:72:9f:28:
                    3f:2e:2d:f4:12:61:22:51:29:ce:ab:8c:c2:12:db:
                    6d:00:07:51:4e:f7:62:d6:e6:8e:48:69:db:82:b8:
                    3a:be:00:ec:a0:7f:31:07:83:42:32:e9:88:b9:d6:
                    fb:c3:a3:45:03:9e:08:2e:e7:58:f4:74:10:1c:39:
                    d5:c6:76:44:5c:78:7d:3d:69:70:31:62:dd:c1:7a:
                    97:47:d7:af:26:f3:cd:48:07:2b:d6:a3:39:84:09:
                    ae:06:53:5f:df:34:9d:35:01:fb:93:6d:7e:00:53:
                    97:51:21:a2:b3:ba:76:c5:98:33:cb:2c:f7:ed:29:
                    d3:af:17:99:cf:76:49:ef:b5:c7:1c:d0:6c:44:cc:
                    2b:ff:95:d4:83:aa:3f:a6:68:58:4e:e8:98:58:c3:
                    40:38:1e:0f:09:92:67:39:70:63:cf:f7:1b:2e:8d:
                    57:bf:7b:58:db:6e:37:0f:9d:b0:00:9c:19:d7:db:
                    18:62:c7:12:23:59:79:cb:5a:21:d0:6a:9d:18:46:
                    00:2b:6e:97:de:37:39:b0:4c:2f:0f:3d:b3:85:38:
                    9b:af:da:49:13:6d:ca:93:d7:bc:03:d0:d8:fe:89:
                    92:6d:27
                Exponent: 65537 (0x10001)
        X509v3 extensions:
            X509v3 Basic Constraints: 
                CA:FALSE
            Netscape Comment: 
                VPN User Certificate
            Netscape Cert Type: 
                SSL Client
            X509v3 Key Usage: 
                Digital Signature
            X509v3 Extended Key Usage: 
                TLS Web Client Authentication
            X509v3 Subject Key Identifier: 
                D9:18:86:C4:41:85:95:2D:00:F3:6D:47:B9:A2:97:FD:F9:5E:68:30
            X509v3 Authority Key Identifier: 
                keyid:86:4F:B8:6D:18:2A:1B:3C:8F:27:34:29:F0:81:9F:BA:6E:61:0E:E1
                DirName:/C=CH/ST=Zug/L=Zug/O=Perfect Privacy/CN=Perfect Privacy/emailAddress=admin@perfect-privacy.com
                serial:FA:11:B5:C4:AA:69:AF:69

    Signature Algorithm: sha512WithRSAEncryption
         11:a8:65:3d:40:54:fd:4a:d5:7a:85:89:9f:33:b1:7b:0c:cd:
         53:b8:5a:15:be:a7:6b:11:93:5d:d3:d0:2b:06:98:6f:92:8e:
         9f:65:e9:31:3f:98:e0:3f:31:e6:4f:1d:9e:5e:eb:48:c8:9d:
         65:28:4d:fa:f2:0b:0f:cc:2f:07:41:89:1e:99:dc:85:60:9a:
         bb:1c:42:ae:d7:c5:f2:53:0b:0a:b1:74:67:a5:65:26:6d:7e:
         88:bc:1a:a4:b7:97:80:1a:3a:07:79:48:ce:4c:9a:f3:ac:7d:
         7c:4c:af:3b:ee:81:68:97:c0:bb:19:ee:b0:66:0b:46:e4:32:
         63:d0:ed:46:ac:ac:3c:f9:06:3a:0a:06:0a:de:29:75:7f:ae:
         45:99:40:2f:73:32:1c:ae:a2:f3:22:fa:6b:3d:77:fc:d8:dc:
         bc:3d:7b:6e:b1:22:e1:7d:36:76:73:a7:d5:98:6d:ce:22:35:
         2a:c0:3b:14:ee:55:3a:71:8d:37:1a:f0:01:b5:45:02:6c:cc:
         19:71:48:2a:9b:11:42:8d:db:c7:c1:f4:d9:90:66:a8:a7:77:
         d2:a7:64:b3:74:ab:83:0c:4a:86:fc:0b:e8:1b:8b:02:9f:83:
         14:8f:b2:bb:93:c6:b1:33:9c:c7:9c:a8:59:9a:f4:b5:55:75:
         fa:ba:38:99:6c:cd:40:90:b7:01:8f:45:ae:de:18:83:80:09:
         98:c0:27:35:85:6f:8d:7c:a8:03:ce:87:5d:39:ad:aa:9e:1b:
         a7:46:29:28:91:1a:3c:83:2f:51:d0:aa:c1:23:2f:7a:4c:51:
         a5:88:40:e4:3d:3a:8a:59:d8:17:47:a3:20:e0:88:d1:ee:08:
         22:2e:b2:f7:8e:8b:4e:9b:b8:8c:74:27:57:58:94:b7:87:b3:
         1c:da:b8:c9:91:c2:46:9b:79:d6:4b:d2:0b:93:90:e0:88:4f:
         f4:d7:24:89:01:f7:f6:f1:10:0d:9d:6d:1a:7c:35:a4:b1:51:
         a5:eb:ff:3a:70:22:9c:55:62:de:db:8c:9c:b9:c2:5c:31:9f:
         3a:98:32:b7:62:d2:24:8f:d8:c3:6b:6d:f0:0d:ed:b9:71:28:
         b5:4e:a2:16:75:84:8c:80:5b:22:10:93:ce:e8:5d:61:6b:ca:
         3b:ad:43:7b:06:35:61:25:eb:d6:08:73:c6:47:53:b7:88:b5:
         bb:10:d5:35:56:c6:46:7d:05:74:94:05:5d:e9:3a:29:ab:0c:
         b2:51:d5:05:e6:a8:57:b9:7f:01:c1:e4:94:da:d5:85:14:72:
         bf:dc:61:8e:71:70:37:59:40:f9:24:ee:76:ac:fd:40:6b:66:
         01:59:85:b2:79:8d:99:7d
-----BEGIN CERTIFICATE-----
MIIG3zCCBMegAwIBAgIIHwtXaACmFoMwDQYJKoZIhvcNAQENBQAwgYcxCzAJBgNV
BAYTAkNIMQwwCgYDVQQIEwNadWcxDDAKBgNVBAcTA1p1ZzEYMBYGA1UEChMPUGVy
ZmVjdCBQcml2YWN5MRgwFgYDVQQDEw9QZXJmZWN0IFByaXZhY3kxKDAmBgkqhkiG
9w0BCQEWGWFkbWluQHBlcmZlY3QtcHJpdmFjeS5jb20wHhcNMjMwMzA2MDAwMDAw
WhcNMjQxMDMxMDAwMDAwWjCBizELMAkGA1UEBhMCQ0gxDDAKBgNVBAgTA1p1ZzEY
MBYGA1UEChMPUGVyZmVjdCBQcml2YWN5MSowKAYDVQQDFCFDbGllbnRfbWFkcmlk
LnBlcmZlY3QtcHJpdmFjeS5jb20xKDAmBgkqhkiG9w0BCQEWGWFkbWluQHBlcmZl
Y3QtcHJpdmFjeS5jb20wggIiMA0GCSqGSIb3DQEBAQUAA4ICDwAwggIKAoICAQDA
l3kRoOvVXTJvaKc/WT0VN5YGPv+SSmoD2TbfJkEuwg6mUYThQNsBkkF50iyzAuFI
SNm8gdA2wveCH3J1lttbodC7Oo9rvM2OXQJfJTrxbh8fI5loFAdOG1rmvdLKElcD
E31gsBfETF7NptGBxjp8VukCpiMI8i01PA+I9sbSE2lE9rjTYB1a4QDiyLsKzAEf
s+aD29CF/H5eeSO1oBx/ob0go50p/UZ/GOf2iTwfQUFzf0071fNy1+iIlpoCD2Ab
2Fv8rwClK9O7yQ0MeTJLdvxhFL4JugUXc5uF4DxNSNzb6gkoG9LBSTySZoiAFDLh
eixGBI2tXysR0ii37ng2FFrJrzDXnEueSFhlSCDBXOTSyjJSjhElG3KfKD8uLfQS
YSJRKc6rjMIS220AB1FO92LW5o5IaduCuDq+AOygfzEHg0Iy6Yi51vvDo0UDnggu
51j0dBAcOdXGdkRceH09aXAxYt3BepdH168m881IByvWozmECa4GU1/fNJ01AfuT
bX4AU5dRIaKzunbFmDPLLPftKdOvF5nPdknvtccc0GxEzCv/ldSDqj+maFhO6JhY
w0A4Hg8Jkmc5cGPP9xsujVe/e1jbbjcPnbAAnBnX2xhixxIjWXnLWiHQap0YRgAr
bpfeNzmwTC8PPbOFOJuv2kkTbcqT17wD0Nj+iZJtJwIDAQABo4IBRzCCAUMwCQYD
VR0TBAIwADAjBglghkgBhvhCAQ0EFhYUVlBOIFVzZXIgQ2VydGlmaWNhdGUwEQYJ
YIZIAYb4QgEBBAQDAgeAMAsGA1UdDwQEAwIHgDATBgNVHSUEDDAKBggrBgEFBQcD
AjAdBgNVHQ4EFgQU2RiGxEGFlS0A821HuaKX/fleaDAwgbwGA1UdIwSBtDCBsYAU
hk+4bRgqGzyPJzQp8IGfum5hDuGhgY2kgYowgYcxCzAJBgNVBAYTAkNIMQwwCgYD
VQQIEwNadWcxDDAKBgNVBAcTA1p1ZzEYMBYGA1UEChMPUGVyZmVjdCBQcml2YWN5
MRgwFgYDVQQDEw9QZXJmZWN0IFByaXZhY3kxKDAmBgkqhkiG9w0BCQEWGWFkbWlu
QHBlcmZlY3QtcHJpdmFjeS5jb22CCQD6EbXEqmmvaTANBgkqhkiG9w0BAQ0FAAOC
AgEAEahlPUBU/UrVeoWJnzOxewzNU7haFb6naxGTXdPQKwaYb5KOn2XpMT+Y4D8x
5k8dnl7rSMidZShN+vILD8wvB0GJHpnchWCauxxCrtfF8lMLCrF0Z6VlJm1+iLwa
pLeXgBo6B3lIzkya86x9fEyvO+6BaJfAuxnusGYLRuQyY9DtRqysPPkGOgoGCt4p
dX+uRZlAL3MyHK6i8yL6az13/NjcvD17brEi4X02dnOn1ZhtziI1KsA7FO5VOnGN
NxrwAbVFAmzMGXFIKpsRQo3bx8H02ZBmqKd30qdks3SrgwxKhvwL6BuLAp+DFI+y
u5PGsTOcx5yoWZr0tVV1+ro4mWzNQJC3AY9Frt4Yg4AJmMAnNYVvjXyoA86HXTmt
qp4bp0YpKJEaPIMvUdCqwSMvekxRpYhA5D06ilnYF0ejIOCI0e4IIi6y946LTpu4
jHQnV1iUt4ezHNq4yZHCRpt51kvSC5OQ4IhP9NckiQH39vEQDZ1tGnw1pLFRpev/
OnAinFVi3tuMnLnCXDGfOpgyt2LSJI/Yw2tt8A3tuXEotU6iFnWEjIBbIhCTzuhd
YWvKO61DewY1YSXr1ghzxkdTt4i1uxDVNVbGRn0FdJQFXek6KasMslHVBeaoV7l/
AcHklNrVhRRyv9xhjnFwN1lA+STudqz9QGtmAVmFsnmNmX0=
-----END CERTIFICATE-----
