Certificate:
    Data:
        Version: 3 (0x2)
        Serial Number: 6928717707293918913 (0x6027c00b7c3686c1)
    Signature Algorithm: sha512WithRSAEncryption
        Issuer: C=CH, ST=Zug, L=Zug, O=Perfect Privacy, CN=Perfect Privacy/emailAddress=admin@perfect-privacy.com
        Validity
            Not Before: Jun 26 00:00:00 2024 GMT
            Not After : Feb 21 00:00:00 2026 GMT
        Subject: C=CH, ST=Zug, O=Perfect Privacy, CN=Client_montreal.perfect-privacy.com/emailAddress=admin@perfect-privacy.com
        Subject Public Key Info:
            Public Key Algorithm: rsaEncryption
                Public-Key: (4096 bit)
                Modulus:
                    00:c0:33:28:eb:aa:69:5f:92:32:f9:69:84:d0:21:
                    4d:02:98:3c:cf:92:f0:f5:86:7a:16:43:cb:ca:e5:
                    43:65:f2:7c:fb:a2:a1:ad:c0:55:0d:fa:ed:15:72:
                    26:bd:53:ab:ef:6a:c4:fc:84:2c:0b:f3:94:8a:df:
                    a1:9b:0a:56:05:02:06:db:bb:d8:98:66:ab:d2:54:
                    89:18:05:0a:aa:6a:88:dd:8f:d8:f1:a5:68:8c:1f:
                    bb:14:a2:d3:ef:a6:57:51:2e:58:04:f2:20:bc:b6:
                    e1:57:5e:c8:24:24:c1:04:be:a6:cc:5f:5f:b9:ff:
                    d7:2a:6b:19:02:86:41:ed:96:be:58:58:6f:55:6c:
                    6b:af:94:65:01:7f:d2:5b:3c:71:61:23:61:75:b6:
                    57:38:34:49:0f:da:56:61:2f:6f:c7:b9:0f:e0:31:
                    10:e7:49:41:0f:ba:1e:46:65:a7:4c:fd:9f:73:ad:
                    5b:c2:1f:f6:00:c6:1f:9c:67:93:97:31:b6:2f:a0:
                    83:0e:73:db:b2:f7:85:6c:1b:3f:a7:81:66:83:2e:
                    dc:e6:ef:3e:cb:a6:98:9e:3f:f4:28:48:de:0d:36:
                    65:6a:ca:ef:ad:b3:a8:66:7a:ad:4e:fc:fb:0c:b8:
                    2d:6f:bf:1f:d2:a9:f2:cc:c4:ac:39:cb:e8:2b:31:
                    97:2f:b8:91:bb:6f:24:d8:81:c8:6f:a2:4d:c1:0c:
                    52:82:06:d0:02:fd:28:30:40:bb:db:c4:04:08:1a:
                    cb:34:75:19:78:16:73:32:65:ee:06:3d:33:63:e1:
                    da:75:e1:2d:f6:dc:f5:be:d1:92:d0:87:a5:86:f8:
                    8b:1b:18:8e:5b:8b:30:82:0b:e7:9e:5d:bd:a8:63:
                    28:a7:d8:fe:b8:78:fc:ef:b3:b6:44:6e:a0:d5:f2:
                    d8:99:c8:cd:8c:cd:89:65:93:a2:e2:ec:8c:c3:7e:
                    0e:36:51:4d:d5:a8:65:0f:88:5d:9e:92:91:13:ce:
                    00:e9:1d:86:f5:bc:b3:73:27:28:86:6d:03:11:ad:
                    62:4e:7f:2a:3f:36:dc:80:17:34:59:b0:ea:26:31:
                    cc:c3:95:19:30:33:69:7f:b2:60:22:1f:89:72:f2:
                    f2:76:5a:f5:e2:8f:9e:13:82:39:02:91:98:8b:06:
                    b7:ed:88:99:31:a5:bc:96:d7:09:3a:87:40:17:c9:
                    bf:6d:a8:cb:20:a0:cf:12:cf:c5:c7:fa:1c:cd:da:
                    83:1c:34:74:f0:b6:ba:aa:93:c3:30:17:68:dd:d3:
                    e8:0f:f8:d7:9f:9a:e2:8d:cc:b4:e1:70:e5:27:f0:
                    3d:e4:2c:b4:46:8b:dd:67:5e:d2:1e:16:4a:bb:65:
                    9e:7d:a5
                Exponent: 65537 (0x10001)
        X509v3 extensions:
            X509v3 Basic Constraints: 
                CA:FALSE
            Netscape Comment: 
                VPN User Certificate
            Netscape Cert Type: 
                SSL Client
            X509v3 Key Usage: 
                Digital Signature
            X509v3 Extended Key Usage: 
                TLS Web Client Authentication
            X509v3 Subject Key Identifier: 
                17:A4:B1:70:D2:AA:DF:52:1E:E7:8D:34:FD:A6:55:E2:5D:F0:1A:CC
            X509v3 Authority Key Identifier: 
                keyid:86:4F:B8:6D:18:2A:1B:3C:8F:27:34:29:F0:81:9F:BA:6E:61:0E:E1
                DirName:/C=CH/ST=Zug/L=Zug/O=Perfect Privacy/CN=Perfect Privacy/emailAddress=admin@perfect-privacy.com
                serial:FA:11:B5:C4:AA:69:AF:69

    Signature Algorithm: sha512WithRSAEncryption
         a1:ea:ba:f9:2d:04:e8:06:fc:1e:b7:28:34:5b:b6:6a:06:61:
         fb:e1:3b:cd:69:f0:eb:3c:88:a0:c6:4a:46:b4:13:7a:34:a5:
         5e:72:3f:77:7d:5e:7a:f1:1c:19:ef:14:98:35:19:4e:6b:ce:
         09:8b:e9:ff:f8:5e:5c:a4:a2:8f:d0:6f:97:be:b2:5b:b5:35:
         a6:e1:9e:6c:c7:40:a4:a1:ae:1c:6c:bd:fe:08:51:7b:26:6c:
         8e:13:76:df:a3:46:29:b8:2f:3f:18:c2:63:fa:19:1a:4a:74:
         95:5c:85:ec:10:94:6c:f5:d9:25:cc:c2:12:ee:74:0f:90:9f:
         00:62:d5:a8:a4:13:64:f1:ae:ef:96:77:b7:e4:90:5f:f2:bc:
         cb:ac:9a:da:09:f0:45:e1:76:67:be:80:7a:53:13:ea:f3:a4:
         93:a5:ef:3c:9a:1f:2b:c3:02:b8:1e:04:5d:b4:b3:2a:af:1c:
         a7:49:4c:2e:bf:aa:a5:32:59:76:0c:d8:f2:59:13:0b:7b:05:
         d0:2b:64:5c:7f:8a:19:6a:da:d8:d1:2c:e1:e0:5b:a4:61:83:
         80:08:7b:c3:4f:fc:50:f2:5a:17:ac:75:76:ec:06:fb:88:94:
         a0:f7:f8:ec:53:c6:ea:99:d4:35:ae:02:88:df:ac:01:85:1a:
         9f:30:6c:0f:9f:a8:bd:93:04:98:44:34:bd:d6:6b:dc:4c:35:
         e6:0f:7b:ab:13:50:ba:12:bb:6a:2c:2a:91:86:b2:8b:50:b8:
         af:e7:92:eb:62:55:14:dc:fa:da:c0:78:62:10:b8:fb:17:a0:
         e3:f5:5a:3d:d4:79:b9:af:06:2b:0e:e5:21:03:98:d9:7a:9c:
         c5:e7:66:8a:30:a9:2e:2f:76:62:44:5a:40:9c:04:73:c4:06:
         7e:bd:c8:58:10:9d:df:a5:66:43:fd:9e:a7:5c:39:7e:62:3b:
         b9:c8:84:4c:bf:a9:24:88:4d:f9:58:52:15:a7:a5:f3:e2:90:
         2b:93:9f:d6:f4:a8:af:73:73:24:b4:86:06:12:7a:10:2b:7f:
         be:62:46:c5:13:df:36:49:c4:2d:cb:2a:7c:32:eb:86:c9:6b:
         0d:64:a2:2f:3a:64:19:f8:90:0a:ee:ec:f2:b1:76:f4:69:02:
         8c:4b:40:95:33:73:ee:4c:5a:a6:cc:22:a6:90:cf:90:38:f1:
         bc:a3:11:bd:94:67:27:32:4e:59:d7:61:91:f6:f0:f6:d9:7d:
         f4:94:41:5d:b2:7f:ec:f1:66:09:5b:ab:33:38:1b:41:79:6d:
         bf:a7:db:34:de:69:e0:b9:6f:37:b7:8a:43:07:25:26:24:3b:
         84:4c:56:f5:12:a3:22:f5
-----BEGIN CERTIFICATE-----
MIIG4TCCBMmgAwIBAgIIYCfAC3w2hsEwDQYJKoZIhvcNAQENBQAwgYcxCzAJBgNV
BAYTAkNIMQwwCgYDVQQIEwNadWcxDDAKBgNVBAcTA1p1ZzEYMBYGA1UEChMPUGVy
ZmVjdCBQcml2YWN5MRgwFgYDVQQDEw9QZXJmZWN0IFByaXZhY3kxKDAmBgkqhkiG
9w0BCQEWGWFkbWluQHBlcmZlY3QtcHJpdmFjeS5jb20wHhcNMjQwNjI2MDAwMDAw
WhcNMjYwMjIxMDAwMDAwWjCBjTELMAkGA1UEBhMCQ0gxDDAKBgNVBAgTA1p1ZzEY
MBYGA1UEChMPUGVyZmVjdCBQcml2YWN5MSwwKgYDVQQDFCNDbGllbnRfbW9udHJl
YWwucGVyZmVjdC1wcml2YWN5LmNvbTEoMCYGCSqGSIb3DQEJARYZYWRtaW5AcGVy
ZmVjdC1wcml2YWN5LmNvbTCCAiIwDQYJKoZIhvcNAQEBBQADggIPADCCAgoCggIB
AMAzKOuqaV+SMvlphNAhTQKYPM+S8PWGehZDy8rlQ2XyfPuioa3AVQ367RVyJr1T
q+9qxPyELAvzlIrfoZsKVgUCBtu72Jhmq9JUiRgFCqpqiN2P2PGlaIwfuxSi0++m
V1EuWATyILy24VdeyCQkwQS+psxfX7n/1yprGQKGQe2WvlhYb1Vsa6+UZQF/0ls8
cWEjYXW2Vzg0SQ/aVmEvb8e5D+AxEOdJQQ+6HkZlp0z9n3OtW8If9gDGH5xnk5cx
ti+ggw5z27L3hWwbP6eBZoMu3ObvPsummJ4/9ChI3g02ZWrK762zqGZ6rU78+wy4
LW+/H9Kp8szErDnL6Csxly+4kbtvJNiByG+iTcEMUoIG0AL9KDBAu9vEBAgayzR1
GXgWczJl7gY9M2Ph2nXhLfbc9b7RktCHpYb4ixsYjluLMIIL555dvahjKKfY/rh4
/O+ztkRuoNXy2JnIzYzNiWWTouLsjMN+DjZRTdWoZQ+IXZ6SkRPOAOkdhvW8s3Mn
KIZtAxGtYk5/Kj823IAXNFmw6iYxzMOVGTAzaX+yYCIfiXLy8nZa9eKPnhOCOQKR
mIsGt+2ImTGlvJbXCTqHQBfJv22oyyCgzxLPxcf6HM3agxw0dPC2uqqTwzAXaN3T
6A/415+a4o3MtOFw5SfwPeQstEaL3Wde0h4WSrtlnn2lAgMBAAGjggFHMIIBQzAJ
BgNVHRMEAjAAMCMGCWCGSAGG+EIBDQQWFhRWUE4gVXNlciBDZXJ0aWZpY2F0ZTAR
BglghkgBhvhCAQEEBAMCB4AwCwYDVR0PBAQDAgeAMBMGA1UdJQQMMAoGCCsGAQUF
BwMCMB0GA1UdDgQWBBQXpLFw0qrfUh7njTT9plXiXfAazDCBvAYDVR0jBIG0MIGx
gBSGT7htGCobPI8nNCnwgZ+6bmEO4aGBjaSBijCBhzELMAkGA1UEBhMCQ0gxDDAK
BgNVBAgTA1p1ZzEMMAoGA1UEBxMDWnVnMRgwFgYDVQQKEw9QZXJmZWN0IFByaXZh
Y3kxGDAWBgNVBAMTD1BlcmZlY3QgUHJpdmFjeTEoMCYGCSqGSIb3DQEJARYZYWRt
aW5AcGVyZmVjdC1wcml2YWN5LmNvbYIJAPoRtcSqaa9pMA0GCSqGSIb3DQEBDQUA
A4ICAQCh6rr5LQToBvwetyg0W7ZqBmH74TvNafDrPIigxkpGtBN6NKVecj93fV56
8RwZ7xSYNRlOa84Ji+n/+F5cpKKP0G+XvrJbtTWm4Z5sx0Ckoa4cbL3+CFF7JmyO
E3bfo0YpuC8/GMJj+hkaSnSVXIXsEJRs9dklzMIS7nQPkJ8AYtWopBNk8a7vlne3
5JBf8rzLrJraCfBF4XZnvoB6UxPq86STpe88mh8rwwK4HgRdtLMqrxynSUwuv6ql
Mll2DNjyWRMLewXQK2Rcf4oZatrY0Szh4FukYYOACHvDT/xQ8loXrHV27Ab7iJSg
9/jsU8bqmdQ1rgKI36wBhRqfMGwPn6i9kwSYRDS91mvcTDXmD3urE1C6ErtqLCqR
hrKLULiv55LrYlUU3PrawHhiELj7F6Dj9Vo91Hm5rwYrDuUhA5jZepzF52aKMKku
L3ZiRFpAnARzxAZ+vchYEJ3fpWZD/Z6nXDl+Yju5yIRMv6kkiE35WFIVp6Xz4pAr
k5/W9Kivc3MktIYGEnoQK3++YkbFE982ScQtyyp8MuuGyWsNZKIvOmQZ+JAK7uzy
sXb0aQKMS0CVM3PuTFqmzCKmkM+QOPG8oxG9lGcnMk5Z12GR9vD22X30lEFdsn/s
8WYJW6szOBtBeW2/p9s03mnguW83t4pDByUmJDuETFb1EqMi9Q==
-----END CERTIFICATE-----
