Certificate:
    Data:
        Version: 3 (0x2)
        Serial Number:
            d3:d1:20:74:e8:6d:ee:7f
    Signature Algorithm: sha512WithRSAEncryption
        Issuer: C=CH, ST=Zug, L=Zug, O=Perfect Privacy, CN=Perfect Privacy/emailAddress=admin@perfect-privacy.com
        Validity
            Not Before: Feb 16 00:00:00 2023 GMT
            Not After : Oct 13 00:00:00 2024 GMT
        Subject: C=CH, ST=Zug, O=Perfect Privacy, CN=Client_miami.perfect-privacy.com/emailAddress=admin@perfect-privacy.com
        Subject Public Key Info:
            Public Key Algorithm: rsaEncryption
                Public-Key: (4096 bit)
                Modulus:
                    00:d2:8c:68:22:91:c7:b8:ea:43:9a:a8:98:7d:9f:
                    22:1e:bb:ea:dc:7e:f6:e2:08:e9:45:3f:64:1b:f5:
                    65:c2:2d:65:77:d4:ea:b3:09:7e:81:d2:0a:d7:9b:
                    bb:61:05:4d:50:53:b1:bf:2f:78:c5:73:65:6b:88:
                    b3:0a:1e:7d:cf:c8:66:e4:02:f7:b9:d1:f8:9f:a6:
                    be:f4:66:e9:c7:e6:24:61:f8:e6:8a:78:2c:5b:96:
                    77:9d:ba:40:c9:c1:0f:d1:74:b2:39:15:d7:e5:44:
                    9f:30:98:8c:71:bc:5f:30:0e:21:db:2e:72:6d:5d:
                    56:cc:55:24:e5:ea:e5:1d:5c:84:e9:13:7b:07:fc:
                    bc:84:60:95:82:35:11:ba:cf:06:c3:d5:3f:41:36:
                    94:b2:88:3b:3e:2c:76:72:30:55:d8:34:60:f6:88:
                    ab:1d:59:17:9b:37:4f:34:20:b8:8f:16:34:da:87:
                    38:29:73:7c:81:de:bd:71:93:93:0c:d0:30:fd:07:
                    86:75:c4:41:65:9c:ae:fa:0c:87:a1:44:71:c6:68:
                    c2:ec:e6:a8:28:ee:7c:01:f4:67:d3:53:39:49:e9:
                    55:b1:c2:2d:c4:84:b4:42:d5:de:ee:06:43:19:cf:
                    65:07:40:82:a8:87:1b:d5:8d:ec:c0:4e:e6:cb:7d:
                    75:0c:1c:f3:12:25:86:4c:4c:1c:bf:1a:fa:5d:41:
                    fe:32:8f:de:83:2b:01:33:d2:37:79:fe:66:a1:e4:
                    a3:6e:8b:c9:7f:18:c3:22:b1:25:26:54:f2:4b:6b:
                    59:03:82:cd:b3:b0:72:5f:67:f9:e8:63:ab:3f:5a:
                    00:b3:5d:be:f5:27:d4:42:c7:10:35:0a:30:2c:f7:
                    dc:7e:f1:4e:f6:52:45:50:34:13:43:78:f8:88:a8:
                    5f:16:0c:6b:29:1f:de:2e:49:a5:3e:d3:1b:e8:b4:
                    6f:54:7f:03:b7:74:ba:cb:5b:82:d6:1d:81:45:00:
                    45:53:0f:28:ee:f1:9d:a9:1a:e5:31:a7:3e:bc:80:
                    9b:17:ed:b8:7d:a4:01:ba:4a:c0:8f:27:9e:2c:e3:
                    bf:ba:27:52:d9:27:5c:dd:be:c7:1e:6d:bd:d6:b9:
                    17:19:0e:58:ae:c9:c2:c3:16:34:ea:67:4f:5d:5c:
                    2d:11:f8:13:9f:d5:2a:5a:c9:b7:1b:e8:6d:d3:b1:
                    a4:3b:5d:0f:45:95:5c:3a:a5:68:84:d7:17:76:a0:
                    60:7a:85:61:9d:9e:5c:f1:13:cc:12:11:25:fb:45:
                    e7:2d:fb:57:bb:94:24:73:b9:a3:ad:be:07:e6:fe:
                    dc:53:2f:48:f7:fa:b8:d9:0c:d5:6c:4a:55:cf:dd:
                    9e:b2:e7
                Exponent: 65537 (0x10001)
        X509v3 extensions:
            X509v3 Basic Constraints: 
                CA:FALSE
            Netscape Comment: 
                VPN User Certificate
            Netscape Cert Type: 
                SSL Client
            X509v3 Key Usage: 
                Digital Signature
            X509v3 Extended Key Usage: 
                TLS Web Client Authentication
            X509v3 Subject Key Identifier: 
                3E:23:1B:B4:C5:BB:66:E1:BE:54:0A:B0:91:3A:AF:2D:0A:16:8A:09
            X509v3 Authority Key Identifier: 
                keyid:86:4F:B8:6D:18:2A:1B:3C:8F:27:34:29:F0:81:9F:BA:6E:61:0E:E1
                DirName:/C=CH/ST=Zug/L=Zug/O=Perfect Privacy/CN=Perfect Privacy/emailAddress=admin@perfect-privacy.com
                serial:FA:11:B5:C4:AA:69:AF:69

    Signature Algorithm: sha512WithRSAEncryption
         29:c3:8f:41:08:e6:91:a4:2e:33:f2:a0:c2:50:59:c7:3f:08:
         f0:89:a6:de:54:8c:98:9f:be:83:8b:2c:f3:ed:bf:f8:0d:c0:
         71:ae:1b:fb:1f:c0:ed:a8:21:9c:8c:f6:ca:aa:1b:27:57:26:
         16:7f:17:0c:9b:26:82:97:64:c6:92:5a:5d:88:af:10:1f:6f:
         0f:66:bb:4a:ce:9a:a3:1e:80:88:2a:2b:8d:61:7b:b8:56:a0:
         94:96:68:eb:78:67:8e:ec:cd:3b:07:de:e1:c0:26:7a:1a:a0:
         7a:87:76:d8:a2:33:57:43:5b:96:f3:76:cc:d4:d5:da:27:9c:
         cb:25:e8:33:9b:3b:e9:b5:8e:83:a6:ae:c6:5d:1f:89:d2:80:
         e0:60:00:c5:fc:ad:b1:70:e5:0a:50:84:f8:aa:e6:ef:8e:c1:
         e3:1d:62:6a:db:25:e5:2a:6b:f9:c0:97:89:75:e5:c8:e4:b1:
         ab:b4:f9:22:7c:3e:96:e2:1b:72:b0:81:33:15:9d:a9:00:47:
         45:b9:d1:ba:19:78:24:c1:7d:00:c8:31:07:f5:63:1a:b1:aa:
         53:ca:f0:9e:54:42:3e:a9:be:b6:d2:50:38:e0:dc:72:ef:5c:
         12:4c:81:de:7f:7a:30:f6:c0:f4:e0:93:0e:76:71:4a:12:44:
         7b:df:23:9b:19:48:ec:f4:ad:0e:a0:ae:a5:46:1c:cb:8b:32:
         c8:0e:24:9d:45:e8:2d:34:50:42:d1:68:f4:e5:34:f7:ec:eb:
         6b:8e:bc:ca:b2:1f:f7:77:3a:13:0e:77:67:f3:39:1b:cd:17:
         94:ff:3f:81:6a:5b:c2:53:c8:c3:8a:ed:6e:25:31:86:53:43:
         34:70:55:40:2f:6b:13:6a:0b:21:2b:ef:91:c6:f6:35:74:c4:
         a5:d7:e4:fc:3b:6e:ed:62:de:72:d2:6d:d9:5a:f8:d4:b4:af:
         67:67:8c:fc:dc:c8:e2:76:d0:29:b1:ed:f9:72:ec:a9:9d:76:
         83:ab:6b:ba:38:e6:dd:87:c3:b8:f7:2e:36:2d:3e:06:42:6a:
         ea:54:b5:81:4c:f7:11:da:4f:ba:57:db:7b:6f:a9:40:29:f7:
         e8:7e:63:b9:61:cd:c7:e3:45:06:8c:d6:3e:40:d5:42:45:d4:
         d4:a0:f5:dd:a6:07:5b:08:e7:6f:af:0d:09:eb:18:45:6e:51:
         79:86:34:ef:13:09:60:cc:b1:dc:11:8e:37:57:a2:63:41:79:
         21:66:9e:f3:da:76:30:0e:c8:fa:10:92:fd:5c:1f:bb:64:f5:
         75:ea:3f:ae:ae:4a:7d:0e:87:d5:64:af:3e:d0:da:a9:b8:77:
         18:08:f2:68:d3:28:7b:c4
-----BEGIN CERTIFICATE-----
MIIG3zCCBMegAwIBAgIJANPRIHTobe5/MA0GCSqGSIb3DQEBDQUAMIGHMQswCQYD
VQQGEwJDSDEMMAoGA1UECBMDWnVnMQwwCgYDVQQHEwNadWcxGDAWBgNVBAoTD1Bl
cmZlY3QgUHJpdmFjeTEYMBYGA1UEAxMPUGVyZmVjdCBQcml2YWN5MSgwJgYJKoZI
hvcNAQkBFhlhZG1pbkBwZXJmZWN0LXByaXZhY3kuY29tMB4XDTIzMDIxNjAwMDAw
MFoXDTI0MTAxMzAwMDAwMFowgYoxCzAJBgNVBAYTAkNIMQwwCgYDVQQIEwNadWcx
GDAWBgNVBAoTD1BlcmZlY3QgUHJpdmFjeTEpMCcGA1UEAxQgQ2xpZW50X21pYW1p
LnBlcmZlY3QtcHJpdmFjeS5jb20xKDAmBgkqhkiG9w0BCQEWGWFkbWluQHBlcmZl
Y3QtcHJpdmFjeS5jb20wggIiMA0GCSqGSIb3DQEBAQUAA4ICDwAwggIKAoICAQDS
jGgikce46kOaqJh9nyIeu+rcfvbiCOlFP2Qb9WXCLWV31OqzCX6B0grXm7thBU1Q
U7G/L3jFc2VriLMKHn3PyGbkAve50fifpr70ZunH5iRh+OaKeCxblnedukDJwQ/R
dLI5FdflRJ8wmIxxvF8wDiHbLnJtXVbMVSTl6uUdXITpE3sH/LyEYJWCNRG6zwbD
1T9BNpSyiDs+LHZyMFXYNGD2iKsdWRebN080ILiPFjTahzgpc3yB3r1xk5MM0DD9
B4Z1xEFlnK76DIehRHHGaMLs5qgo7nwB9GfTUzlJ6VWxwi3EhLRC1d7uBkMZz2UH
QIKohxvVjezATubLfXUMHPMSJYZMTBy/GvpdQf4yj96DKwEz0jd5/mah5KNui8l/
GMMisSUmVPJLa1kDgs2zsHJfZ/noY6s/WgCzXb71J9RCxxA1CjAs99x+8U72UkVQ
NBNDePiIqF8WDGspH94uSaU+0xvotG9UfwO3dLrLW4LWHYFFAEVTDyju8Z2pGuUx
pz68gJsX7bh9pAG6SsCPJ54s47+6J1LZJ1zdvscebb3WuRcZDliuycLDFjTqZ09d
XC0R+BOf1Spaybcb6G3TsaQ7XQ9FlVw6pWiE1xd2oGB6hWGdnlzxE8wSESX7Rect
+1e7lCRzuaOtvgfm/txTL0j3+rjZDNVsSlXP3Z6y5wIDAQABo4IBRzCCAUMwCQYD
VR0TBAIwADAjBglghkgBhvhCAQ0EFhYUVlBOIFVzZXIgQ2VydGlmaWNhdGUwEQYJ
YIZIAYb4QgEBBAQDAgeAMAsGA1UdDwQEAwIHgDATBgNVHSUEDDAKBggrBgEFBQcD
AjAdBgNVHQ4EFgQUPiMbtMW7ZuG+VAqwkTqvLQoWigkwgbwGA1UdIwSBtDCBsYAU
hk+4bRgqGzyPJzQp8IGfum5hDuGhgY2kgYowgYcxCzAJBgNVBAYTAkNIMQwwCgYD
VQQIEwNadWcxDDAKBgNVBAcTA1p1ZzEYMBYGA1UEChMPUGVyZmVjdCBQcml2YWN5
MRgwFgYDVQQDEw9QZXJmZWN0IFByaXZhY3kxKDAmBgkqhkiG9w0BCQEWGWFkbWlu
QHBlcmZlY3QtcHJpdmFjeS5jb22CCQD6EbXEqmmvaTANBgkqhkiG9w0BAQ0FAAOC
AgEAKcOPQQjmkaQuM/KgwlBZxz8I8Imm3lSMmJ++g4ss8+2/+A3Aca4b+x/A7agh
nIz2yqobJ1cmFn8XDJsmgpdkxpJaXYivEB9vD2a7Ss6aox6AiCorjWF7uFaglJZo
63hnjuzNOwfe4cAmehqgeod22KIzV0NblvN2zNTV2iecyyXoM5s76bWOg6auxl0f
idKA4GAAxfytsXDlClCE+Krm747B4x1iatsl5Spr+cCXiXXlyOSxq7T5Inw+luIb
crCBMxWdqQBHRbnRuhl4JMF9AMgxB/VjGrGqU8rwnlRCPqm+ttJQOODccu9cEkyB
3n96MPbA9OCTDnZxShJEe98jmxlI7PStDqCupUYcy4syyA4knUXoLTRQQtFo9OU0
9+zra468yrIf93c6Ew53Z/M5G80XlP8/gWpbwlPIw4rtbiUxhlNDNHBVQC9rE2oL
ISvvkcb2NXTEpdfk/Dtu7WLectJt2Vr41LSvZ2eM/NzI4nbQKbHt+XLsqZ12g6tr
ujjm3YfDuPcuNi0+BkJq6lS1gUz3EdpPulfbe2+pQCn36H5juWHNx+NFBozWPkDV
QkXU1KD13aYHWwjnb68NCesYRW5ReYY07xMJYMyx3BGON1eiY0F5IWae89p2MA7I
+hCS/Vwfu2T1deo/rq5KfQ6H1WSvPtDaqbh3GAjyaNMoe8Q=
-----END CERTIFICATE-----
