Certificate:
    Data:
        Version: 3 (0x2)
        Serial Number:
            9d:0e:ae:8b:77:91:1c:80
    Signature Algorithm: sha512WithRSAEncryption
        Issuer: C=CH, ST=Zug, L=Zug, O=Perfect Privacy, CN=Perfect Privacy/emailAddress=admin@perfect-privacy.com
        Validity
            Not Before: Feb 10 00:00:00 2023 GMT
            Not After : Oct  7 00:00:00 2024 GMT
        Subject: C=CH, ST=Zug, O=Perfect Privacy, CN=Client_moscow.perfect-privacy.com/emailAddress=admin@perfect-privacy.com
        Subject Public Key Info:
            Public Key Algorithm: rsaEncryption
                Public-Key: (4096 bit)
                Modulus:
                    00:cc:06:70:ea:1b:3f:32:78:0d:52:32:70:33:b5:
                    b5:70:0a:00:97:bc:8f:e9:6a:1c:9f:60:0b:00:72:
                    1e:df:c7:18:8c:a9:de:06:b2:2d:34:ef:4a:05:af:
                    b3:26:46:45:0b:7f:17:10:c5:13:b4:49:66:b2:d7:
                    15:3c:36:45:d4:0b:e5:98:8f:42:a2:90:95:c9:15:
                    60:d6:c8:9f:aa:7a:c6:93:14:a5:6c:4e:73:f7:89:
                    e5:91:25:21:44:29:1f:be:81:cc:ab:d9:33:f4:c7:
                    82:2d:3c:f8:82:8b:d6:a1:31:1a:1e:c4:cc:52:f4:
                    1d:99:24:bc:f2:5f:1c:c9:ef:90:25:00:05:d7:ea:
                    a1:06:76:9a:ec:96:d5:33:b3:58:ed:d9:60:bd:96:
                    ef:53:07:c8:79:1e:9a:70:c2:f5:32:f7:2d:c8:56:
                    b1:c0:19:8d:5b:5e:b1:d9:98:bd:ff:0e:d8:f9:f0:
                    0c:e1:8d:49:30:a9:3b:c8:17:1b:1b:57:dd:94:56:
                    19:23:e4:fa:c6:fc:51:0e:7b:c1:17:fd:9d:8c:79:
                    58:37:7f:a7:0a:ea:2a:5a:00:8d:ff:dd:55:2f:f5:
                    d6:61:46:25:12:a4:93:f3:e9:2e:89:36:c3:df:d7:
                    a5:78:38:a0:2f:57:00:c3:67:f0:e6:52:f6:ac:4e:
                    d5:bc:45:0c:44:d3:ee:6e:4b:66:4c:27:7f:67:a3:
                    bc:5d:33:76:a6:e6:f3:1e:24:50:f1:68:06:cc:54:
                    37:29:b6:c8:5e:af:11:76:e0:57:24:ed:c2:ba:1c:
                    f5:52:64:25:3e:ba:0d:be:22:4d:58:a3:ed:27:03:
                    85:e6:b3:07:d3:5e:a6:b3:ee:43:76:87:af:fd:b3:
                    68:01:33:83:79:98:80:c9:b0:54:78:7c:ab:a1:5a:
                    83:b8:79:b5:7c:e1:94:fa:37:ab:87:16:13:bc:40:
                    ba:57:eb:1d:4c:38:86:d3:db:11:6a:82:73:14:7f:
                    6e:df:13:5d:4f:53:47:e0:1b:f9:ff:4c:99:d5:27:
                    0e:3e:34:a0:45:88:ae:b1:28:87:7e:35:05:f3:ff:
                    04:bc:0c:8f:9b:fb:b5:bc:8d:3a:70:de:d5:c4:79:
                    45:d8:bb:63:38:b7:1b:e2:10:07:7d:a2:02:7e:3c:
                    cf:e0:05:08:a7:17:9a:d8:d5:24:ca:62:72:e1:09:
                    e1:5c:fa:fe:f9:a7:fe:71:c8:a5:33:8e:3f:15:69:
                    86:0f:ad:00:e2:03:70:65:47:57:5c:33:83:c8:ae:
                    fe:bc:59:ee:9c:95:32:bb:d5:0b:77:ca:ce:f2:7b:
                    3c:43:39:19:a9:98:52:af:34:1a:fa:6c:10:5b:e6:
                    bb:d5:53
                Exponent: 65537 (0x10001)
        X509v3 extensions:
            X509v3 Basic Constraints: 
                CA:FALSE
            Netscape Comment: 
                VPN User Certificate
            Netscape Cert Type: 
                SSL Client
            X509v3 Key Usage: 
                Digital Signature
            X509v3 Extended Key Usage: 
                TLS Web Client Authentication
            X509v3 Subject Key Identifier: 
                8A:9B:83:3E:65:8E:AA:E3:2A:1A:3E:3D:37:37:73:0B:08:5E:A2:CB
            X509v3 Authority Key Identifier: 
                keyid:86:4F:B8:6D:18:2A:1B:3C:8F:27:34:29:F0:81:9F:BA:6E:61:0E:E1
                DirName:/C=CH/ST=Zug/L=Zug/O=Perfect Privacy/CN=Perfect Privacy/emailAddress=admin@perfect-privacy.com
                serial:FA:11:B5:C4:AA:69:AF:69

    Signature Algorithm: sha512WithRSAEncryption
         2c:8c:a4:32:b1:0d:04:f7:d1:24:96:fc:85:2e:8e:28:47:82:
         a0:0c:1d:9e:c8:0d:6c:70:fa:51:7f:f7:39:19:ae:a2:89:77:
         eb:f5:f8:4b:40:25:41:ec:66:ab:7e:4e:12:49:48:7e:96:99:
         70:c5:1a:e2:53:c7:86:c6:da:42:66:07:2c:23:30:2e:65:ef:
         30:76:5a:a8:5e:fa:32:bc:98:3a:1f:37:8f:31:83:77:de:55:
         97:8a:dc:8b:ca:33:15:5b:1f:50:d6:8a:42:7b:f1:1e:39:f5:
         3a:33:89:ac:3a:fc:5f:11:03:44:56:ae:b0:40:24:41:fc:1c:
         ed:f6:b9:a9:98:16:d3:77:c2:bb:9a:04:ee:3a:6e:d8:8f:48:
         0f:b0:29:36:4b:a3:63:3b:5d:16:fe:07:66:0d:35:ae:45:47:
         e0:b5:44:c2:20:28:8c:bc:58:9b:91:fc:5c:7b:9e:9c:07:47:
         df:92:08:ff:1d:e4:ab:92:01:a8:ef:9b:89:34:ec:b6:9b:1a:
         16:54:b2:9a:2d:b8:64:83:a1:02:a8:cd:bc:41:d4:06:76:60:
         61:d8:9d:9b:8b:d7:5a:02:f0:a1:5e:a9:25:a5:00:f9:1f:c4:
         18:b3:8c:cd:da:3b:cb:73:4e:1d:81:85:c6:81:72:af:ac:ae:
         d2:e9:35:92:b2:04:08:c0:58:e6:56:9b:b0:03:2e:34:7f:ac:
         bf:0a:ec:dc:1e:4a:18:0f:fc:a3:7b:96:7e:19:c2:c9:1d:4d:
         53:11:3e:47:3b:0e:21:f3:56:67:01:cc:8e:cf:6a:d8:0c:89:
         fa:a7:31:28:a1:7a:1c:ec:14:57:4a:8f:7b:8c:f4:fb:c3:43:
         f3:1c:24:43:14:e0:d7:09:4e:76:41:8d:ba:c6:4a:ec:be:a6:
         32:6d:ff:54:03:bc:9a:b8:27:ac:a3:ae:8e:c0:65:da:70:1c:
         05:f7:0b:22:09:0e:6a:3c:be:52:98:78:b9:5c:31:ec:76:96:
         5f:df:3b:6f:ca:2b:fa:49:04:f4:16:d9:92:1a:5e:d3:e3:f4:
         28:05:b9:54:83:2d:91:2a:17:c7:01:5a:6a:fe:8f:2d:70:34:
         33:96:28:ae:aa:87:68:a0:ca:eb:0d:11:5f:40:06:a7:52:28:
         32:3a:54:76:a7:3f:2f:eb:e1:0f:dd:22:c5:74:d6:9e:65:7f:
         49:5c:9a:a1:55:db:b8:8e:4a:68:67:6a:25:8d:5e:43:fc:07:
         c2:64:41:e5:de:2c:bf:f6:b2:05:e5:49:86:69:21:f4:70:80:
         3f:61:43:b9:20:48:d7:ac:7a:c7:ba:6e:9c:c3:2c:a6:12:39:
         a9:9e:17:20:aa:bb:01:b7
-----BEGIN CERTIFICATE-----
MIIG4DCCBMigAwIBAgIJAJ0Orot3kRyAMA0GCSqGSIb3DQEBDQUAMIGHMQswCQYD
VQQGEwJDSDEMMAoGA1UECBMDWnVnMQwwCgYDVQQHEwNadWcxGDAWBgNVBAoTD1Bl
cmZlY3QgUHJpdmFjeTEYMBYGA1UEAxMPUGVyZmVjdCBQcml2YWN5MSgwJgYJKoZI
hvcNAQkBFhlhZG1pbkBwZXJmZWN0LXByaXZhY3kuY29tMB4XDTIzMDIxMDAwMDAw
MFoXDTI0MTAwNzAwMDAwMFowgYsxCzAJBgNVBAYTAkNIMQwwCgYDVQQIEwNadWcx
GDAWBgNVBAoTD1BlcmZlY3QgUHJpdmFjeTEqMCgGA1UEAxQhQ2xpZW50X21vc2Nv
dy5wZXJmZWN0LXByaXZhY3kuY29tMSgwJgYJKoZIhvcNAQkBFhlhZG1pbkBwZXJm
ZWN0LXByaXZhY3kuY29tMIICIjANBgkqhkiG9w0BAQEFAAOCAg8AMIICCgKCAgEA
zAZw6hs/MngNUjJwM7W1cAoAl7yP6Wocn2ALAHIe38cYjKneBrItNO9KBa+zJkZF
C38XEMUTtElmstcVPDZF1AvlmI9CopCVyRVg1sifqnrGkxSlbE5z94nlkSUhRCkf
voHMq9kz9MeCLTz4govWoTEaHsTMUvQdmSS88l8cye+QJQAF1+qhBnaa7JbVM7NY
7dlgvZbvUwfIeR6acML1MvctyFaxwBmNW16x2Zi9/w7Y+fAM4Y1JMKk7yBcbG1fd
lFYZI+T6xvxRDnvBF/2djHlYN3+nCuoqWgCN/91VL/XWYUYlEqST8+kuiTbD39el
eDigL1cAw2fw5lL2rE7VvEUMRNPubktmTCd/Z6O8XTN2pubzHiRQ8WgGzFQ3KbbI
Xq8RduBXJO3Cuhz1UmQlProNviJNWKPtJwOF5rMH016ms+5Ddoev/bNoATODeZiA
ybBUeHyroVqDuHm1fOGU+jerhxYTvEC6V+sdTDiG09sRaoJzFH9u3xNdT1NH4Bv5
/0yZ1ScOPjSgRYiusSiHfjUF8/8EvAyPm/u1vI06cN7VxHlF2LtjOLcb4hAHfaIC
fjzP4AUIpxea2NUkymJy4QnhXPr++af+ccilM44/FWmGD60A4gNwZUdXXDODyK7+
vFnunJUyu9ULd8rO8ns8QzkZqZhSrzQa+mwQW+a71VMCAwEAAaOCAUcwggFDMAkG
A1UdEwQCMAAwIwYJYIZIAYb4QgENBBYWFFZQTiBVc2VyIENlcnRpZmljYXRlMBEG
CWCGSAGG+EIBAQQEAwIHgDALBgNVHQ8EBAMCB4AwEwYDVR0lBAwwCgYIKwYBBQUH
AwIwHQYDVR0OBBYEFIqbgz5ljqrjKho+PTc3cwsIXqLLMIG8BgNVHSMEgbQwgbGA
FIZPuG0YKhs8jyc0KfCBn7puYQ7hoYGNpIGKMIGHMQswCQYDVQQGEwJDSDEMMAoG
A1UECBMDWnVnMQwwCgYDVQQHEwNadWcxGDAWBgNVBAoTD1BlcmZlY3QgUHJpdmFj
eTEYMBYGA1UEAxMPUGVyZmVjdCBQcml2YWN5MSgwJgYJKoZIhvcNAQkBFhlhZG1p
bkBwZXJmZWN0LXByaXZhY3kuY29tggkA+hG1xKppr2kwDQYJKoZIhvcNAQENBQAD
ggIBACyMpDKxDQT30SSW/IUujihHgqAMHZ7IDWxw+lF/9zkZrqKJd+v1+EtAJUHs
Zqt+ThJJSH6WmXDFGuJTx4bG2kJmBywjMC5l7zB2Wqhe+jK8mDofN48xg3feVZeK
3IvKMxVbH1DWikJ78R459Toziaw6/F8RA0RWrrBAJEH8HO32uamYFtN3wruaBO46
btiPSA+wKTZLo2M7XRb+B2YNNa5FR+C1RMIgKIy8WJuR/Fx7npwHR9+SCP8d5KuS
Aajvm4k07LabGhZUspotuGSDoQKozbxB1AZ2YGHYnZuL11oC8KFeqSWlAPkfxBiz
jM3aO8tzTh2BhcaBcq+srtLpNZKyBAjAWOZWm7ADLjR/rL8K7NweShgP/KN7ln4Z
wskdTVMRPkc7DiHzVmcBzI7PatgMifqnMSihehzsFFdKj3uM9PvDQ/McJEMU4NcJ
TnZBjbrGSuy+pjJt/1QDvJq4J6yjro7AZdpwHAX3CyIJDmo8vlKYeLlcMex2ll/f
O2/KK/pJBPQW2ZIaXtPj9CgFuVSDLZEqF8cBWmr+jy1wNDOWKK6qh2igyusNEV9A
BqdSKDI6VHanPy/r4Q/dIsV01p5lf0lcmqFV27iOSmhnaiWNXkP8B8JkQeXeLL/2
sgXlSYZpIfRwgD9hQ7kgSNesese6bpzDLKYSOameFyCquwG3
-----END CERTIFICATE-----
