Certificate:
    Data:
        Version: 3 (0x2)
        Serial Number: 6460803536376930737 (0x59a96295e555a1b1)
    Signature Algorithm: sha512WithRSAEncryption
        Issuer: C=CH, ST=Zug, L=Zug, O=Perfect Privacy, CN=Perfect Privacy/emailAddress=admin@perfect-privacy.com
        Validity
            Not Before: May 26 00:00:00 2024 GMT
            Not After : Jan 21 00:00:00 2026 GMT
        Subject: C=CH, ST=Zug, O=Perfect Privacy, CN=Client_moscow.perfect-privacy.com/emailAddress=admin@perfect-privacy.com
        Subject Public Key Info:
            Public Key Algorithm: rsaEncryption
                Public-Key: (4096 bit)
                Modulus:
                    00:ce:73:03:db:a6:4e:3e:9e:12:d3:38:8a:74:51:
                    4c:95:6f:ef:5a:e1:c1:07:dd:4b:7c:0b:5d:54:be:
                    3e:dd:37:3b:6d:fb:19:97:68:f4:49:3a:e6:99:43:
                    1a:12:f2:4b:4b:1b:15:cb:98:eb:9e:01:a9:df:33:
                    68:49:74:6e:61:fd:2e:34:49:28:3d:9d:56:cd:f4:
                    74:89:47:3a:4d:e3:ff:d5:eb:83:94:ba:69:63:40:
                    db:81:50:6e:34:bb:4e:86:72:2b:dd:37:82:27:4a:
                    7c:4a:d4:bd:b7:d3:02:00:58:70:e9:39:15:fd:d9:
                    d2:98:bc:c5:f7:0e:84:3a:61:5f:60:c4:81:a3:a8:
                    ba:ca:aa:92:8d:bd:f8:04:85:41:98:f3:93:b0:93:
                    25:12:a4:9c:49:92:77:9c:6f:c0:b0:38:2d:50:0e:
                    88:47:01:a7:c9:3f:5e:95:c7:f8:6e:c2:ce:1a:24:
                    d9:1d:d2:60:dc:84:c1:b8:4e:74:6a:c3:92:ff:9f:
                    58:4f:9a:18:c3:0f:db:f8:5e:3f:12:fe:6b:3d:b6:
                    61:58:8f:e6:68:20:1b:e3:5e:4a:b6:a6:69:d7:65:
                    39:85:c3:fd:b4:9d:64:ab:75:16:d7:f1:a0:e7:4b:
                    7d:5e:5c:09:87:dd:c5:7b:65:80:8f:4a:ee:f1:1b:
                    11:5a:3c:4e:fd:73:d7:8c:3a:6c:f5:98:52:24:a7:
                    e0:5d:31:09:bc:16:12:73:94:d1:11:19:97:0f:f9:
                    ad:0c:85:48:73:52:b8:c5:b9:ff:1a:d2:e1:1b:0d:
                    1d:cb:ed:b7:a1:11:af:88:15:11:76:41:aa:64:2d:
                    52:97:91:0c:a4:5e:d2:07:bf:c7:00:37:4f:18:0b:
                    9b:ac:8d:1d:da:52:8e:7f:9e:18:37:5a:9d:18:40:
                    ab:8e:24:b6:0c:6c:2e:63:a1:5b:70:40:28:4d:6e:
                    6f:48:6f:96:a7:36:89:60:d7:cc:78:a8:d6:66:eb:
                    7d:36:30:0f:dc:30:71:23:4d:f1:9b:3e:f8:3d:00:
                    65:6c:3e:c8:04:8b:ce:15:4d:87:3f:36:9e:34:b4:
                    4f:00:1d:4b:63:1c:29:98:78:a1:2c:dd:aa:d2:13:
                    58:c1:ac:4d:5a:a1:3d:89:f3:be:3c:af:70:4f:46:
                    89:35:e4:da:ec:e3:e7:47:7a:06:55:c7:ef:01:bd:
                    90:eb:00:20:fb:a4:13:80:3b:5f:fa:fa:e1:c2:58:
                    6c:04:6e:20:0a:1a:ff:50:e9:69:36:40:2f:60:78:
                    1c:eb:89:e5:6f:40:d4:48:77:4a:ad:4b:10:d5:d0:
                    ee:2d:45:8e:82:71:24:69:5a:67:b6:ec:da:d2:a7:
                    eb:88:c7
                Exponent: 65537 (0x10001)
        X509v3 extensions:
            X509v3 Basic Constraints: 
                CA:FALSE
            Netscape Comment: 
                VPN User Certificate
            Netscape Cert Type: 
                SSL Client
            X509v3 Key Usage: 
                Digital Signature
            X509v3 Extended Key Usage: 
                TLS Web Client Authentication
            X509v3 Subject Key Identifier: 
                A3:76:72:A9:D3:1D:4D:65:92:F8:7B:0E:0B:36:92:38:97:97:A8:E3
            X509v3 Authority Key Identifier: 
                keyid:86:4F:B8:6D:18:2A:1B:3C:8F:27:34:29:F0:81:9F:BA:6E:61:0E:E1
                DirName:/C=CH/ST=Zug/L=Zug/O=Perfect Privacy/CN=Perfect Privacy/emailAddress=admin@perfect-privacy.com
                serial:FA:11:B5:C4:AA:69:AF:69

    Signature Algorithm: sha512WithRSAEncryption
         1d:29:41:c0:2a:6b:4c:6d:c0:25:e0:4e:4e:fb:c5:8e:0b:17:
         b0:10:ef:e9:07:3a:99:1d:c7:5c:56:ea:20:d7:4f:52:38:fc:
         a9:5c:eb:ad:ff:95:52:c5:30:78:78:ac:c0:ba:82:87:be:87:
         18:e4:ea:98:05:6f:52:27:0f:9b:2d:e6:a1:1a:58:7a:e3:32:
         8f:6b:2d:ac:b6:59:54:76:58:e9:82:f3:c0:4f:61:0e:43:00:
         15:5e:ad:47:83:c1:c0:f8:37:fc:4b:6e:65:a9:56:37:bf:7b:
         4e:72:de:ac:52:2e:d9:e7:bf:21:4a:0a:b6:7e:36:14:50:e7:
         c0:70:af:9f:42:f4:16:d5:85:ef:5b:06:2e:ab:d8:32:71:09:
         85:3f:dd:b7:41:6f:f6:f9:15:0a:07:91:a0:67:c8:90:b4:fd:
         9f:b2:29:d0:e4:4b:bf:82:a1:d0:07:7c:48:b0:e4:88:87:b8:
         23:66:a0:57:57:3d:32:f4:5f:52:ae:98:25:2b:9a:8a:32:71:
         b2:9d:cb:17:4a:34:e3:8a:ce:fc:8e:f1:5b:df:54:75:07:5c:
         f5:23:a1:ba:b5:8e:f0:92:51:56:fb:a2:35:3a:7f:e7:67:0a:
         04:4a:71:ab:c8:22:bd:f9:80:3a:59:16:2c:e1:68:6e:ac:9c:
         f9:a6:20:bf:73:c0:85:df:86:79:06:3b:55:a5:96:e0:80:b4:
         94:71:3b:17:61:6f:d8:99:ff:cd:e8:6e:a7:8e:dd:e8:1b:24:
         3b:7d:36:5c:42:18:62:7f:d8:6d:49:dd:e5:8f:79:c5:6c:a7:
         04:e6:da:d7:e9:52:69:4a:b9:d7:aa:c1:22:f9:b5:58:2b:d5:
         87:01:43:13:b3:d4:4d:b1:75:fb:3d:98:b6:f1:25:f6:4c:cb:
         e3:90:ae:e7:0a:da:80:fa:b1:f7:38:1f:4d:84:e5:dd:8b:d9:
         2a:0c:68:85:e5:0a:31:2e:66:57:89:1d:5d:be:b6:56:72:77:
         3d:32:dc:c4:5c:49:f6:5e:75:54:d7:44:96:1d:49:cd:7b:a8:
         1a:cf:36:72:47:ce:8f:f3:3a:aa:ac:7b:b0:eb:66:00:a7:32:
         3f:33:56:a7:ef:c1:21:b0:58:42:e3:64:c3:91:0d:98:cf:a1:
         6d:b9:61:29:20:86:2e:cd:ff:ff:fc:96:a3:4f:81:3b:d4:c0:
         1b:df:b9:b1:34:77:c8:e4:9f:ea:13:e0:9d:02:47:19:3c:fc:
         c8:20:56:48:0a:bf:ec:ea:35:c7:92:bd:58:e3:83:ab:7d:00:
         65:fc:da:97:44:6c:e8:f6:51:a6:08:75:e0:1b:b4:3b:86:dc:
         a3:a0:73:d1:42:78:5c:e4
-----BEGIN CERTIFICATE-----
MIIG3zCCBMegAwIBAgIIWalileVVobEwDQYJKoZIhvcNAQENBQAwgYcxCzAJBgNV
BAYTAkNIMQwwCgYDVQQIEwNadWcxDDAKBgNVBAcTA1p1ZzEYMBYGA1UEChMPUGVy
ZmVjdCBQcml2YWN5MRgwFgYDVQQDEw9QZXJmZWN0IFByaXZhY3kxKDAmBgkqhkiG
9w0BCQEWGWFkbWluQHBlcmZlY3QtcHJpdmFjeS5jb20wHhcNMjQwNTI2MDAwMDAw
WhcNMjYwMTIxMDAwMDAwWjCBizELMAkGA1UEBhMCQ0gxDDAKBgNVBAgTA1p1ZzEY
MBYGA1UEChMPUGVyZmVjdCBQcml2YWN5MSowKAYDVQQDFCFDbGllbnRfbW9zY293
LnBlcmZlY3QtcHJpdmFjeS5jb20xKDAmBgkqhkiG9w0BCQEWGWFkbWluQHBlcmZl
Y3QtcHJpdmFjeS5jb20wggIiMA0GCSqGSIb3DQEBAQUAA4ICDwAwggIKAoICAQDO
cwPbpk4+nhLTOIp0UUyVb+9a4cEH3Ut8C11Uvj7dNztt+xmXaPRJOuaZQxoS8ktL
GxXLmOueAanfM2hJdG5h/S40SSg9nVbN9HSJRzpN4//V64OUumljQNuBUG40u06G
civdN4InSnxK1L230wIAWHDpORX92dKYvMX3DoQ6YV9gxIGjqLrKqpKNvfgEhUGY
85OwkyUSpJxJknecb8CwOC1QDohHAafJP16Vx/huws4aJNkd0mDchMG4TnRqw5L/
n1hPmhjDD9v4Xj8S/ms9tmFYj+ZoIBvjXkq2pmnXZTmFw/20nWSrdRbX8aDnS31e
XAmH3cV7ZYCPSu7xGxFaPE79c9eMOmz1mFIkp+BdMQm8FhJzlNERGZcP+a0MhUhz
UrjFuf8a0uEbDR3L7behEa+IFRF2QapkLVKXkQykXtIHv8cAN08YC5usjR3aUo5/
nhg3Wp0YQKuOJLYMbC5joVtwQChNbm9Ib5anNolg18x4qNZm6302MA/cMHEjTfGb
Pvg9AGVsPsgEi84VTYc/Np40tE8AHUtjHCmYeKEs3arSE1jBrE1aoT2J8748r3BP
Rok15Nrs4+dHegZVx+8BvZDrACD7pBOAO1/6+uHCWGwEbiAKGv9Q6Wk2QC9geBzr
ieVvQNRId0qtSxDV0O4tRY6CcSRpWme27NrSp+uIxwIDAQABo4IBRzCCAUMwCQYD
VR0TBAIwADAjBglghkgBhvhCAQ0EFhYUVlBOIFVzZXIgQ2VydGlmaWNhdGUwEQYJ
YIZIAYb4QgEBBAQDAgeAMAsGA1UdDwQEAwIHgDATBgNVHSUEDDAKBggrBgEFBQcD
AjAdBgNVHQ4EFgQUo3ZyqdMdTWWS+HsOCzaSOJeXqOMwgbwGA1UdIwSBtDCBsYAU
hk+4bRgqGzyPJzQp8IGfum5hDuGhgY2kgYowgYcxCzAJBgNVBAYTAkNIMQwwCgYD
VQQIEwNadWcxDDAKBgNVBAcTA1p1ZzEYMBYGA1UEChMPUGVyZmVjdCBQcml2YWN5
MRgwFgYDVQQDEw9QZXJmZWN0IFByaXZhY3kxKDAmBgkqhkiG9w0BCQEWGWFkbWlu
QHBlcmZlY3QtcHJpdmFjeS5jb22CCQD6EbXEqmmvaTANBgkqhkiG9w0BAQ0FAAOC
AgEAHSlBwCprTG3AJeBOTvvFjgsXsBDv6Qc6mR3HXFbqINdPUjj8qVzrrf+VUsUw
eHiswLqCh76HGOTqmAVvUicPmy3moRpYeuMyj2strLZZVHZY6YLzwE9hDkMAFV6t
R4PBwPg3/EtuZalWN797TnLerFIu2ee/IUoKtn42FFDnwHCvn0L0FtWF71sGLqvY
MnEJhT/dt0Fv9vkVCgeRoGfIkLT9n7Ip0ORLv4Kh0Ad8SLDkiIe4I2agV1c9MvRf
Uq6YJSuaijJxsp3LF0o044rO/I7xW99UdQdc9SOhurWO8JJRVvuiNTp/52cKBEpx
q8givfmAOlkWLOFobqyc+aYgv3PAhd+GeQY7VaWW4IC0lHE7F2Fv2Jn/zehup47d
6BskO302XEIYYn/YbUnd5Y95xWynBOba1+lSaUq516rBIvm1WCvVhwFDE7PUTbF1
+z2YtvEl9kzL45Cu5wragPqx9zgfTYTl3YvZKgxoheUKMS5mV4kdXb62VnJ3PTLc
xFxJ9l51VNdElh1JzXuoGs82ckfOj/M6qqx7sOtmAKcyPzNWp+/BIbBYQuNkw5EN
mM+hbblhKSCGLs3///yWo0+BO9TAG9+5sTR3yOSf6hPgnQJHGTz8yCBWSAq/7Oo1
x5K9WOODq30AZfzal0Rs6PZRpgh14Bu0O4bco6Bz0UJ4XOQ=
-----END CERTIFICATE-----
