Certificate:
    Data:
        Version: 3 (0x2)
        Serial Number:
            82:a1:1e:35:7c:ed:9b:ba
    Signature Algorithm: sha512WithRSAEncryption
        Issuer: C=CH, ST=Zug, L=Zug, O=Perfect Privacy, CN=Perfect Privacy/emailAddress=admin@perfect-privacy.com
        Validity
            Not Before: Jul 30 00:00:00 2023 GMT
            Not After : Mar 26 00:00:00 2025 GMT
        Subject: C=CH, ST=Zug, O=Perfect Privacy, CN=Client_malmoe.perfect-privacy.com/emailAddress=admin@perfect-privacy.com
        Subject Public Key Info:
            Public Key Algorithm: rsaEncryption
                Public-Key: (4096 bit)
                Modulus:
                    00:bb:81:4a:01:95:04:a8:65:36:5e:95:7a:42:82:
                    d7:93:af:e8:63:eb:bb:e5:b8:cb:43:4f:ac:39:4c:
                    be:10:27:c4:fd:02:83:32:c0:a3:02:c4:d9:61:ca:
                    b7:e4:21:58:5f:b7:56:89:6b:29:f9:dc:13:eb:96:
                    8f:b2:fc:88:fb:fe:83:1c:6c:64:c6:9e:54:e8:f3:
                    55:56:c5:f5:f8:5c:80:f2:39:12:4b:2b:9e:bc:9b:
                    13:f2:95:51:36:dc:8b:01:ac:90:98:9a:38:2c:42:
                    9c:ba:13:03:c7:29:6b:ce:ac:30:7f:8d:5a:d3:70:
                    60:40:cc:fa:6a:b5:5d:ce:b0:39:bb:42:37:61:27:
                    56:82:1e:61:d6:ad:95:a6:b6:4f:8d:8e:97:b4:a0:
                    be:d4:82:76:6d:0f:1e:41:7b:d3:5c:75:74:c5:02:
                    55:3f:cd:74:77:2a:25:5c:dc:95:26:a4:46:0a:ee:
                    a8:25:90:61:da:54:94:ee:b2:17:e5:df:a1:64:70:
                    bb:78:51:10:87:b2:89:b2:fa:a4:15:e0:59:bd:61:
                    ae:77:17:82:ba:7b:fe:96:4e:54:0c:fb:90:1e:66:
                    e7:87:0b:43:2f:53:d1:8f:f9:d0:a4:25:0a:6e:e7:
                    94:11:e2:a1:32:d6:d6:73:f6:d2:db:c7:2b:5a:4a:
                    b3:8a:52:22:e1:86:9f:f8:a0:2a:4c:e3:db:92:2e:
                    1d:f0:02:92:b9:71:08:60:95:27:35:39:de:b8:55:
                    af:b7:d9:3e:e6:5c:e8:c5:10:12:59:cb:b8:41:bb:
                    b1:f3:c3:d2:1c:44:55:21:d2:6f:ae:0b:c4:38:43:
                    66:89:29:9e:ef:10:8b:48:14:21:3e:72:7c:b8:be:
                    bd:d3:e6:07:5b:cb:6c:23:76:98:cb:28:24:e4:28:
                    e3:f5:1a:ad:e5:42:f3:0b:9e:c7:92:a3:9a:26:59:
                    73:83:76:50:28:72:a5:da:ef:20:51:79:bb:cc:69:
                    55:8e:25:ba:da:24:9b:d0:c3:8d:b1:fb:04:7b:dd:
                    db:f1:a2:46:ed:b1:c6:7e:34:c4:c9:99:b4:f7:ed:
                    36:0b:95:d4:bf:3e:60:af:40:31:91:1f:40:08:67:
                    fa:bd:62:e7:e9:34:d5:02:a2:ad:e3:f6:35:c1:5d:
                    a4:3a:2e:70:68:b6:94:b7:2b:79:00:a0:78:a8:80:
                    7d:14:ec:09:20:a4:c9:b4:35:98:5a:4c:37:07:84:
                    de:0f:6c:0e:83:20:41:c7:a0:3a:5a:26:37:13:6b:
                    0c:f1:ef:8d:30:60:7a:65:fb:53:df:f0:39:8a:9c:
                    4f:66:34:df:26:5b:e6:51:04:92:82:a3:1a:d4:33:
                    94:12:e7
                Exponent: 65537 (0x10001)
        X509v3 extensions:
            X509v3 Basic Constraints: 
                CA:FALSE
            Netscape Comment: 
                VPN User Certificate
            Netscape Cert Type: 
                SSL Client
            X509v3 Key Usage: 
                Digital Signature
            X509v3 Extended Key Usage: 
                TLS Web Client Authentication
            X509v3 Subject Key Identifier: 
                5F:E3:EC:23:5C:67:33:FC:CE:68:7E:47:9D:99:43:51:03:68:6F:25
            X509v3 Authority Key Identifier: 
                keyid:86:4F:B8:6D:18:2A:1B:3C:8F:27:34:29:F0:81:9F:BA:6E:61:0E:E1
                DirName:/C=CH/ST=Zug/L=Zug/O=Perfect Privacy/CN=Perfect Privacy/emailAddress=admin@perfect-privacy.com
                serial:FA:11:B5:C4:AA:69:AF:69

    Signature Algorithm: sha512WithRSAEncryption
         89:7d:d4:6a:61:b4:8b:90:c1:1c:b6:e6:2d:9a:b8:9e:80:61:
         75:21:f4:3a:92:60:94:f1:ec:a0:9c:fd:36:fb:95:c7:46:c8:
         ec:64:45:fb:69:26:d1:86:45:39:5f:64:a4:db:3c:66:a6:22:
         23:87:6f:da:65:9c:73:c5:b2:c8:5a:05:8c:b8:8c:a5:78:53:
         4b:c1:80:f6:c6:7e:9d:ba:62:7a:89:d1:23:c0:c9:bb:e3:82:
         5e:44:08:7d:7f:c3:70:57:38:b8:59:bd:ad:90:3e:be:2d:4e:
         89:d8:d8:b2:a0:23:13:b8:77:a1:ab:ad:83:99:9b:9d:12:3a:
         30:47:dd:e8:31:cf:34:fb:db:92:20:48:78:06:18:da:a9:c6:
         6f:6a:46:ad:52:2a:1a:61:0f:3d:27:47:23:27:65:12:96:d5:
         01:62:5e:06:80:cd:11:6d:bd:f6:b7:cb:2c:02:e6:4c:a2:56:
         1c:59:a8:a7:55:c6:ce:da:da:93:1a:3e:dd:9e:8a:7a:e5:e8:
         86:25:45:f4:0f:fc:7d:a3:98:e8:ca:ff:7b:ad:0f:6a:35:12:
         6d:1c:88:31:21:9b:b7:a9:8a:aa:9a:35:b4:20:87:9f:46:04:
         8e:a8:74:11:0e:96:72:a3:5a:aa:1d:34:6e:10:e8:4b:71:f9:
         16:0d:45:6a:2e:84:ee:5f:97:b8:6f:13:b2:18:1a:d9:c4:b9:
         4a:4f:3e:ac:32:2b:b5:a9:c4:e7:55:42:dc:7d:8f:1e:28:9a:
         ad:b0:c1:af:91:8b:9b:a6:c0:fc:24:96:27:99:05:4e:ba:84:
         e5:55:fa:c0:b1:72:d4:06:cc:50:9c:aa:f9:f8:58:35:61:0f:
         6b:1c:b6:0f:06:a4:73:97:7c:8a:ba:b5:0a:17:d1:7f:66:0a:
         a0:96:ad:ea:51:87:24:83:14:12:31:94:22:e1:86:76:5d:34:
         29:b0:32:ab:f5:ac:9d:ce:8e:ea:45:c4:c1:8f:d6:1e:2d:52:
         62:a5:6c:b4:f6:68:aa:0e:c5:61:21:90:d1:20:21:d0:16:be:
         a2:81:78:e9:33:7c:50:7f:4b:00:77:4b:8d:df:ff:5b:d9:39:
         49:2e:2c:55:ed:fa:4b:61:43:e0:48:6f:d4:86:ed:68:a0:7c:
         3c:b9:4f:de:7e:10:23:1d:e3:37:a5:3e:c1:13:09:53:85:f1:
         a5:81:d5:03:f2:01:9e:9d:b2:b1:15:18:76:f2:6f:ab:2f:7f:
         60:59:5d:a4:6d:d2:ec:c1:1a:e5:87:be:59:6c:b7:e6:db:68:
         06:cb:85:ca:8d:4f:0d:21:d9:54:30:94:6e:72:9f:2f:85:36:
         df:70:45:e0:12:a8:56:a9
-----BEGIN CERTIFICATE-----
MIIG4DCCBMigAwIBAgIJAIKhHjV87Zu6MA0GCSqGSIb3DQEBDQUAMIGHMQswCQYD
VQQGEwJDSDEMMAoGA1UECBMDWnVnMQwwCgYDVQQHEwNadWcxGDAWBgNVBAoTD1Bl
cmZlY3QgUHJpdmFjeTEYMBYGA1UEAxMPUGVyZmVjdCBQcml2YWN5MSgwJgYJKoZI
hvcNAQkBFhlhZG1pbkBwZXJmZWN0LXByaXZhY3kuY29tMB4XDTIzMDczMDAwMDAw
MFoXDTI1MDMyNjAwMDAwMFowgYsxCzAJBgNVBAYTAkNIMQwwCgYDVQQIEwNadWcx
GDAWBgNVBAoTD1BlcmZlY3QgUHJpdmFjeTEqMCgGA1UEAxQhQ2xpZW50X21hbG1v
ZS5wZXJmZWN0LXByaXZhY3kuY29tMSgwJgYJKoZIhvcNAQkBFhlhZG1pbkBwZXJm
ZWN0LXByaXZhY3kuY29tMIICIjANBgkqhkiG9w0BAQEFAAOCAg8AMIICCgKCAgEA
u4FKAZUEqGU2XpV6QoLXk6/oY+u75bjLQ0+sOUy+ECfE/QKDMsCjAsTZYcq35CFY
X7dWiWsp+dwT65aPsvyI+/6DHGxkxp5U6PNVVsX1+FyA8jkSSyuevJsT8pVRNtyL
AayQmJo4LEKcuhMDxylrzqwwf41a03BgQMz6arVdzrA5u0I3YSdWgh5h1q2VprZP
jY6XtKC+1IJ2bQ8eQXvTXHV0xQJVP810dyolXNyVJqRGCu6oJZBh2lSU7rIX5d+h
ZHC7eFEQh7KJsvqkFeBZvWGudxeCunv+lk5UDPuQHmbnhwtDL1PRj/nQpCUKbueU
EeKhMtbWc/bS28crWkqzilIi4Yaf+KAqTOPbki4d8AKSuXEIYJUnNTneuFWvt9k+
5lzoxRASWcu4Qbux88PSHERVIdJvrgvEOENmiSme7xCLSBQhPnJ8uL690+YHW8ts
I3aYyygk5Cjj9Rqt5ULzC57HkqOaJllzg3ZQKHKl2u8gUXm7zGlVjiW62iSb0MON
sfsEe93b8aJG7bHGfjTEyZm09+02C5XUvz5gr0AxkR9ACGf6vWLn6TTVAqKt4/Y1
wV2kOi5waLaUtyt5AKB4qIB9FOwJIKTJtDWYWkw3B4TeD2wOgyBBx6A6WiY3E2sM
8e+NMGB6ZftT3/A5ipxPZjTfJlvmUQSSgqMa1DOUEucCAwEAAaOCAUcwggFDMAkG
A1UdEwQCMAAwIwYJYIZIAYb4QgENBBYWFFZQTiBVc2VyIENlcnRpZmljYXRlMBEG
CWCGSAGG+EIBAQQEAwIHgDALBgNVHQ8EBAMCB4AwEwYDVR0lBAwwCgYIKwYBBQUH
AwIwHQYDVR0OBBYEFF/j7CNcZzP8zmh+R52ZQ1EDaG8lMIG8BgNVHSMEgbQwgbGA
FIZPuG0YKhs8jyc0KfCBn7puYQ7hoYGNpIGKMIGHMQswCQYDVQQGEwJDSDEMMAoG
A1UECBMDWnVnMQwwCgYDVQQHEwNadWcxGDAWBgNVBAoTD1BlcmZlY3QgUHJpdmFj
eTEYMBYGA1UEAxMPUGVyZmVjdCBQcml2YWN5MSgwJgYJKoZIhvcNAQkBFhlhZG1p
bkBwZXJmZWN0LXByaXZhY3kuY29tggkA+hG1xKppr2kwDQYJKoZIhvcNAQENBQAD
ggIBAIl91GphtIuQwRy25i2auJ6AYXUh9DqSYJTx7KCc/Tb7lcdGyOxkRftpJtGG
RTlfZKTbPGamIiOHb9plnHPFsshaBYy4jKV4U0vBgPbGfp26YnqJ0SPAybvjgl5E
CH1/w3BXOLhZva2QPr4tTonY2LKgIxO4d6GrrYOZm50SOjBH3egxzzT725IgSHgG
GNqpxm9qRq1SKhphDz0nRyMnZRKW1QFiXgaAzRFtvfa3yywC5kyiVhxZqKdVxs7a
2pMaPt2einrl6IYlRfQP/H2jmOjK/3utD2o1Em0ciDEhm7epiqqaNbQgh59GBI6o
dBEOlnKjWqodNG4Q6Etx+RYNRWouhO5fl7hvE7IYGtnEuUpPPqwyK7WpxOdVQtx9
jx4omq2wwa+Ri5umwPwklieZBU66hOVV+sCxctQGzFCcqvn4WDVhD2sctg8GpHOX
fIq6tQoX0X9mCqCWrepRhySDFBIxlCLhhnZdNCmwMqv1rJ3OjupFxMGP1h4tUmKl
bLT2aKoOxWEhkNEgIdAWvqKBeOkzfFB/SwB3S43f/1vZOUkuLFXt+kthQ+BIb9SG
7WigfDy5T95+ECMd4zelPsETCVOF8aWB1QPyAZ6dsrEVGHbyb6svf2BZXaRt0uzB
GuWHvllst+bbaAbLhcqNTw0h2VQwlG5yny+FNt9wReASqFap
-----END CERTIFICATE-----
