Certificate:
    Data:
        Version: 3 (0x2)
        Serial Number:
            96:79:be:b8:52:cb:28:25
    Signature Algorithm: sha512WithRSAEncryption
        Issuer: C=CH, ST=Zug, L=Zug, O=Perfect Privacy, CN=Perfect Privacy/emailAddress=admin@perfect-privacy.com
        Validity
            Not Before: Nov 24 00:00:00 2022 GMT
            Not After : Jul 21 00:00:00 2024 GMT
        Subject: C=CH, ST=Zug, O=Perfect Privacy, CN=Client_milan.perfect-privacy.com/emailAddress=admin@perfect-privacy.com
        Subject Public Key Info:
            Public Key Algorithm: rsaEncryption
                Public-Key: (4096 bit)
                Modulus:
                    00:d0:cc:10:a2:aa:64:75:ef:28:09:58:36:91:45:
                    c9:04:3d:10:90:88:75:33:95:ae:e9:ae:b6:e1:e7:
                    4b:2e:b6:df:70:24:32:ff:5b:5a:bf:3a:90:35:96:
                    d7:af:11:ec:98:98:f0:39:dc:0e:e6:2c:15:51:02:
                    5d:9e:bd:53:2d:9f:97:b0:8b:cd:21:65:73:48:cf:
                    31:5a:80:15:94:c4:2d:f8:38:d0:01:a0:8b:0b:32:
                    fa:51:d5:8f:80:35:3a:48:18:09:71:9a:ad:80:18:
                    bd:dc:d0:47:de:70:61:d7:f5:72:d7:11:08:9c:ce:
                    7d:5d:4a:0a:e0:5f:c8:f6:ad:00:a7:68:7a:e1:47:
                    e5:b2:a3:ba:d7:b8:1f:89:8d:22:29:c8:f2:b2:d7:
                    6c:1b:06:b1:7a:39:ba:4e:c3:a1:d7:b1:de:76:c2:
                    a0:b5:90:8d:60:35:56:26:73:00:83:7f:7b:68:39:
                    6d:e9:b5:10:15:9e:26:41:e8:36:52:8e:b5:55:b4:
                    20:74:14:a7:ab:57:82:75:f0:8e:6f:9c:6a:19:84:
                    56:de:13:f5:5b:c7:47:48:87:5e:05:94:da:e9:b2:
                    d0:ac:ff:e2:59:de:33:80:30:a8:7f:59:d9:79:e1:
                    4f:f6:79:26:22:e1:13:d8:ff:fd:4e:b1:49:ba:99:
                    26:a3:94:52:41:62:ef:0b:41:e3:ad:ff:2c:fe:e0:
                    7e:a9:1a:af:94:e6:57:89:f0:c7:85:79:1e:16:1d:
                    e4:9d:cc:57:d2:99:2f:6f:17:9d:97:d8:ce:2c:bd:
                    ef:75:31:aa:5b:de:4a:c3:5a:59:bb:c3:8a:3a:e6:
                    cd:62:c2:9e:99:24:7c:b0:6f:9c:41:27:25:ad:e3:
                    e4:67:65:59:18:17:08:02:c9:3d:f6:56:36:d1:06:
                    6a:03:64:a8:65:64:f4:73:bf:8f:d3:e9:ff:76:d8:
                    6b:86:1c:84:01:48:eb:2a:0c:9e:a9:83:b1:9d:19:
                    d5:1d:91:11:0c:43:11:2b:13:40:39:bc:40:eb:db:
                    94:f6:63:45:00:2a:9f:c6:42:e9:17:9d:12:4c:5a:
                    28:fb:10:47:e1:5e:5c:12:33:1d:96:6e:d4:bf:3b:
                    b4:f0:1b:f4:d6:e6:58:38:40:6b:97:06:83:37:42:
                    a3:3f:79:d5:20:3b:4a:95:f3:c3:6d:97:09:f6:33:
                    c2:2e:23:0a:7f:b2:83:67:37:01:28:d3:bd:6d:51:
                    8c:ce:da:fb:c6:3b:51:16:a4:c0:6c:bc:e7:6c:17:
                    3b:c4:c4:39:7b:88:b5:27:eb:12:34:34:d3:d2:87:
                    bf:63:29:9b:23:b6:c3:88:a2:0d:3d:1a:e0:aa:ad:
                    60:91:b3
                Exponent: 65537 (0x10001)
        X509v3 extensions:
            X509v3 Basic Constraints: 
                CA:FALSE
            Netscape Comment: 
                VPN User Certificate
            Netscape Cert Type: 
                SSL Client
            X509v3 Key Usage: 
                Digital Signature
            X509v3 Extended Key Usage: 
                TLS Web Client Authentication
            X509v3 Subject Key Identifier: 
                A1:33:5F:F0:FB:FF:5A:7D:B5:31:5D:45:96:2B:41:02:3B:74:BD:F1
            X509v3 Authority Key Identifier: 
                keyid:86:4F:B8:6D:18:2A:1B:3C:8F:27:34:29:F0:81:9F:BA:6E:61:0E:E1
                DirName:/C=CH/ST=Zug/L=Zug/O=Perfect Privacy/CN=Perfect Privacy/emailAddress=admin@perfect-privacy.com
                serial:FA:11:B5:C4:AA:69:AF:69

    Signature Algorithm: sha512WithRSAEncryption
         52:85:7e:37:20:2d:ad:a9:a0:a9:b5:c5:e8:ef:a6:30:eb:df:
         e1:ff:2b:59:32:7f:db:5b:f0:d1:e5:9d:09:50:ff:ac:76:d2:
         c4:24:9c:8d:43:7b:aa:15:39:c4:46:eb:75:91:44:04:5b:e1:
         ed:84:68:43:39:2f:ad:11:ee:c9:06:09:df:7c:c4:b0:2e:d0:
         64:95:4d:c8:be:0b:6e:68:31:2e:01:2d:a6:a1:76:e9:97:e4:
         22:7a:9e:63:9b:fd:20:32:1b:b7:81:28:6b:78:01:93:15:21:
         51:eb:87:d7:7a:6a:93:10:e3:03:87:e7:a9:50:53:6a:7f:98:
         72:c4:7e:df:fb:33:dd:cd:ab:f5:be:48:e6:85:5a:f0:1d:6c:
         1c:a9:6b:23:69:a6:9c:de:4f:7a:09:c3:95:93:52:4a:ed:75:
         23:76:d9:36:f0:12:ba:ab:44:0a:80:be:b4:ea:72:ae:88:00:
         65:a8:e4:7c:79:45:88:a9:e7:c8:55:37:d6:b4:ba:a1:dc:08:
         ef:a2:94:07:a8:36:e3:c7:d9:53:92:75:87:09:8a:78:8c:42:
         17:ca:8e:67:35:c2:c9:d5:06:eb:4e:52:e6:4e:d3:bb:35:aa:
         e2:91:b9:18:c3:77:e0:08:4f:2d:7b:c8:d6:a9:5f:62:47:71:
         8f:3e:af:4a:f8:9c:7f:f0:1b:59:a8:1f:62:6a:ce:0b:45:b4:
         00:5c:84:49:43:7b:e0:a8:5f:06:e8:af:ba:33:0c:ba:ff:92:
         90:01:bc:0e:f8:75:fa:e3:7d:30:03:6d:9f:2b:4c:03:e8:b0:
         96:df:ad:19:de:16:ee:03:e1:93:22:04:b8:32:cb:d9:78:96:
         8c:ca:52:ce:6a:be:71:2e:67:d5:5e:3c:3e:f4:bb:22:7b:96:
         54:19:db:ee:3e:49:40:41:f4:a6:38:de:e1:85:50:85:82:a5:
         e3:14:bb:f1:af:08:03:5a:af:68:7e:3f:c4:a1:24:d1:eb:5b:
         f6:88:b0:3f:84:bb:27:f7:b9:0e:95:ba:8d:8c:56:61:a6:fb:
         f3:e3:9d:62:49:61:b0:33:46:07:98:aa:65:1c:50:f1:86:13:
         30:14:ca:85:61:30:0e:d6:66:43:44:38:a1:09:a4:24:81:45:
         13:71:67:4d:af:10:d8:82:1e:ec:2d:31:00:29:5d:00:01:56:
         e4:e7:1f:d6:fa:d9:49:c3:47:03:07:3a:db:00:63:98:62:37:
         3a:4e:41:6d:aa:17:50:6c:3a:b5:f0:3c:6a:d8:74:e8:a3:80:
         71:f2:62:fe:fb:25:d4:be:2f:53:f4:5b:73:66:ef:0c:ae:7f:
         dd:f2:b8:a0:c5:c4:ab:1c
-----BEGIN CERTIFICATE-----
MIIG3zCCBMegAwIBAgIJAJZ5vrhSyyglMA0GCSqGSIb3DQEBDQUAMIGHMQswCQYD
VQQGEwJDSDEMMAoGA1UECBMDWnVnMQwwCgYDVQQHEwNadWcxGDAWBgNVBAoTD1Bl
cmZlY3QgUHJpdmFjeTEYMBYGA1UEAxMPUGVyZmVjdCBQcml2YWN5MSgwJgYJKoZI
hvcNAQkBFhlhZG1pbkBwZXJmZWN0LXByaXZhY3kuY29tMB4XDTIyMTEyNDAwMDAw
MFoXDTI0MDcyMTAwMDAwMFowgYoxCzAJBgNVBAYTAkNIMQwwCgYDVQQIEwNadWcx
GDAWBgNVBAoTD1BlcmZlY3QgUHJpdmFjeTEpMCcGA1UEAxQgQ2xpZW50X21pbGFu
LnBlcmZlY3QtcHJpdmFjeS5jb20xKDAmBgkqhkiG9w0BCQEWGWFkbWluQHBlcmZl
Y3QtcHJpdmFjeS5jb20wggIiMA0GCSqGSIb3DQEBAQUAA4ICDwAwggIKAoICAQDQ
zBCiqmR17ygJWDaRRckEPRCQiHUzla7prrbh50sutt9wJDL/W1q/OpA1ltevEeyY
mPA53A7mLBVRAl2evVMtn5ewi80hZXNIzzFagBWUxC34ONABoIsLMvpR1Y+ANTpI
GAlxmq2AGL3c0EfecGHX9XLXEQiczn1dSgrgX8j2rQCnaHrhR+Wyo7rXuB+JjSIp
yPKy12wbBrF6ObpOw6HXsd52wqC1kI1gNVYmcwCDf3toOW3ptRAVniZB6DZSjrVV
tCB0FKerV4J18I5vnGoZhFbeE/Vbx0dIh14FlNrpstCs/+JZ3jOAMKh/Wdl54U/2
eSYi4RPY//1OsUm6mSajlFJBYu8LQeOt/yz+4H6pGq+U5leJ8MeFeR4WHeSdzFfS
mS9vF52X2M4sve91Mapb3krDWlm7w4o65s1iwp6ZJHywb5xBJyWt4+RnZVkYFwgC
yT32VjbRBmoDZKhlZPRzv4/T6f922GuGHIQBSOsqDJ6pg7GdGdUdkREMQxErE0A5
vEDr25T2Y0UAKp/GQukXnRJMWij7EEfhXlwSMx2WbtS/O7TwG/TW5lg4QGuXBoM3
QqM/edUgO0qV88Ntlwn2M8IuIwp/soNnNwEo071tUYzO2vvGO1EWpMBsvOdsFzvE
xDl7iLUn6xI0NNPSh79jKZsjtsOIog09GuCqrWCRswIDAQABo4IBRzCCAUMwCQYD
VR0TBAIwADAjBglghkgBhvhCAQ0EFhYUVlBOIFVzZXIgQ2VydGlmaWNhdGUwEQYJ
YIZIAYb4QgEBBAQDAgeAMAsGA1UdDwQEAwIHgDATBgNVHSUEDDAKBggrBgEFBQcD
AjAdBgNVHQ4EFgQUoTNf8Pv/Wn21MV1FlitBAjt0vfEwgbwGA1UdIwSBtDCBsYAU
hk+4bRgqGzyPJzQp8IGfum5hDuGhgY2kgYowgYcxCzAJBgNVBAYTAkNIMQwwCgYD
VQQIEwNadWcxDDAKBgNVBAcTA1p1ZzEYMBYGA1UEChMPUGVyZmVjdCBQcml2YWN5
MRgwFgYDVQQDEw9QZXJmZWN0IFByaXZhY3kxKDAmBgkqhkiG9w0BCQEWGWFkbWlu
QHBlcmZlY3QtcHJpdmFjeS5jb22CCQD6EbXEqmmvaTANBgkqhkiG9w0BAQ0FAAOC
AgEAUoV+NyAtramgqbXF6O+mMOvf4f8rWTJ/21vw0eWdCVD/rHbSxCScjUN7qhU5
xEbrdZFEBFvh7YRoQzkvrRHuyQYJ33zEsC7QZJVNyL4LbmgxLgEtpqF26ZfkInqe
Y5v9IDIbt4Eoa3gBkxUhUeuH13pqkxDjA4fnqVBTan+YcsR+3/sz3c2r9b5I5oVa
8B1sHKlrI2mmnN5PegnDlZNSSu11I3bZNvASuqtECoC+tOpyrogAZajkfHlFiKnn
yFU31rS6odwI76KUB6g248fZU5J1hwmKeIxCF8qOZzXCydUG605S5k7TuzWq4pG5
GMN34AhPLXvI1qlfYkdxjz6vSvicf/AbWagfYmrOC0W0AFyESUN74KhfBuivujMM
uv+SkAG8Dvh1+uN9MANtnytMA+iwlt+tGd4W7gPhkyIEuDLL2XiWjMpSzmq+cS5n
1V48PvS7InuWVBnb7j5JQEH0pjje4YVQhYKl4xS78a8IA1qvaH4/xKEk0etb9oiw
P4S7J/e5DpW6jYxWYab78+OdYklhsDNGB5iqZRxQ8YYTMBTKhWEwDtZmQ0Q4oQmk
JIFFE3FnTa8Q2IIe7C0xACldAAFW5Ocf1vrZScNHAwc62wBjmGI3Ok5BbaoXUGw6
tfA8ath06KOAcfJi/vsl1L4vU/Rbc2bvDK5/3fK4oMXEqxw=
-----END CERTIFICATE-----
