Certificate:
    Data:
        Version: 3 (0x2)
        Serial Number: 2781828276656386677 (0x269b0a14303db275)
    Signature Algorithm: sha512WithRSAEncryption
        Issuer: C=CH, ST=Zug, L=Zug, O=Perfect Privacy, CN=Perfect Privacy/emailAddress=admin@perfect-privacy.com
        Validity
            Not Before: Dec 22 00:00:00 2022 GMT
            Not After : Aug 18 00:00:00 2024 GMT
        Subject: C=CH, ST=Zug, O=Perfect Privacy, CN=Client_miami.perfect-privacy.com/emailAddress=admin@perfect-privacy.com
        Subject Public Key Info:
            Public Key Algorithm: rsaEncryption
                Public-Key: (4096 bit)
                Modulus:
                    00:c0:3b:89:bf:4b:d9:54:bd:38:ce:81:b7:71:34:
                    d0:36:45:7b:db:30:f7:f8:f8:30:45:9b:a2:c8:40:
                    b2:1d:40:08:9c:e8:cc:19:90:97:c1:e3:7d:dd:c1:
                    df:54:41:80:b9:06:7b:fa:3c:7d:e6:35:0c:ae:7d:
                    ff:fc:3d:99:57:6f:b1:0c:6e:d0:a3:69:15:57:05:
                    73:23:11:90:b1:ae:87:2e:d2:79:61:f8:50:78:68:
                    4c:52:81:3d:31:9a:9b:ed:05:20:fb:17:8b:1b:6c:
                    78:bb:f1:c9:b0:fe:c8:29:8d:86:3f:01:fd:d0:6d:
                    c8:07:c9:76:65:69:b0:68:75:f3:8f:7e:ed:24:c3:
                    a4:83:0d:6b:f5:b9:f8:5b:19:5d:c3:75:d2:d6:27:
                    ae:11:8c:c9:00:cc:e9:56:80:ad:b3:84:f0:a1:7a:
                    bc:ad:70:de:bd:22:2f:99:59:89:80:00:af:48:59:
                    52:55:18:fc:d0:8f:59:79:21:15:5a:9f:3e:b5:ec:
                    41:30:22:c6:da:3e:0c:3d:51:7a:0a:a4:19:b1:e2:
                    b1:96:8f:b1:fe:25:c4:3f:f0:37:c2:96:e2:37:89:
                    57:c4:a9:bb:98:8d:b7:cd:2e:71:dd:12:7f:8a:f0:
                    c3:d3:d1:fc:c1:7b:36:8d:dc:f4:5b:ff:c4:6e:f9:
                    09:5b:59:6f:e5:ec:99:e1:86:3d:34:61:10:90:5a:
                    a7:4a:30:c8:eb:49:29:d5:71:dc:b7:5a:cc:fb:4e:
                    1e:9d:8c:a4:d5:60:d2:90:18:6c:22:40:19:41:d0:
                    93:35:bc:fd:4b:da:ed:18:91:77:e8:33:26:7e:a6:
                    93:94:83:6e:be:37:74:2d:43:7f:81:62:9c:9e:a1:
                    48:e6:e6:c6:14:74:a1:ac:87:7c:45:bf:1c:88:0c:
                    6a:c3:93:c3:a1:ca:1d:0e:49:6b:48:56:24:b5:ab:
                    92:7d:27:dc:07:3e:94:ca:a7:6d:bf:40:42:cd:6b:
                    96:06:bd:56:da:2d:fc:8f:2d:93:9c:41:20:b0:51:
                    88:02:55:99:c2:4a:97:7a:47:df:c5:92:f2:41:e5:
                    4a:ed:76:c4:c8:4c:7f:c7:7b:c5:ec:75:6b:32:23:
                    f9:41:7f:06:58:5c:01:e8:d9:5d:89:b5:60:a8:cd:
                    38:e1:7b:83:7b:b1:c6:7c:00:43:ac:8d:00:58:a0:
                    3b:52:bc:38:a1:7c:76:69:e8:2a:0f:be:71:61:35:
                    d1:48:7e:74:93:f3:1a:2e:e8:47:0e:93:8f:34:e2:
                    fb:0c:f3:c2:04:92:4e:12:8f:bc:d2:14:fc:b7:2a:
                    fe:cf:de:e9:54:4f:12:45:da:82:d7:12:58:07:a6:
                    04:d2:1f
                Exponent: 65537 (0x10001)
        X509v3 extensions:
            X509v3 Basic Constraints: 
                CA:FALSE
            Netscape Comment: 
                VPN User Certificate
            Netscape Cert Type: 
                SSL Client
            X509v3 Key Usage: 
                Digital Signature
            X509v3 Extended Key Usage: 
                TLS Web Client Authentication
            X509v3 Subject Key Identifier: 
                74:40:64:05:EE:A0:CD:B3:25:6C:47:7D:74:6C:B0:79:54:2C:8F:C1
            X509v3 Authority Key Identifier: 
                keyid:86:4F:B8:6D:18:2A:1B:3C:8F:27:34:29:F0:81:9F:BA:6E:61:0E:E1
                DirName:/C=CH/ST=Zug/L=Zug/O=Perfect Privacy/CN=Perfect Privacy/emailAddress=admin@perfect-privacy.com
                serial:FA:11:B5:C4:AA:69:AF:69

    Signature Algorithm: sha512WithRSAEncryption
         61:2a:57:83:08:cf:e5:e1:5e:53:fb:f1:25:04:41:7d:81:19:
         71:75:3d:0d:bf:f5:01:1f:30:c9:9e:e0:98:1f:ce:5f:11:5d:
         e1:8b:58:3f:c3:61:50:1f:ac:cc:da:d4:10:ca:4b:1a:9f:78:
         2a:57:07:74:6a:15:1f:36:28:99:89:ce:08:80:25:10:67:88:
         e8:e2:ae:da:04:96:11:dd:fe:95:20:ea:2c:cd:39:a9:2e:49:
         83:3c:4b:77:ef:da:fa:b1:17:cb:f7:ad:c1:7e:8b:b5:ce:c6:
         eb:2a:83:1a:39:61:bf:c3:d9:71:bf:78:1a:48:25:47:18:eb:
         8b:f4:5d:8d:f5:d0:27:98:02:e5:af:48:dd:d4:97:91:43:c2:
         c9:7d:80:e7:7a:1c:4d:2e:f1:72:1a:b0:78:d5:66:e1:d2:8f:
         ab:bc:f4:fb:c4:a7:c7:03:80:cf:52:94:8b:0a:88:d6:9c:b6:
         01:f9:09:a0:3e:32:6c:49:03:52:9e:44:3e:ee:34:8b:1b:72:
         3b:01:16:44:73:e5:2f:14:00:73:bd:1f:d5:58:ae:d0:42:f4:
         03:b4:d6:11:ae:39:80:29:8f:a1:e6:e1:9b:c2:16:d3:76:92:
         a7:6a:e3:a9:91:61:b2:de:25:c8:cc:fd:bb:65:07:73:f4:bd:
         6b:f0:20:48:dc:cc:22:64:dc:e2:44:d6:ad:f5:d9:0d:d1:b9:
         be:ea:64:c9:f8:ae:7e:38:6d:aa:61:65:3d:60:ac:c8:10:1b:
         e0:27:13:e3:49:d8:70:82:39:cd:d4:e1:af:36:ce:4a:fb:60:
         07:2d:b2:ad:9f:02:e1:14:cb:2a:3b:f5:79:78:78:13:da:28:
         af:02:62:63:ad:39:b7:85:c0:0e:3d:d2:c2:93:76:2f:55:c4:
         88:14:86:92:33:75:32:24:bd:96:cc:c0:15:cd:fe:b9:81:19:
         7d:36:63:b4:da:05:4e:9c:57:cf:fe:b7:15:81:a0:58:84:a2:
         c5:99:b6:f3:5c:f7:ac:51:cf:fb:54:f4:33:86:52:7c:e0:7a:
         41:c3:50:c6:fb:ba:9b:ef:85:91:5f:cd:5b:ef:f5:d0:70:51:
         af:9e:4f:4f:28:21:ad:ee:d6:33:96:4e:25:e4:f3:f1:e0:83:
         66:e9:fb:03:b7:fc:02:0b:6a:00:db:dd:44:12:4a:7a:4c:58:
         64:b7:c6:6c:c1:f8:82:c2:90:a8:15:86:79:74:a6:fe:c4:d2:
         91:c2:5d:de:07:01:28:0f:90:d0:83:64:bc:ab:5f:bf:38:e3:
         75:64:2a:f1:33:b2:b4:ab:72:be:cd:57:94:e0:4f:a5:e7:50:
         0d:79:21:23:c1:06:7a:78
-----BEGIN CERTIFICATE-----
MIIG3jCCBMagAwIBAgIIJpsKFDA9snUwDQYJKoZIhvcNAQENBQAwgYcxCzAJBgNV
BAYTAkNIMQwwCgYDVQQIEwNadWcxDDAKBgNVBAcTA1p1ZzEYMBYGA1UEChMPUGVy
ZmVjdCBQcml2YWN5MRgwFgYDVQQDEw9QZXJmZWN0IFByaXZhY3kxKDAmBgkqhkiG
9w0BCQEWGWFkbWluQHBlcmZlY3QtcHJpdmFjeS5jb20wHhcNMjIxMjIyMDAwMDAw
WhcNMjQwODE4MDAwMDAwWjCBijELMAkGA1UEBhMCQ0gxDDAKBgNVBAgTA1p1ZzEY
MBYGA1UEChMPUGVyZmVjdCBQcml2YWN5MSkwJwYDVQQDFCBDbGllbnRfbWlhbWku
cGVyZmVjdC1wcml2YWN5LmNvbTEoMCYGCSqGSIb3DQEJARYZYWRtaW5AcGVyZmVj
dC1wcml2YWN5LmNvbTCCAiIwDQYJKoZIhvcNAQEBBQADggIPADCCAgoCggIBAMA7
ib9L2VS9OM6Bt3E00DZFe9sw9/j4MEWboshAsh1ACJzozBmQl8Hjfd3B31RBgLkG
e/o8feY1DK59//w9mVdvsQxu0KNpFVcFcyMRkLGuhy7SeWH4UHhoTFKBPTGam+0F
IPsXixtseLvxybD+yCmNhj8B/dBtyAfJdmVpsGh1849+7STDpIMNa/W5+FsZXcN1
0tYnrhGMyQDM6VaArbOE8KF6vK1w3r0iL5lZiYAAr0hZUlUY/NCPWXkhFVqfPrXs
QTAixto+DD1RegqkGbHisZaPsf4lxD/wN8KW4jeJV8Spu5iNt80ucd0Sf4rww9PR
/MF7No3c9Fv/xG75CVtZb+XsmeGGPTRhEJBap0owyOtJKdVx3LdazPtOHp2MpNVg
0pAYbCJAGUHQkzW8/Uva7RiRd+gzJn6mk5SDbr43dC1Df4FinJ6hSObmxhR0oayH
fEW/HIgMasOTw6HKHQ5Ja0hWJLWrkn0n3Ac+lMqnbb9AQs1rlga9Vtot/I8tk5xB
ILBRiAJVmcJKl3pH38WS8kHlSu12xMhMf8d7xex1azIj+UF/BlhcAejZXYm1YKjN
OOF7g3uxxnwAQ6yNAFigO1K8OKF8dmnoKg++cWE10Uh+dJPzGi7oRw6TjzTi+wzz
wgSSThKPvNIU/Lcq/s/e6VRPEkXagtcSWAemBNIfAgMBAAGjggFHMIIBQzAJBgNV
HRMEAjAAMCMGCWCGSAGG+EIBDQQWFhRWUE4gVXNlciBDZXJ0aWZpY2F0ZTARBglg
hkgBhvhCAQEEBAMCB4AwCwYDVR0PBAQDAgeAMBMGA1UdJQQMMAoGCCsGAQUFBwMC
MB0GA1UdDgQWBBR0QGQF7qDNsyVsR310bLB5VCyPwTCBvAYDVR0jBIG0MIGxgBSG
T7htGCobPI8nNCnwgZ+6bmEO4aGBjaSBijCBhzELMAkGA1UEBhMCQ0gxDDAKBgNV
BAgTA1p1ZzEMMAoGA1UEBxMDWnVnMRgwFgYDVQQKEw9QZXJmZWN0IFByaXZhY3kx
GDAWBgNVBAMTD1BlcmZlY3QgUHJpdmFjeTEoMCYGCSqGSIb3DQEJARYZYWRtaW5A
cGVyZmVjdC1wcml2YWN5LmNvbYIJAPoRtcSqaa9pMA0GCSqGSIb3DQEBDQUAA4IC
AQBhKleDCM/l4V5T+/ElBEF9gRlxdT0Nv/UBHzDJnuCYH85fEV3hi1g/w2FQH6zM
2tQQyksan3gqVwd0ahUfNiiZic4IgCUQZ4jo4q7aBJYR3f6VIOoszTmpLkmDPEt3
79r6sRfL963Bfou1zsbrKoMaOWG/w9lxv3gaSCVHGOuL9F2N9dAnmALlr0jd1JeR
Q8LJfYDnehxNLvFyGrB41Wbh0o+rvPT7xKfHA4DPUpSLCojWnLYB+QmgPjJsSQNS
nkQ+7jSLG3I7ARZEc+UvFABzvR/VWK7QQvQDtNYRrjmAKY+h5uGbwhbTdpKnauOp
kWGy3iXIzP27ZQdz9L1r8CBI3MwiZNziRNat9dkN0bm+6mTJ+K5+OG2qYWU9YKzI
EBvgJxPjSdhwgjnN1OGvNs5K+2AHLbKtnwLhFMsqO/V5eHgT2iivAmJjrTm3hcAO
PdLCk3YvVcSIFIaSM3UyJL2WzMAVzf65gRl9NmO02gVOnFfP/rcVgaBYhKLFmbbz
XPesUc/7VPQzhlJ84HpBw1DG+7qb74WRX81b7/XQcFGvnk9PKCGt7tYzlk4l5PPx
4INm6fsDt/wCC2oA291EEkp6TFhkt8ZswfiCwpCoFYZ5dKb+xNKRwl3eBwEoD5DQ
g2S8q1+/OON1ZCrxM7K0q3K+zVeU4E+l51ANeSEjwQZ6eA==
-----END CERTIFICATE-----
