Certificate:
    Data:
        Version: 3 (0x2)
        Serial Number: 8711517209311929883 (0x78e586bf0bbd661b)
    Signature Algorithm: sha512WithRSAEncryption
        Issuer: C=CH, ST=Zug, L=Zug, O=Perfect Privacy, CN=Perfect Privacy/emailAddress=admin@perfect-privacy.com
        Validity
            Not Before: Jul  1 00:00:00 2023 GMT
            Not After : Feb 25 00:00:00 2025 GMT
        Subject: C=CH, ST=Zug, O=Perfect Privacy, CN=Client_madrid.perfect-privacy.com/emailAddress=admin@perfect-privacy.com
        Subject Public Key Info:
            Public Key Algorithm: rsaEncryption
                Public-Key: (4096 bit)
                Modulus:
                    00:ad:27:e2:00:fe:d9:dd:1d:39:44:7e:03:71:de:
                    5b:31:43:78:f8:cc:22:d5:65:b5:fe:d6:a3:ad:f1:
                    bd:6b:8c:d8:86:b7:ce:ac:12:82:bf:19:b2:bb:5d:
                    68:77:8b:f7:2a:80:20:3a:20:b3:c9:b9:f6:62:55:
                    44:f1:b0:78:b5:18:80:3d:d7:2b:fe:74:0a:72:b1:
                    b8:db:2b:ab:d9:97:50:0c:42:de:79:1c:cc:6f:78:
                    e9:c1:e8:b9:56:53:a1:96:b2:49:2b:b2:ec:61:9f:
                    88:86:2d:3f:0f:60:13:20:da:ca:33:e1:a0:44:db:
                    9d:eb:9d:5f:81:39:ec:33:52:af:71:00:9a:3e:d4:
                    b5:c9:ff:c4:26:d5:76:fe:fd:ba:3f:e7:76:de:51:
                    03:3b:76:2a:9b:e5:a5:fd:4a:59:f2:d8:35:68:32:
                    39:8c:5c:38:56:8d:2e:51:af:41:b7:3f:e6:bc:53:
                    b1:4a:8c:72:b7:3c:1e:7d:7b:42:a3:24:67:6d:f9:
                    a8:7d:88:1a:72:7a:05:8a:5d:bd:05:24:dc:55:78:
                    3b:a7:f3:9e:de:ea:59:d0:7b:0d:a9:b6:5b:4f:ae:
                    3d:71:f8:06:eb:93:d4:3e:69:c8:c5:c5:4a:8c:f7:
                    3c:50:04:02:94:e3:bf:9e:9a:7b:a7:4c:45:96:58:
                    5e:41:cb:24:78:ce:6c:48:84:99:ea:b3:51:06:27:
                    4d:49:45:3a:16:75:11:75:ed:08:34:7d:78:f7:2b:
                    3a:73:df:1c:17:72:cf:9a:d9:68:46:1a:a1:f4:f0:
                    af:db:f3:dd:b1:97:de:25:f5:9f:e5:c5:bf:11:78:
                    6e:c7:46:3b:f0:33:5c:d1:64:92:f7:27:2c:70:17:
                    8b:43:e6:bf:fb:3e:65:ac:34:16:9b:ba:8b:ba:0b:
                    e7:87:6f:82:84:02:ea:7b:1d:e5:99:8c:f6:a6:f5:
                    35:76:7b:c7:08:cb:2d:cc:ea:da:ac:0d:cc:63:0c:
                    44:d1:6f:0e:ee:e3:df:79:c1:a7:36:0d:91:e2:93:
                    4b:0f:ec:e8:0e:98:27:13:0d:b3:cf:50:71:d3:b5:
                    d6:10:39:f2:4d:ef:58:ec:11:ae:3c:52:7d:2e:99:
                    67:0d:a7:48:d7:32:7d:ee:0b:98:d7:95:fd:33:62:
                    77:30:17:76:30:72:f7:fc:17:6a:e3:42:12:8e:22:
                    25:75:73:0a:3f:64:a6:02:4b:81:4d:f2:c8:19:79:
                    eb:d7:ba:cc:fd:ee:a1:4f:11:38:23:82:5c:32:da:
                    eb:58:f4:ed:1b:63:65:3c:d3:29:c2:8e:73:b0:c7:
                    96:31:ad:4c:c2:4e:dd:b1:0c:2c:42:35:16:16:fe:
                    74:bd:79
                Exponent: 65537 (0x10001)
        X509v3 extensions:
            X509v3 Basic Constraints: 
                CA:FALSE
            Netscape Comment: 
                VPN User Certificate
            Netscape Cert Type: 
                SSL Client
            X509v3 Key Usage: 
                Digital Signature
            X509v3 Extended Key Usage: 
                TLS Web Client Authentication
            X509v3 Subject Key Identifier: 
                37:18:4E:69:AB:5C:FB:4B:03:99:B6:0D:90:A3:E5:F4:A0:E6:16:86
            X509v3 Authority Key Identifier: 
                keyid:86:4F:B8:6D:18:2A:1B:3C:8F:27:34:29:F0:81:9F:BA:6E:61:0E:E1
                DirName:/C=CH/ST=Zug/L=Zug/O=Perfect Privacy/CN=Perfect Privacy/emailAddress=admin@perfect-privacy.com
                serial:FA:11:B5:C4:AA:69:AF:69

    Signature Algorithm: sha512WithRSAEncryption
         68:a7:09:fd:fe:45:94:9a:9c:4b:3f:63:bf:c7:46:14:f3:e3:
         0b:0b:b0:e9:d9:32:e6:0b:3a:37:32:e5:2e:69:65:51:14:7f:
         ad:78:39:23:87:7e:c5:e9:01:e4:55:9c:43:b2:82:9a:06:ec:
         46:da:22:a7:ce:87:5f:97:3f:f5:60:2d:c7:96:8f:d6:f6:ba:
         4f:19:a8:1f:bd:d7:ae:4a:9e:6d:27:86:9e:e1:d2:04:71:be:
         9b:a9:09:3c:72:44:a2:32:05:53:30:43:f3:78:ab:9a:07:05:
         c2:ac:45:5a:36:3e:b7:50:60:2f:a1:a2:e2:a2:8a:9e:d9:0f:
         ca:2e:92:76:e9:cc:57:b2:cb:d7:a3:05:fb:3e:fd:d4:ba:86:
         e5:b3:10:91:de:64:20:ab:35:1d:04:55:43:80:cf:44:0d:cd:
         07:e8:94:65:47:90:31:a7:5c:7e:63:eb:da:ef:65:fb:a1:12:
         10:06:58:80:6d:77:ec:59:2b:5b:14:79:61:e0:b9:7c:25:62:
         45:50:f4:21:46:29:1d:2b:d7:5a:93:72:df:fe:be:16:7a:f3:
         a2:3a:5d:cb:7a:8d:f8:01:90:95:c6:9e:36:e0:68:02:d9:9c:
         70:5b:ee:84:27:3f:10:8e:99:45:7e:e6:3f:30:e6:e7:5b:b8:
         32:4e:f9:e7:73:f3:d3:e9:25:5b:0d:ab:98:90:68:94:33:26:
         b0:b4:68:59:4a:2d:48:20:89:51:a8:db:29:e1:ab:f3:f5:6b:
         f5:09:38:04:40:d7:fe:92:20:90:cd:08:38:c4:64:11:6f:5b:
         11:78:fe:10:02:2f:07:ec:d8:2c:1c:9d:b3:43:3b:75:de:a2:
         bc:38:fb:be:6b:b9:27:26:be:92:6a:a6:86:21:24:d1:1d:15:
         b3:f8:67:67:6a:81:16:59:f3:a0:ae:d7:c6:b2:c6:5e:cb:7b:
         71:6a:9c:a4:7b:2a:e7:8f:7c:6c:e6:78:9c:0c:c2:6f:ba:b8:
         77:a7:f3:b3:15:ba:e3:ec:10:c9:8b:79:2b:df:94:29:d5:3b:
         6c:6c:49:43:12:cc:5b:2a:94:b6:00:39:39:2b:94:63:e6:d4:
         3a:1e:28:57:82:c7:d5:a8:98:6c:9a:a3:44:7d:a6:9f:98:a4:
         5f:64:96:da:02:86:81:99:92:45:0e:e1:ab:32:10:2c:a1:5c:
         93:ea:db:1d:aa:2e:d0:0d:ec:b6:44:6b:05:bb:a5:ff:fb:a5:
         2f:fd:59:b7:1e:16:da:70:e5:81:8e:e0:f4:0d:4a:f5:a2:b0:
         f3:63:04:0a:bd:65:e0:d1:94:e8:55:fc:e1:f3:83:e3:57:74:
         47:83:81:8b:8d:80:9b:ab
-----BEGIN CERTIFICATE-----
MIIG3zCCBMegAwIBAgIIeOWGvwu9ZhswDQYJKoZIhvcNAQENBQAwgYcxCzAJBgNV
BAYTAkNIMQwwCgYDVQQIEwNadWcxDDAKBgNVBAcTA1p1ZzEYMBYGA1UEChMPUGVy
ZmVjdCBQcml2YWN5MRgwFgYDVQQDEw9QZXJmZWN0IFByaXZhY3kxKDAmBgkqhkiG
9w0BCQEWGWFkbWluQHBlcmZlY3QtcHJpdmFjeS5jb20wHhcNMjMwNzAxMDAwMDAw
WhcNMjUwMjI1MDAwMDAwWjCBizELMAkGA1UEBhMCQ0gxDDAKBgNVBAgTA1p1ZzEY
MBYGA1UEChMPUGVyZmVjdCBQcml2YWN5MSowKAYDVQQDFCFDbGllbnRfbWFkcmlk
LnBlcmZlY3QtcHJpdmFjeS5jb20xKDAmBgkqhkiG9w0BCQEWGWFkbWluQHBlcmZl
Y3QtcHJpdmFjeS5jb20wggIiMA0GCSqGSIb3DQEBAQUAA4ICDwAwggIKAoICAQCt
J+IA/tndHTlEfgNx3lsxQ3j4zCLVZbX+1qOt8b1rjNiGt86sEoK/GbK7XWh3i/cq
gCA6ILPJufZiVUTxsHi1GIA91yv+dApysbjbK6vZl1AMQt55HMxveOnB6LlWU6GW
skkrsuxhn4iGLT8PYBMg2soz4aBE253rnV+BOewzUq9xAJo+1LXJ/8Qm1Xb+/bo/
53beUQM7diqb5aX9Slny2DVoMjmMXDhWjS5Rr0G3P+a8U7FKjHK3PB59e0KjJGdt
+ah9iBpyegWKXb0FJNxVeDun857e6lnQew2ptltPrj1x+Abrk9Q+acjFxUqM9zxQ
BAKU47+emnunTEWWWF5ByyR4zmxIhJnqs1EGJ01JRToWdRF17Qg0fXj3Kzpz3xwX
cs+a2WhGGqH08K/b892xl94l9Z/lxb8ReG7HRjvwM1zRZJL3JyxwF4tD5r/7PmWs
NBabuou6C+eHb4KEAup7HeWZjPam9TV2e8cIyy3M6tqsDcxjDETRbw7u4995wac2
DZHik0sP7OgOmCcTDbPPUHHTtdYQOfJN71jsEa48Un0umWcNp0jXMn3uC5jXlf0z
YncwF3Ywcvf8F2rjQhKOIiV1cwo/ZKYCS4FN8sgZeevXusz97qFPETgjglwy2utY
9O0bY2U80ynCjnOwx5YxrUzCTt2xDCxCNRYW/nS9eQIDAQABo4IBRzCCAUMwCQYD
VR0TBAIwADAjBglghkgBhvhCAQ0EFhYUVlBOIFVzZXIgQ2VydGlmaWNhdGUwEQYJ
YIZIAYb4QgEBBAQDAgeAMAsGA1UdDwQEAwIHgDATBgNVHSUEDDAKBggrBgEFBQcD
AjAdBgNVHQ4EFgQUNxhOaatc+0sDmbYNkKPl9KDmFoYwgbwGA1UdIwSBtDCBsYAU
hk+4bRgqGzyPJzQp8IGfum5hDuGhgY2kgYowgYcxCzAJBgNVBAYTAkNIMQwwCgYD
VQQIEwNadWcxDDAKBgNVBAcTA1p1ZzEYMBYGA1UEChMPUGVyZmVjdCBQcml2YWN5
MRgwFgYDVQQDEw9QZXJmZWN0IFByaXZhY3kxKDAmBgkqhkiG9w0BCQEWGWFkbWlu
QHBlcmZlY3QtcHJpdmFjeS5jb22CCQD6EbXEqmmvaTANBgkqhkiG9w0BAQ0FAAOC
AgEAaKcJ/f5FlJqcSz9jv8dGFPPjCwuw6dky5gs6NzLlLmllURR/rXg5I4d+xekB
5FWcQ7KCmgbsRtoip86HX5c/9WAtx5aP1va6TxmoH73XrkqebSeGnuHSBHG+m6kJ
PHJEojIFUzBD83irmgcFwqxFWjY+t1BgL6Gi4qKKntkPyi6SdunMV7LL16MF+z79
1LqG5bMQkd5kIKs1HQRVQ4DPRA3NB+iUZUeQMadcfmPr2u9l+6ESEAZYgG137Fkr
WxR5YeC5fCViRVD0IUYpHSvXWpNy3/6+Fnrzojpdy3qN+AGQlcaeNuBoAtmccFvu
hCc/EI6ZRX7mPzDm51u4Mk7553Pz0+klWw2rmJBolDMmsLRoWUotSCCJUajbKeGr
8/Vr9Qk4BEDX/pIgkM0IOMRkEW9bEXj+EAIvB+zYLByds0M7dd6ivDj7vmu5Jya+
kmqmhiEk0R0Vs/hnZ2qBFlnzoK7XxrLGXst7cWqcpHsq5498bOZ4nAzCb7q4d6fz
sxW64+wQyYt5K9+UKdU7bGxJQxLMWyqUtgA5OSuUY+bUOh4oV4LH1aiYbJqjRH2m
n5ikX2SW2gKGgZmSRQ7hqzIQLKFck+rbHaou0A3stkRrBbul//ulL/1Ztx4W2nDl
gY7g9A1K9aKw82MECr1l4NGU6FX84fOD41d0R4OBi42Am6s=
-----END CERTIFICATE-----
