Certificate:
    Data:
        Version: 3 (0x2)
        Serial Number:
            ca:ee:3d:00:73:c1:70:ab
    Signature Algorithm: sha512WithRSAEncryption
        Issuer: C=CH, ST=Zug, L=Zug, O=Perfect Privacy, CN=Perfect Privacy/emailAddress=admin@perfect-privacy.com
        Validity
            Not Before: Mar 10 00:00:00 2023 GMT
            Not After : Nov  4 00:00:00 2024 GMT
        Subject: C=CH, ST=Zug, O=Perfect Privacy, CN=Client_manchester.perfect-privacy.com/emailAddress=admin@perfect-privacy.com
        Subject Public Key Info:
            Public Key Algorithm: rsaEncryption
                Public-Key: (4096 bit)
                Modulus:
                    00:ca:53:94:95:81:e6:01:98:ab:b7:64:98:63:bd:
                    7b:dd:fa:a0:a9:4f:81:0a:f7:80:81:74:68:a5:f6:
                    89:99:85:35:51:b7:af:45:c0:58:8b:41:80:73:d1:
                    25:49:33:3e:62:52:41:b9:3f:92:d5:33:0e:54:a4:
                    96:47:55:23:1a:bd:ce:82:bb:95:ee:40:27:db:47:
                    db:d6:cc:b6:b7:e4:02:9f:eb:aa:56:2e:18:19:6e:
                    a9:1d:b5:4e:95:05:4c:9d:1c:bf:6d:84:46:c0:6e:
                    aa:69:7c:a0:6a:ab:a4:63:ee:53:b2:d5:5d:a3:24:
                    6c:f0:d0:d8:01:57:67:d3:7b:ba:56:8b:31:6c:9c:
                    c7:28:5a:6d:5d:1a:7e:55:e3:fc:24:98:fe:84:3c:
                    d1:29:96:96:82:0f:e8:16:1b:6a:45:8c:b8:eb:ae:
                    37:55:9f:10:79:8e:96:44:f5:ff:c8:42:2e:09:8d:
                    9f:a4:b8:6c:a7:f4:0c:d4:5c:b0:3f:a9:05:13:5b:
                    b9:15:fd:82:84:c6:a6:ad:d4:b4:de:4f:43:6c:45:
                    31:cf:a6:a5:d1:93:bc:d6:ad:db:4f:7a:21:d9:c3:
                    3e:c3:bc:56:6b:e9:1c:e6:7e:e3:b6:b8:97:b6:e0:
                    d5:79:ee:43:bd:e4:24:bc:88:0b:77:28:78:2b:dd:
                    b7:a8:0a:ce:9a:27:48:fd:87:fa:b7:b5:4c:7f:7b:
                    ec:80:ae:0e:2d:b8:7c:9e:ec:cc:06:e0:a6:25:8a:
                    a3:0d:b2:3a:4c:73:1b:ce:5c:98:1c:af:f8:e1:1d:
                    fd:a4:b0:4b:96:f7:eb:bd:84:18:97:29:29:9c:7f:
                    1a:1a:f6:cd:6e:25:f0:06:6f:6d:fd:ff:a2:59:c2:
                    f1:62:aa:b5:6b:99:29:05:72:86:e1:e5:6e:d2:a0:
                    f7:72:5f:0d:ab:79:33:7b:ce:0f:c5:cf:bc:fb:00:
                    ea:05:0d:3a:64:cd:b1:30:a4:68:0d:55:da:6e:8a:
                    35:66:51:92:fb:a2:f2:07:cd:8f:7d:c2:67:2b:c7:
                    2a:15:aa:1f:25:da:7d:69:c2:06:59:15:8e:c7:f7:
                    71:a0:bb:67:97:f8:c1:96:94:18:eb:e7:3e:9c:58:
                    3d:d4:24:97:2c:a6:db:55:93:9d:b1:1f:19:22:36:
                    2a:38:d5:55:7e:c8:b8:c5:9d:66:ca:c8:08:a8:a5:
                    57:59:2a:9b:54:a0:33:b9:31:e7:b9:f6:c2:15:2b:
                    5e:b4:fe:d6:cb:cd:4c:41:3d:c9:1f:b6:21:e5:0c:
                    6d:4a:98:9b:82:ad:b7:f3:cc:9a:91:d2:6e:25:4d:
                    01:35:78:23:38:fb:f2:1a:79:2c:52:74:ba:1c:27:
                    f2:b4:f5
                Exponent: 65537 (0x10001)
        X509v3 extensions:
            X509v3 Basic Constraints: 
                CA:FALSE
            Netscape Comment: 
                VPN User Certificate
            Netscape Cert Type: 
                SSL Client
            X509v3 Key Usage: 
                Digital Signature
            X509v3 Extended Key Usage: 
                TLS Web Client Authentication
            X509v3 Subject Key Identifier: 
                2D:D9:00:AE:30:4A:CF:CE:52:CD:34:59:80:D2:1E:88:E5:DA:65:3F
            X509v3 Authority Key Identifier: 
                keyid:86:4F:B8:6D:18:2A:1B:3C:8F:27:34:29:F0:81:9F:BA:6E:61:0E:E1
                DirName:/C=CH/ST=Zug/L=Zug/O=Perfect Privacy/CN=Perfect Privacy/emailAddress=admin@perfect-privacy.com
                serial:FA:11:B5:C4:AA:69:AF:69

    Signature Algorithm: sha512WithRSAEncryption
         9b:5c:15:3b:35:6e:4a:b1:0a:6a:aa:0b:63:30:a9:cd:1c:78:
         39:67:d2:5b:43:98:ff:ed:28:a0:38:6e:c2:52:9a:3d:33:83:
         29:0c:fd:3b:4c:e3:b0:4c:7c:a8:7a:cb:5a:d7:e4:06:fa:04:
         6f:95:f7:c1:12:2a:14:4b:e3:35:e8:e7:a5:2d:d9:57:6d:d2:
         4e:65:19:4c:a4:d0:16:39:34:ca:09:f3:eb:75:ba:1f:74:3f:
         e7:69:a4:9a:ea:d4:4d:bf:ca:3c:12:c6:02:6c:a6:2a:8f:0e:
         ce:0d:ee:50:f8:24:6e:85:09:b9:57:45:45:ab:2a:c7:8e:54:
         72:16:d0:1c:ee:ea:04:a0:48:df:5f:3e:e4:3c:9f:f8:cc:b5:
         e0:3e:4b:87:0a:8f:26:0c:6b:9e:68:98:3c:27:2e:47:ce:b1:
         fa:b2:9e:b4:5a:82:64:6c:ec:5f:eb:cb:87:76:0e:dc:41:3d:
         bc:70:8a:9a:69:36:15:8f:ba:3d:29:11:66:26:92:a6:23:de:
         a5:2e:db:8b:3a:b8:ec:04:5b:3c:fe:5b:96:b1:15:39:e6:f9:
         8f:4f:4f:63:60:02:32:1d:c1:06:3d:cf:42:57:cd:09:54:71:
         5a:47:24:4f:fe:6c:c9:41:76:e6:5c:d8:d9:33:6c:93:8e:32:
         6a:73:13:06:a0:0b:4b:78:c2:f6:49:83:e0:49:d2:8b:a1:59:
         e5:58:fc:38:f4:fa:b4:f6:84:36:27:5d:c7:94:e1:73:9c:bd:
         c6:2a:4c:18:fb:0d:7a:87:09:38:01:b6:1e:fa:f7:6c:10:99:
         b5:91:7c:ac:b3:8a:99:51:15:95:3b:28:b8:b2:43:f3:bd:d1:
         67:be:c3:55:6b:ca:8c:ce:b3:ed:ff:a7:c7:b1:c7:94:93:33:
         88:60:80:19:9e:c8:ab:75:2e:80:d3:0f:4f:04:19:e4:96:43:
         f4:15:4e:f4:11:5b:7a:ba:37:ca:f6:10:41:7d:64:c0:b0:73:
         b2:c4:06:95:4f:24:76:93:6a:49:5e:b9:e0:25:90:54:69:c0:
         07:ac:ec:18:db:22:6c:8e:5d:53:c3:b6:12:aa:e6:99:8f:e6:
         3f:5a:8c:4b:02:c8:c4:cb:dc:44:55:3e:84:36:ea:aa:59:88:
         48:c5:18:4b:76:10:c7:f5:66:12:21:db:0b:a8:dd:f0:3e:a5:
         12:d7:dd:f9:eb:e6:78:e5:cb:14:ae:dc:6f:78:0e:6c:b4:ac:
         cb:85:f6:8c:9a:69:c3:b1:88:90:f0:bc:ab:f9:bd:91:b1:1d:
         40:b8:0b:b8:68:c2:9f:ac:70:dc:05:5f:7a:c1:c5:85:9e:db:
         ad:56:48:77:c7:8c:29:a6
-----BEGIN CERTIFICATE-----
MIIG5DCCBMygAwIBAgIJAMruPQBzwXCrMA0GCSqGSIb3DQEBDQUAMIGHMQswCQYD
VQQGEwJDSDEMMAoGA1UECBMDWnVnMQwwCgYDVQQHEwNadWcxGDAWBgNVBAoTD1Bl
cmZlY3QgUHJpdmFjeTEYMBYGA1UEAxMPUGVyZmVjdCBQcml2YWN5MSgwJgYJKoZI
hvcNAQkBFhlhZG1pbkBwZXJmZWN0LXByaXZhY3kuY29tMB4XDTIzMDMxMDAwMDAw
MFoXDTI0MTEwNDAwMDAwMFowgY8xCzAJBgNVBAYTAkNIMQwwCgYDVQQIEwNadWcx
GDAWBgNVBAoTD1BlcmZlY3QgUHJpdmFjeTEuMCwGA1UEAxQlQ2xpZW50X21hbmNo
ZXN0ZXIucGVyZmVjdC1wcml2YWN5LmNvbTEoMCYGCSqGSIb3DQEJARYZYWRtaW5A
cGVyZmVjdC1wcml2YWN5LmNvbTCCAiIwDQYJKoZIhvcNAQEBBQADggIPADCCAgoC
ggIBAMpTlJWB5gGYq7dkmGO9e936oKlPgQr3gIF0aKX2iZmFNVG3r0XAWItBgHPR
JUkzPmJSQbk/ktUzDlSklkdVIxq9zoK7le5AJ9tH29bMtrfkAp/rqlYuGBluqR21
TpUFTJ0cv22ERsBuqml8oGqrpGPuU7LVXaMkbPDQ2AFXZ9N7ulaLMWycxyhabV0a
flXj/CSY/oQ80SmWloIP6BYbakWMuOuuN1WfEHmOlkT1/8hCLgmNn6S4bKf0DNRc
sD+pBRNbuRX9goTGpq3UtN5PQ2xFMc+mpdGTvNat2096IdnDPsO8VmvpHOZ+47a4
l7bg1XnuQ73kJLyIC3coeCvdt6gKzponSP2H+re1TH977ICuDi24fJ7szAbgpiWK
ow2yOkxzG85cmByv+OEd/aSwS5b3672EGJcpKZx/Ghr2zW4l8AZvbf3/olnC8WKq
tWuZKQVyhuHlbtKg93JfDat5M3vOD8XPvPsA6gUNOmTNsTCkaA1V2m6KNWZRkvui
8gfNj33CZyvHKhWqHyXafWnCBlkVjsf3caC7Z5f4wZaUGOvnPpxYPdQklyym21WT
nbEfGSI2KjjVVX7IuMWdZsrICKilV1kqm1SgM7kx57n2whUrXrT+1svNTEE9yR+2
IeUMbUqYm4Ktt/PMmpHSbiVNATV4Izj78hp5LFJ0uhwn8rT1AgMBAAGjggFHMIIB
QzAJBgNVHRMEAjAAMCMGCWCGSAGG+EIBDQQWFhRWUE4gVXNlciBDZXJ0aWZpY2F0
ZTARBglghkgBhvhCAQEEBAMCB4AwCwYDVR0PBAQDAgeAMBMGA1UdJQQMMAoGCCsG
AQUFBwMCMB0GA1UdDgQWBBQt2QCuMErPzlLNNFmA0h6I5dplPzCBvAYDVR0jBIG0
MIGxgBSGT7htGCobPI8nNCnwgZ+6bmEO4aGBjaSBijCBhzELMAkGA1UEBhMCQ0gx
DDAKBgNVBAgTA1p1ZzEMMAoGA1UEBxMDWnVnMRgwFgYDVQQKEw9QZXJmZWN0IFBy
aXZhY3kxGDAWBgNVBAMTD1BlcmZlY3QgUHJpdmFjeTEoMCYGCSqGSIb3DQEJARYZ
YWRtaW5AcGVyZmVjdC1wcml2YWN5LmNvbYIJAPoRtcSqaa9pMA0GCSqGSIb3DQEB
DQUAA4ICAQCbXBU7NW5KsQpqqgtjMKnNHHg5Z9JbQ5j/7SigOG7CUpo9M4MpDP07
TOOwTHyoesta1+QG+gRvlffBEioUS+M16OelLdlXbdJOZRlMpNAWOTTKCfPrdbof
dD/naaSa6tRNv8o8EsYCbKYqjw7ODe5Q+CRuhQm5V0VFqyrHjlRyFtAc7uoEoEjf
Xz7kPJ/4zLXgPkuHCo8mDGueaJg8Jy5HzrH6sp60WoJkbOxf68uHdg7cQT28cIqa
aTYVj7o9KRFmJpKmI96lLtuLOrjsBFs8/luWsRU55vmPT09jYAIyHcEGPc9CV80J
VHFaRyRP/mzJQXbmXNjZM2yTjjJqcxMGoAtLeML2SYPgSdKLoVnlWPw49Pq09oQ2
J13HlOFznL3GKkwY+w16hwk4AbYe+vdsEJm1kXyss4qZURWVOyi4skPzvdFnvsNV
a8qMzrPt/6fHsceUkzOIYIAZnsirdS6A0w9PBBnklkP0FU70EVt6ujfK9hBBfWTA
sHOyxAaVTyR2k2pJXrngJZBUacAHrOwY2yJsjl1Tw7YSquaZj+Y/WoxLAsjEy9xE
VT6ENuqqWYhIxRhLdhDH9WYSIdsLqN3wPqUS19356+Z45csUrtxveA5stKzLhfaM
mmnDsYiQ8Lyr+b2RsR1AuAu4aMKfrHDcBV96wcWFntutVkh3x4wppg==
-----END CERTIFICATE-----
