Certificate:
    Data:
        Version: 3 (0x2)
        Serial Number:
            ed:ca:09:d4:a9:7f:76:b8
    Signature Algorithm: sha512WithRSAEncryption
        Issuer: C=CH, ST=Zug, L=Zug, O=Perfect Privacy, CN=Perfect Privacy/emailAddress=admin@perfect-privacy.com
        Validity
            Not Before: Jun 10 00:00:00 2023 GMT
            Not After : Feb  4 00:00:00 2025 GMT
        Subject: C=CH, ST=Zug, O=Perfect Privacy, CN=Client_miami.perfect-privacy.com/emailAddress=admin@perfect-privacy.com
        Subject Public Key Info:
            Public Key Algorithm: rsaEncryption
                Public-Key: (4096 bit)
                Modulus:
                    00:ba:c5:b2:91:7a:7a:15:62:b0:26:5e:13:8e:d8:
                    bf:83:87:bc:07:a4:db:7a:77:69:63:17:c5:51:0c:
                    b1:9c:90:4b:3c:28:f4:fe:e5:88:79:f4:8b:88:73:
                    e7:83:03:c3:dc:58:3a:50:d9:f1:ea:d1:01:0e:e1:
                    2f:2a:f0:a3:7f:95:db:12:7e:3c:50:9f:63:3e:59:
                    f7:da:d6:79:41:f5:00:fc:90:da:51:f7:2e:42:f5:
                    1e:b1:d6:c3:43:06:69:a2:73:72:64:51:aa:97:4c:
                    f3:1d:76:fb:5a:1e:c9:d2:9c:32:3a:d7:6c:23:29:
                    f0:fa:35:66:3e:da:42:41:fa:fd:2d:25:4b:9c:2e:
                    86:a4:35:93:dc:c3:5b:09:14:d6:3b:05:7b:96:6c:
                    86:57:ad:c9:82:21:a4:e8:a6:66:06:47:b6:b7:b8:
                    e4:46:1e:d8:2c:c0:b9:9f:b5:53:ea:81:02:61:ea:
                    da:1f:e9:44:e0:9e:78:be:03:f8:db:a1:18:f8:8f:
                    4c:6f:1c:f7:b5:e9:41:c2:05:86:9d:96:4d:de:8b:
                    58:4b:62:fc:92:17:f4:4e:5b:0c:be:0f:39:66:e1:
                    7a:3d:77:27:87:dc:e2:94:cc:58:4d:29:99:83:27:
                    13:07:0a:11:48:f6:ea:bd:5c:9f:49:32:ec:b9:6d:
                    79:9a:3d:c6:09:16:e0:b1:40:03:ac:b0:38:6b:fd:
                    0d:c2:a9:ca:35:ef:32:96:3d:56:b1:8e:d4:26:90:
                    ee:e6:49:19:b1:8d:fe:fa:bb:f2:03:ba:e2:97:bd:
                    07:6f:66:99:8a:cc:ef:b3:0d:bc:d3:43:53:08:6b:
                    5c:50:b6:53:49:7c:ae:2a:2e:8b:36:19:bc:dd:dd:
                    7a:8f:e0:fd:fd:42:f3:80:0e:69:ff:17:55:a2:ee:
                    3b:38:5b:58:5a:52:22:55:82:4e:d3:ce:67:4b:a9:
                    4e:df:71:91:db:a4:bb:ce:79:1f:2c:67:a7:27:8b:
                    13:63:32:cc:5a:8d:13:6c:dc:4c:ff:75:ba:8c:42:
                    52:5f:e1:56:cd:d0:b4:45:e5:63:9f:1c:c6:e4:5c:
                    05:82:66:2d:8a:5c:95:eb:43:3f:6e:d2:f6:cd:40:
                    12:7a:f7:bd:85:71:d4:aa:90:cf:7e:63:f3:ea:5a:
                    74:f5:96:05:df:da:ca:bf:26:4d:8e:f0:cd:70:f6:
                    84:d3:a3:ff:fc:22:1a:37:f1:fa:54:c5:c8:35:50:
                    d9:5b:e5:7d:85:3c:80:d7:5f:ca:f3:e0:be:6f:1b:
                    45:d5:48:ad:7a:06:ca:ba:b5:2b:08:a8:22:fa:b8:
                    ef:e8:7b:e4:60:81:5b:22:3d:4f:70:6c:f7:43:ac:
                    fd:87:fd
                Exponent: 65537 (0x10001)
        X509v3 extensions:
            X509v3 Basic Constraints: 
                CA:FALSE
            Netscape Comment: 
                VPN User Certificate
            Netscape Cert Type: 
                SSL Client
            X509v3 Key Usage: 
                Digital Signature
            X509v3 Extended Key Usage: 
                TLS Web Client Authentication
            X509v3 Subject Key Identifier: 
                4B:23:87:9A:E1:07:95:FC:C2:17:41:AF:83:10:14:5E:8F:CF:CA:BC
            X509v3 Authority Key Identifier: 
                keyid:86:4F:B8:6D:18:2A:1B:3C:8F:27:34:29:F0:81:9F:BA:6E:61:0E:E1
                DirName:/C=CH/ST=Zug/L=Zug/O=Perfect Privacy/CN=Perfect Privacy/emailAddress=admin@perfect-privacy.com
                serial:FA:11:B5:C4:AA:69:AF:69

    Signature Algorithm: sha512WithRSAEncryption
         12:4e:94:57:9c:41:56:4c:50:8d:1b:a7:08:e6:81:ee:2e:35:
         b9:73:7c:86:0f:64:17:92:be:e8:70:06:5d:41:06:07:49:0f:
         74:10:d8:ce:66:1c:e7:03:dd:a4:0c:be:8a:fa:21:f7:02:14:
         8a:c9:ed:37:d4:c7:a5:5d:fe:01:f1:84:7e:64:f4:05:75:e2:
         14:d2:55:81:24:af:43:64:b4:4b:86:96:cf:14:3e:14:00:c5:
         b4:cd:7c:4b:b4:eb:0d:fb:4f:10:d7:03:a1:c2:f6:e9:57:40:
         a1:05:93:f7:53:92:56:2a:1c:ea:f4:d9:cf:d5:ab:60:3d:b4:
         2c:1b:ec:81:ed:8b:20:f7:1e:e8:9d:0f:32:26:6b:a3:0f:27:
         5c:f8:0c:08:2d:58:ca:f0:77:70:31:fd:b1:c2:cb:2f:41:95:
         1e:b3:2a:aa:9a:9e:e3:55:6d:ae:93:a6:de:a5:b6:f8:1b:b6:
         04:ea:64:fc:7e:81:8a:12:c4:cb:99:55:1b:70:cf:a9:f3:0b:
         48:c7:5f:c4:66:93:88:b8:5a:f6:90:74:82:e6:93:8d:77:d4:
         0a:92:0d:07:c0:4b:91:b3:e0:ea:da:55:a3:e2:36:a1:76:cb:
         9e:16:b3:96:b5:cc:0d:83:48:59:2f:5e:6b:63:33:60:16:14:
         0c:61:e3:7d:1d:5d:3f:fa:0f:d3:b6:aa:66:21:bb:61:62:83:
         c1:c5:dc:fa:1a:11:5f:f1:c0:43:37:36:e5:c7:42:e0:3f:7e:
         51:b6:13:97:a0:5e:a4:5e:27:72:88:cc:ed:e1:f1:44:67:e5:
         0d:43:8e:a8:6a:12:77:da:cc:89:43:19:90:0b:ed:df:de:28:
         70:3a:21:bc:b3:5a:23:32:fd:ab:c4:9d:c2:78:b6:dc:07:55:
         68:ea:92:90:5b:01:0b:2c:58:bf:ee:92:ac:bd:ec:1e:dc:5c:
         27:b4:a2:d4:36:6a:90:02:3e:74:39:91:a5:60:f8:53:65:c8:
         74:59:a8:af:76:fb:5d:44:6e:c6:bf:2f:f5:33:b7:62:99:63:
         99:56:a4:8d:8e:58:3e:cc:5b:ca:0b:55:92:da:4e:8a:da:32:
         69:50:09:37:4e:05:9d:ae:39:e2:f1:88:a2:6d:6b:60:f4:d7:
         2c:5b:42:8c:f9:4e:f6:6d:09:20:de:1a:9b:39:7b:ce:54:46:
         16:04:09:6f:6c:21:d3:bb:b1:86:66:27:bc:53:70:98:bf:dc:
         d2:6f:55:05:61:94:f6:8a:29:31:21:41:e3:bf:5c:60:8c:d3:
         54:3d:7f:7d:b3:04:89:f6:90:d9:b2:b8:1d:38:e1:c8:46:48:
         15:94:9d:27:ea:11:aa:61
-----BEGIN CERTIFICATE-----
MIIG3zCCBMegAwIBAgIJAO3KCdSpf3a4MA0GCSqGSIb3DQEBDQUAMIGHMQswCQYD
VQQGEwJDSDEMMAoGA1UECBMDWnVnMQwwCgYDVQQHEwNadWcxGDAWBgNVBAoTD1Bl
cmZlY3QgUHJpdmFjeTEYMBYGA1UEAxMPUGVyZmVjdCBQcml2YWN5MSgwJgYJKoZI
hvcNAQkBFhlhZG1pbkBwZXJmZWN0LXByaXZhY3kuY29tMB4XDTIzMDYxMDAwMDAw
MFoXDTI1MDIwNDAwMDAwMFowgYoxCzAJBgNVBAYTAkNIMQwwCgYDVQQIEwNadWcx
GDAWBgNVBAoTD1BlcmZlY3QgUHJpdmFjeTEpMCcGA1UEAxQgQ2xpZW50X21pYW1p
LnBlcmZlY3QtcHJpdmFjeS5jb20xKDAmBgkqhkiG9w0BCQEWGWFkbWluQHBlcmZl
Y3QtcHJpdmFjeS5jb20wggIiMA0GCSqGSIb3DQEBAQUAA4ICDwAwggIKAoICAQC6
xbKRenoVYrAmXhOO2L+Dh7wHpNt6d2ljF8VRDLGckEs8KPT+5Yh59IuIc+eDA8Pc
WDpQ2fHq0QEO4S8q8KN/ldsSfjxQn2M+Wffa1nlB9QD8kNpR9y5C9R6x1sNDBmmi
c3JkUaqXTPMddvtaHsnSnDI612wjKfD6NWY+2kJB+v0tJUucLoakNZPcw1sJFNY7
BXuWbIZXrcmCIaTopmYGR7a3uORGHtgswLmftVPqgQJh6tof6UTgnni+A/jboRj4
j0xvHPe16UHCBYadlk3ei1hLYvySF/ROWwy+Dzlm4Xo9dyeH3OKUzFhNKZmDJxMH
ChFI9uq9XJ9JMuy5bXmaPcYJFuCxQAOssDhr/Q3Cqco17zKWPVaxjtQmkO7mSRmx
jf76u/IDuuKXvQdvZpmKzO+zDbzTQ1MIa1xQtlNJfK4qLos2Gbzd3XqP4P39QvOA
Dmn/F1Wi7js4W1haUiJVgk7TzmdLqU7fcZHbpLvOeR8sZ6cnixNjMsxajRNs3Ez/
dbqMQlJf4VbN0LRF5WOfHMbkXAWCZi2KXJXrQz9u0vbNQBJ6972FcdSqkM9+Y/Pq
WnT1lgXf2sq/Jk2O8M1w9oTTo//8Iho38fpUxcg1UNlb5X2FPIDXX8rz4L5vG0XV
SK16Bsq6tSsIqCL6uO/oe+RggVsiPU9wbPdDrP2H/QIDAQABo4IBRzCCAUMwCQYD
VR0TBAIwADAjBglghkgBhvhCAQ0EFhYUVlBOIFVzZXIgQ2VydGlmaWNhdGUwEQYJ
YIZIAYb4QgEBBAQDAgeAMAsGA1UdDwQEAwIHgDATBgNVHSUEDDAKBggrBgEFBQcD
AjAdBgNVHQ4EFgQUSyOHmuEHlfzCF0GvgxAUXo/PyrwwgbwGA1UdIwSBtDCBsYAU
hk+4bRgqGzyPJzQp8IGfum5hDuGhgY2kgYowgYcxCzAJBgNVBAYTAkNIMQwwCgYD
VQQIEwNadWcxDDAKBgNVBAcTA1p1ZzEYMBYGA1UEChMPUGVyZmVjdCBQcml2YWN5
MRgwFgYDVQQDEw9QZXJmZWN0IFByaXZhY3kxKDAmBgkqhkiG9w0BCQEWGWFkbWlu
QHBlcmZlY3QtcHJpdmFjeS5jb22CCQD6EbXEqmmvaTANBgkqhkiG9w0BAQ0FAAOC
AgEAEk6UV5xBVkxQjRunCOaB7i41uXN8hg9kF5K+6HAGXUEGB0kPdBDYzmYc5wPd
pAy+ivoh9wIUisntN9THpV3+AfGEfmT0BXXiFNJVgSSvQ2S0S4aWzxQ+FADFtM18
S7TrDftPENcDocL26VdAoQWT91OSVioc6vTZz9WrYD20LBvsge2LIPce6J0PMiZr
ow8nXPgMCC1YyvB3cDH9scLLL0GVHrMqqpqe41VtrpOm3qW2+Bu2BOpk/H6BihLE
y5lVG3DPqfMLSMdfxGaTiLha9pB0guaTjXfUCpINB8BLkbPg6tpVo+I2oXbLnhaz
lrXMDYNIWS9ea2MzYBYUDGHjfR1dP/oP07aqZiG7YWKDwcXc+hoRX/HAQzc25cdC
4D9+UbYTl6BepF4ncojM7eHxRGflDUOOqGoSd9rMiUMZkAvt394ocDohvLNaIzL9
q8Sdwni23AdVaOqSkFsBCyxYv+6SrL3sHtxcJ7Si1DZqkAI+dDmRpWD4U2XIdFmo
r3b7XURuxr8v9TO3YpljmVakjY5YPsxbygtVktpOitoyaVAJN04Fna454vGIom1r
YPTXLFtCjPlO9m0JIN4amzl7zlRGFgQJb2wh07uxhmYnvFNwmL/c0m9VBWGU9oop
MSFB479cYIzTVD1/fbMEifaQ2bK4HTjhyEZIFZSdJ+oRqmE=
-----END CERTIFICATE-----
