Certificate:
    Data:
        Version: 3 (0x2)
        Serial Number: 7216499475063271300 (0x64262809b4f06f84)
    Signature Algorithm: sha512WithRSAEncryption
        Issuer: C=CH, ST=Zug, L=Zug, O=Perfect Privacy, CN=Perfect Privacy/emailAddress=admin@perfect-privacy.com
        Validity
            Not Before: Jun  5 00:00:00 2024 GMT
            Not After : Jan 31 00:00:00 2026 GMT
        Subject: C=CH, ST=Zug, O=Perfect Privacy, CN=Client_milan.perfect-privacy.com/emailAddress=admin@perfect-privacy.com
        Subject Public Key Info:
            Public Key Algorithm: rsaEncryption
                Public-Key: (4096 bit)
                Modulus:
                    00:b4:48:61:80:bb:b5:2b:e4:38:ae:f0:4b:82:96:
                    76:22:b8:44:b0:3e:35:62:59:01:d3:af:8a:92:e6:
                    5f:5a:26:b4:93:67:ba:6d:43:46:83:f2:e0:ce:ba:
                    f2:9e:21:fe:77:e1:67:ab:21:64:f2:c1:c0:81:77:
                    11:a7:fa:e4:84:43:2d:5c:40:33:35:b4:0b:fe:f2:
                    a7:78:0b:d2:a1:fe:14:ad:a8:fb:be:b7:3e:83:df:
                    ff:9e:6d:cd:aa:81:72:08:68:d3:e9:c7:84:57:48:
                    9d:09:c6:cd:05:94:85:77:f8:fa:fc:f8:42:23:11:
                    f4:5c:60:cc:ae:43:c7:9c:33:8d:8f:a3:8c:4a:30:
                    13:70:93:bd:25:a6:c0:47:5e:d9:0f:2a:d2:71:10:
                    96:f8:93:bb:7a:20:9f:b6:09:a4:c7:36:fa:d1:c4:
                    a6:db:29:27:24:55:63:aa:1e:d0:6b:4c:7c:bb:85:
                    78:f9:4f:40:e5:77:39:87:c0:21:fa:80:39:e2:ba:
                    6a:05:ea:7f:94:c3:46:3a:84:8a:91:b2:9a:a8:7f:
                    0d:4d:41:03:af:9c:31:4b:dd:71:e2:35:d0:80:92:
                    b4:00:e5:87:d9:c4:79:56:b5:49:7d:a0:36:a5:82:
                    82:44:da:a3:e9:ba:52:2e:dd:d3:a7:f4:8c:a8:4b:
                    c5:50:46:80:2b:db:2b:20:b6:e1:ae:61:22:06:44:
                    01:58:41:a8:90:95:52:09:99:b8:f9:bb:fe:6d:65:
                    dc:29:72:1e:83:3e:23:d7:af:71:1c:22:39:f6:8a:
                    35:d9:78:76:df:f0:b8:5c:0c:b3:44:7f:6a:8a:39:
                    3b:e5:c5:fb:b5:cf:b0:fd:e4:ad:81:59:dd:f3:d5:
                    45:54:59:e2:6b:47:42:a3:8d:40:ec:69:63:41:69:
                    be:01:64:c9:91:df:1a:ef:7a:f2:0c:da:2c:7b:5b:
                    d3:0a:46:c0:69:4d:54:3b:bc:d5:bc:3c:d8:28:5d:
                    9f:17:51:43:5a:1a:93:9e:99:76:1a:80:78:66:89:
                    41:5d:05:91:3c:27:8a:8c:bd:fb:43:ac:79:5c:54:
                    9c:d3:b8:a2:0c:d5:8d:b7:1c:97:76:23:30:65:8a:
                    39:b2:4c:c9:f9:fe:eb:70:8e:88:3e:49:40:6e:68:
                    4c:51:59:7e:25:c2:d7:a5:d9:55:9e:a0:4e:ce:13:
                    7c:d0:54:a4:e9:4a:ab:69:33:1d:91:4d:37:42:6c:
                    07:bb:84:90:97:a2:74:9b:5c:43:af:1a:b4:02:a5:
                    23:84:fc:f5:3d:b2:dd:7d:cf:c0:df:24:90:e4:fa:
                    e8:38:e2:be:4a:22:3d:00:57:86:42:24:9a:4c:4a:
                    88:e0:d7
                Exponent: 65537 (0x10001)
        X509v3 extensions:
            X509v3 Basic Constraints: 
                CA:FALSE
            Netscape Comment: 
                VPN User Certificate
            Netscape Cert Type: 
                SSL Client
            X509v3 Key Usage: 
                Digital Signature
            X509v3 Extended Key Usage: 
                TLS Web Client Authentication
            X509v3 Subject Key Identifier: 
                DB:2E:12:BC:54:8E:61:ED:09:1B:89:63:E7:52:95:C9:B9:B2:24:34
            X509v3 Authority Key Identifier: 
                keyid:86:4F:B8:6D:18:2A:1B:3C:8F:27:34:29:F0:81:9F:BA:6E:61:0E:E1
                DirName:/C=CH/ST=Zug/L=Zug/O=Perfect Privacy/CN=Perfect Privacy/emailAddress=admin@perfect-privacy.com
                serial:FA:11:B5:C4:AA:69:AF:69

    Signature Algorithm: sha512WithRSAEncryption
         42:c0:25:04:1e:55:6f:9b:0b:a9:a8:cb:3b:57:f5:77:10:fe:
         08:bc:c1:fd:06:49:6b:8a:ab:b2:c9:16:ea:f5:02:8b:9e:0d:
         8d:42:ea:d6:9f:a3:56:ab:8c:34:73:99:fb:e1:88:90:0a:fb:
         cf:ee:df:f8:c2:ec:99:14:3a:e5:09:a4:96:68:7e:50:79:2a:
         86:67:31:88:20:84:b6:24:d2:a9:a8:a1:d8:c3:9c:35:09:44:
         fd:c7:1b:d8:60:9e:41:22:2b:b0:d7:65:cd:f2:45:1c:7b:33:
         a6:10:45:25:14:11:f8:25:03:f9:9e:b9:96:48:fa:5f:b5:7a:
         ec:e2:d1:a9:7b:a8:96:ee:5d:e5:b1:da:1a:31:48:11:68:c3:
         ef:50:66:31:fe:39:37:55:9a:0f:8d:b5:47:cb:2c:45:33:06:
         8a:03:ab:24:11:20:c1:ae:fe:f6:dc:65:00:51:92:64:24:d2:
         87:8b:72:12:ae:16:09:7e:5b:7e:b3:18:cf:0c:26:d4:99:7c:
         22:aa:4b:38:46:d8:66:34:d0:da:2f:28:bc:1b:49:4f:b4:b7:
         b0:7a:47:0f:07:aa:d6:42:18:72:0a:8a:54:5e:2f:07:a5:a5:
         03:00:10:5a:06:32:7f:2f:35:d4:f7:b6:0c:b9:cb:24:19:38:
         7c:a1:ab:f2:11:dd:34:5d:65:60:43:d2:9d:5c:a2:4b:af:ca:
         f3:84:0d:96:dd:ed:4b:6c:ab:83:45:f9:14:ff:98:02:fc:0a:
         9f:ad:3d:fc:89:b3:a1:35:14:e8:6c:eb:ed:ce:45:83:65:95:
         44:6f:6a:8d:3a:fe:83:63:d6:60:63:b3:c4:8e:27:f4:ef:c5:
         c9:72:f6:82:7e:2e:48:88:d0:a1:bf:a6:9e:f3:89:1c:51:ad:
         d7:3c:09:b7:2e:fa:06:63:8e:bc:2a:0d:7f:7f:32:6a:59:be:
         5a:7b:3e:fa:62:4f:44:d0:03:80:ec:b0:32:96:a9:eb:e4:ec:
         e6:ab:ef:2d:f9:d9:80:2a:17:7d:e1:c7:f0:40:2a:bd:e4:72:
         5b:52:c4:19:d6:2b:6f:d3:51:47:0a:83:b0:92:7b:22:e5:7a:
         71:87:b7:13:9b:1b:36:a8:05:70:a8:8d:25:65:ab:40:c7:e5:
         7d:71:4a:46:98:94:b0:6c:83:56:d2:82:2a:5a:80:06:79:b9:
         14:45:f1:bc:ea:4b:71:11:9b:b9:85:4c:6e:27:7b:48:f4:38:
         0f:49:4d:3c:61:ca:37:74:24:d3:c4:9a:da:33:5f:a3:ce:e7:
         cf:f5:9d:6c:60:c8:ce:b0:5d:b1:9f:69:a9:6f:58:88:91:7d:
         bf:1b:ea:34:93:71:d3:59
-----BEGIN CERTIFICATE-----
MIIG3jCCBMagAwIBAgIIZCYoCbTwb4QwDQYJKoZIhvcNAQENBQAwgYcxCzAJBgNV
BAYTAkNIMQwwCgYDVQQIEwNadWcxDDAKBgNVBAcTA1p1ZzEYMBYGA1UEChMPUGVy
ZmVjdCBQcml2YWN5MRgwFgYDVQQDEw9QZXJmZWN0IFByaXZhY3kxKDAmBgkqhkiG
9w0BCQEWGWFkbWluQHBlcmZlY3QtcHJpdmFjeS5jb20wHhcNMjQwNjA1MDAwMDAw
WhcNMjYwMTMxMDAwMDAwWjCBijELMAkGA1UEBhMCQ0gxDDAKBgNVBAgTA1p1ZzEY
MBYGA1UEChMPUGVyZmVjdCBQcml2YWN5MSkwJwYDVQQDFCBDbGllbnRfbWlsYW4u
cGVyZmVjdC1wcml2YWN5LmNvbTEoMCYGCSqGSIb3DQEJARYZYWRtaW5AcGVyZmVj
dC1wcml2YWN5LmNvbTCCAiIwDQYJKoZIhvcNAQEBBQADggIPADCCAgoCggIBALRI
YYC7tSvkOK7wS4KWdiK4RLA+NWJZAdOvipLmX1omtJNnum1DRoPy4M668p4h/nfh
Z6shZPLBwIF3Eaf65IRDLVxAMzW0C/7yp3gL0qH+FK2o+763PoPf/55tzaqBcgho
0+nHhFdInQnGzQWUhXf4+vz4QiMR9FxgzK5Dx5wzjY+jjEowE3CTvSWmwEde2Q8q
0nEQlviTu3ogn7YJpMc2+tHEptspJyRVY6oe0GtMfLuFePlPQOV3OYfAIfqAOeK6
agXqf5TDRjqEipGymqh/DU1BA6+cMUvdceI10ICStADlh9nEeVa1SX2gNqWCgkTa
o+m6Ui7d06f0jKhLxVBGgCvbKyC24a5hIgZEAVhBqJCVUgmZuPm7/m1l3ClyHoM+
I9evcRwiOfaKNdl4dt/wuFwMs0R/aoo5O+XF+7XPsP3krYFZ3fPVRVRZ4mtHQqON
QOxpY0FpvgFkyZHfGu968gzaLHtb0wpGwGlNVDu81bw82ChdnxdRQ1oak56ZdhqA
eGaJQV0FkTwnioy9+0OseVxUnNO4ogzVjbccl3YjMGWKObJMyfn+63COiD5JQG5o
TFFZfiXC16XZVZ6gTs4TfNBUpOlKq2kzHZFNN0JsB7uEkJeidJtcQ68atAKlI4T8
9T2y3X3PwN8kkOT66DjivkoiPQBXhkIkmkxKiODXAgMBAAGjggFHMIIBQzAJBgNV
HRMEAjAAMCMGCWCGSAGG+EIBDQQWFhRWUE4gVXNlciBDZXJ0aWZpY2F0ZTARBglg
hkgBhvhCAQEEBAMCB4AwCwYDVR0PBAQDAgeAMBMGA1UdJQQMMAoGCCsGAQUFBwMC
MB0GA1UdDgQWBBTbLhK8VI5h7QkbiWPnUpXJubIkNDCBvAYDVR0jBIG0MIGxgBSG
T7htGCobPI8nNCnwgZ+6bmEO4aGBjaSBijCBhzELMAkGA1UEBhMCQ0gxDDAKBgNV
BAgTA1p1ZzEMMAoGA1UEBxMDWnVnMRgwFgYDVQQKEw9QZXJmZWN0IFByaXZhY3kx
GDAWBgNVBAMTD1BlcmZlY3QgUHJpdmFjeTEoMCYGCSqGSIb3DQEJARYZYWRtaW5A
cGVyZmVjdC1wcml2YWN5LmNvbYIJAPoRtcSqaa9pMA0GCSqGSIb3DQEBDQUAA4IC
AQBCwCUEHlVvmwupqMs7V/V3EP4IvMH9BklriquyyRbq9QKLng2NQurWn6NWq4w0
c5n74YiQCvvP7t/4wuyZFDrlCaSWaH5QeSqGZzGIIIS2JNKpqKHYw5w1CUT9xxvY
YJ5BIiuw12XN8kUcezOmEEUlFBH4JQP5nrmWSPpftXrs4tGpe6iW7l3lsdoaMUgR
aMPvUGYx/jk3VZoPjbVHyyxFMwaKA6skESDBrv723GUAUZJkJNKHi3ISrhYJflt+
sxjPDCbUmXwiqks4RthmNNDaLyi8G0lPtLewekcPB6rWQhhyCopUXi8HpaUDABBa
BjJ/LzXU97YMucskGTh8oavyEd00XWVgQ9KdXKJLr8rzhA2W3e1LbKuDRfkU/5gC
/AqfrT38ibOhNRTobOvtzkWDZZVEb2qNOv6DY9ZgY7PEjif078XJcvaCfi5IiNCh
v6ae84kcUa3XPAm3LvoGY468Kg1/fzJqWb5aez76Yk9E0AOA7LAylqnr5Ozmq+8t
+dmAKhd94cfwQCq95HJbUsQZ1itv01FHCoOwknsi5Xpxh7cTmxs2qAVwqI0lZatA
x+V9cUpGmJSwbINW0oIqWoAGebkURfG86ktxEZu5hUxuJ3tI9DgPSU08Yco3dCTT
xJraM1+jzufP9Z1sYMjOsF2xn2mpb1iIkX2/G+o0k3HTWQ==
-----END CERTIFICATE-----
