Certificate:
    Data:
        Version: 3 (0x2)
        Serial Number: 8114896896446764825 (0x709de7bb95a11719)
    Signature Algorithm: sha512WithRSAEncryption
        Issuer: C=CH, ST=Zug, L=Zug, O=Perfect Privacy, CN=Perfect Privacy/emailAddress=admin@perfect-privacy.com
        Validity
            Not Before: Feb 17 00:00:00 2023 GMT
            Not After : Oct 14 00:00:00 2024 GMT
        Subject: C=CH, ST=Zug, O=Perfect Privacy, CN=Client_montreal.perfect-privacy.com/emailAddress=admin@perfect-privacy.com
        Subject Public Key Info:
            Public Key Algorithm: rsaEncryption
                Public-Key: (4096 bit)
                Modulus:
                    00:9f:a5:ea:3a:5e:c2:92:eb:f6:49:fb:d1:af:ca:
                    ff:be:cb:14:9c:88:26:9e:7c:e6:aa:40:e6:ca:9b:
                    3f:20:23:87:4e:b8:80:89:29:89:59:74:f9:75:2a:
                    18:70:eb:1e:82:34:54:2e:c9:96:c6:c8:29:e2:49:
                    02:57:70:5b:2f:a3:6f:1c:a8:db:3a:ec:af:b2:81:
                    ea:b2:3d:4a:90:fd:dd:77:b6:13:3a:42:b2:50:89:
                    bb:3d:f1:84:23:57:49:b7:b4:5d:fb:1d:4f:48:b3:
                    04:cd:c5:53:17:b7:0d:2a:2b:73:0b:98:d7:21:37:
                    f0:7e:6b:85:04:71:ae:dc:59:d4:57:07:73:8c:2f:
                    26:35:9a:4f:4e:ba:f5:75:d7:cc:e7:91:88:e6:7e:
                    b4:da:70:23:c2:35:57:be:74:e3:59:94:9e:d5:89:
                    03:24:31:75:2d:00:12:08:97:5f:64:5f:94:6c:74:
                    29:70:31:06:32:6f:31:29:62:9f:39:f9:f7:c9:aa:
                    63:87:72:07:57:ea:ca:b8:bd:79:fd:c8:6b:66:83:
                    1a:b9:4e:86:e0:8a:83:c4:0a:d4:cd:1e:9e:2c:93:
                    26:42:b0:f1:e0:2b:85:40:21:12:36:9a:b9:ef:8b:
                    bf:1d:8b:f7:47:4e:ea:18:36:ee:50:e8:0c:41:84:
                    7e:d5:4b:eb:1e:29:88:bf:aa:ac:a3:5b:83:3a:52:
                    9f:84:77:61:0c:2d:c2:60:e8:2c:e9:c3:ea:ba:5d:
                    60:38:fc:d8:75:c0:74:fd:9f:da:ee:ba:19:2c:64:
                    c9:48:2b:35:e3:68:93:31:7a:59:94:dd:7e:ac:c5:
                    d4:df:bd:dc:9b:6a:1b:e3:79:97:44:ce:27:72:d3:
                    6b:c7:27:61:06:7d:10:29:7d:8f:91:0d:30:b5:cf:
                    bd:94:b9:17:86:da:b7:7d:9d:fb:00:9d:d2:12:74:
                    2a:90:67:f4:44:54:a4:a8:66:c7:ab:df:ae:1c:55:
                    59:f6:2b:8e:be:73:7f:e0:16:a9:d7:b4:a7:c4:09:
                    62:f6:59:42:7c:74:75:26:88:e1:b1:61:a8:31:cb:
                    62:ba:a9:25:8f:29:d4:43:35:5d:c3:b0:3c:35:44:
                    f9:8d:9e:8e:e6:7e:c1:9c:66:ac:5e:8c:f6:ae:5a:
                    14:82:6e:21:52:c5:42:82:98:84:76:c9:1b:79:b5:
                    98:75:c2:f5:6b:e1:60:ce:59:fb:3d:a3:60:d2:36:
                    e6:10:27:1e:2b:3d:4b:1b:ff:01:57:b9:92:8d:7e:
                    f0:b5:56:22:0c:b9:51:9d:f4:de:18:da:c2:d4:9b:
                    97:8f:a3:18:db:5a:c4:25:eb:c4:2b:9d:1c:0f:79:
                    f4:c2:8b
                Exponent: 65537 (0x10001)
        X509v3 extensions:
            X509v3 Basic Constraints: 
                CA:FALSE
            Netscape Comment: 
                VPN User Certificate
            Netscape Cert Type: 
                SSL Client
            X509v3 Key Usage: 
                Digital Signature
            X509v3 Extended Key Usage: 
                TLS Web Client Authentication
            X509v3 Subject Key Identifier: 
                2A:66:7C:BC:B6:23:BB:25:4F:B2:B0:B3:7F:97:C5:3A:6B:91:C9:62
            X509v3 Authority Key Identifier: 
                keyid:86:4F:B8:6D:18:2A:1B:3C:8F:27:34:29:F0:81:9F:BA:6E:61:0E:E1
                DirName:/C=CH/ST=Zug/L=Zug/O=Perfect Privacy/CN=Perfect Privacy/emailAddress=admin@perfect-privacy.com
                serial:FA:11:B5:C4:AA:69:AF:69

    Signature Algorithm: sha512WithRSAEncryption
         1e:7b:ce:eb:97:2a:34:1c:c1:04:59:a1:0b:f1:49:ae:19:4f:
         7b:aa:8b:aa:ee:f8:7f:d3:08:7a:86:ec:27:62:17:17:b1:d1:
         49:5a:4d:19:7b:06:c6:a7:2e:c4:bd:72:6d:94:ed:b0:8e:f8:
         c8:44:6c:7e:d4:66:7b:e3:9a:db:ac:02:3c:e5:71:06:38:f8:
         8f:7c:da:2d:2c:14:4b:3d:d1:bf:24:4c:05:00:b9:7e:b6:19:
         f9:4d:4b:77:57:fb:8d:ce:5e:96:7c:a2:96:ff:b7:cb:fa:9b:
         a6:be:87:7a:29:4f:d6:79:63:c6:ab:dc:30:18:29:b0:fa:a7:
         72:67:cc:5c:3a:5f:16:71:f2:d9:9f:58:ed:bb:88:1f:e8:6b:
         a2:7f:2e:01:d9:67:88:06:05:70:39:d5:0f:eb:be:71:1b:db:
         9d:fb:2b:88:5c:dd:30:29:7d:96:94:66:be:41:db:74:67:5d:
         df:e7:73:8e:38:e3:ac:15:a9:2a:6b:18:0b:de:5a:1c:dc:13:
         10:2b:5b:95:83:3b:70:eb:ab:0a:eb:4d:02:60:2b:f8:47:29:
         77:8d:d4:67:0f:22:56:88:da:aa:ef:ca:fd:27:ef:67:8e:92:
         f0:75:3e:09:84:2c:73:49:63:15:f4:46:70:d9:fd:43:ba:68:
         ac:b3:22:1e:22:27:64:c5:2d:76:e8:af:2b:f4:b1:dc:6d:f3:
         47:75:f5:39:98:17:39:2c:b8:15:e7:74:9d:ef:f4:d9:68:d1:
         0c:3b:33:21:c5:8f:ee:5f:65:1c:ab:74:06:5e:69:8f:fd:c8:
         7a:9b:7b:35:22:9b:ab:39:8f:4a:b7:dd:6b:bc:6a:fb:9d:50:
         8b:d0:d5:c9:9d:31:4a:73:69:5f:2d:05:dd:bc:50:c0:c3:23:
         e5:b8:e4:c6:f8:66:e7:97:1b:5a:25:b6:e5:94:0e:22:cf:c8:
         76:66:08:ae:0e:9f:14:cf:bc:b7:31:6e:f1:9c:f3:34:2e:e8:
         60:ae:71:14:ba:f4:dd:d1:d7:01:e5:fe:0e:92:52:cb:7a:a3:
         48:35:47:41:d6:50:19:a2:8c:fa:28:f0:79:a0:dc:42:a8:26:
         23:1e:b5:8f:17:ce:f6:a1:fd:02:50:5a:e5:8e:42:99:a0:04:
         0b:bb:39:2e:a5:8d:47:cd:3a:69:ad:e2:3b:2a:6d:2d:cb:db:
         ef:e1:75:7a:b7:48:ab:ca:d5:29:5d:11:94:cb:11:b5:99:9e:
         0a:23:f7:a7:d4:64:b7:9b:32:cc:2f:56:f0:36:c1:28:47:ba:
         03:f4:a5:98:3d:cb:ad:11:9c:e7:b8:e6:be:23:12:6f:5a:d5:
         3b:85:a8:29:72:5f:59:40
-----BEGIN CERTIFICATE-----
MIIG4TCCBMmgAwIBAgIIcJ3nu5WhFxkwDQYJKoZIhvcNAQENBQAwgYcxCzAJBgNV
BAYTAkNIMQwwCgYDVQQIEwNadWcxDDAKBgNVBAcTA1p1ZzEYMBYGA1UEChMPUGVy
ZmVjdCBQcml2YWN5MRgwFgYDVQQDEw9QZXJmZWN0IFByaXZhY3kxKDAmBgkqhkiG
9w0BCQEWGWFkbWluQHBlcmZlY3QtcHJpdmFjeS5jb20wHhcNMjMwMjE3MDAwMDAw
WhcNMjQxMDE0MDAwMDAwWjCBjTELMAkGA1UEBhMCQ0gxDDAKBgNVBAgTA1p1ZzEY
MBYGA1UEChMPUGVyZmVjdCBQcml2YWN5MSwwKgYDVQQDFCNDbGllbnRfbW9udHJl
YWwucGVyZmVjdC1wcml2YWN5LmNvbTEoMCYGCSqGSIb3DQEJARYZYWRtaW5AcGVy
ZmVjdC1wcml2YWN5LmNvbTCCAiIwDQYJKoZIhvcNAQEBBQADggIPADCCAgoCggIB
AJ+l6jpewpLr9kn70a/K/77LFJyIJp585qpA5sqbPyAjh064gIkpiVl0+XUqGHDr
HoI0VC7JlsbIKeJJAldwWy+jbxyo2zrsr7KB6rI9SpD93Xe2EzpCslCJuz3xhCNX
Sbe0XfsdT0izBM3FUxe3DSorcwuY1yE38H5rhQRxrtxZ1FcHc4wvJjWaT0669XXX
zOeRiOZ+tNpwI8I1V75041mUntWJAyQxdS0AEgiXX2RflGx0KXAxBjJvMSlinzn5
98mqY4dyB1fqyri9ef3Ia2aDGrlOhuCKg8QK1M0eniyTJkKw8eArhUAhEjaaue+L
vx2L90dO6hg27lDoDEGEftVL6x4piL+qrKNbgzpSn4R3YQwtwmDoLOnD6rpdYDj8
2HXAdP2f2u66GSxkyUgrNeNokzF6WZTdfqzF1N+93JtqG+N5l0TOJ3LTa8cnYQZ9
ECl9j5ENMLXPvZS5F4bat32d+wCd0hJ0KpBn9ERUpKhmx6vfrhxVWfYrjr5zf+AW
qde0p8QJYvZZQnx0dSaI4bFhqDHLYrqpJY8p1EM1XcOwPDVE+Y2ejuZ+wZxmrF6M
9q5aFIJuIVLFQoKYhHbJG3m1mHXC9WvhYM5Z+z2jYNI25hAnHis9Sxv/AVe5ko1+
8LVWIgy5UZ303hjawtSbl4+jGNtaxCXrxCudHA959MKLAgMBAAGjggFHMIIBQzAJ
BgNVHRMEAjAAMCMGCWCGSAGG+EIBDQQWFhRWUE4gVXNlciBDZXJ0aWZpY2F0ZTAR
BglghkgBhvhCAQEEBAMCB4AwCwYDVR0PBAQDAgeAMBMGA1UdJQQMMAoGCCsGAQUF
BwMCMB0GA1UdDgQWBBQqZny8tiO7JU+ysLN/l8U6a5HJYjCBvAYDVR0jBIG0MIGx
gBSGT7htGCobPI8nNCnwgZ+6bmEO4aGBjaSBijCBhzELMAkGA1UEBhMCQ0gxDDAK
BgNVBAgTA1p1ZzEMMAoGA1UEBxMDWnVnMRgwFgYDVQQKEw9QZXJmZWN0IFByaXZh
Y3kxGDAWBgNVBAMTD1BlcmZlY3QgUHJpdmFjeTEoMCYGCSqGSIb3DQEJARYZYWRt
aW5AcGVyZmVjdC1wcml2YWN5LmNvbYIJAPoRtcSqaa9pMA0GCSqGSIb3DQEBDQUA
A4ICAQAee87rlyo0HMEEWaEL8UmuGU97qouq7vh/0wh6huwnYhcXsdFJWk0ZewbG
py7EvXJtlO2wjvjIRGx+1GZ745rbrAI85XEGOPiPfNotLBRLPdG/JEwFALl+thn5
TUt3V/uNzl6WfKKW/7fL+pumvod6KU/WeWPGq9wwGCmw+qdyZ8xcOl8WcfLZn1jt
u4gf6Guify4B2WeIBgVwOdUP675xG9ud+yuIXN0wKX2WlGa+Qdt0Z13f53OOOOOs
FakqaxgL3loc3BMQK1uVgztw66sK600CYCv4Ryl3jdRnDyJWiNqq78r9J+9njpLw
dT4JhCxzSWMV9EZw2f1DumissyIeIidkxS126K8r9LHcbfNHdfU5mBc5LLgV53Sd
7/TZaNEMOzMhxY/uX2Ucq3QGXmmP/ch6m3s1IpurOY9Kt91rvGr7nVCL0NXJnTFK
c2lfLQXdvFDAwyPluOTG+GbnlxtaJbbllA4iz8h2ZgiuDp8Uz7y3MW7xnPM0Luhg
rnEUuvTd0dcB5f4OklLLeqNINUdB1lAZooz6KPB5oNxCqCYjHrWPF872of0CUFrl
jkKZoAQLuzkupY1HzTppreI7Km0ty9vv4XV6t0irytUpXRGUyxG1mZ4KI/en1GS3
mzLML1bwNsEoR7oD9KWYPcutEZznuOa+IxJvWtU7hagpcl9ZQA==
-----END CERTIFICATE-----
