Certificate:
    Data:
        Version: 3 (0x2)
        Serial Number: 8586784235255564595 (0x772a62c469550933)
    Signature Algorithm: sha512WithRSAEncryption
        Issuer: C=CH, ST=Zug, L=Zug, O=Perfect Privacy, CN=Perfect Privacy/emailAddress=admin@perfect-privacy.com
        Validity
            Not Before: May 22 00:00:00 2024 GMT
            Not After : Jan 17 00:00:00 2026 GMT
        Subject: C=CH, ST=Zug, O=Perfect Privacy, CN=Client_madrid.perfect-privacy.com/emailAddress=admin@perfect-privacy.com
        Subject Public Key Info:
            Public Key Algorithm: rsaEncryption
                Public-Key: (4096 bit)
                Modulus:
                    00:be:4b:f7:6c:58:1e:0e:de:7f:c2:3d:18:85:e6:
                    76:9d:4e:da:01:b3:29:bf:d8:19:20:5a:1e:fb:ab:
                    1f:d5:61:b2:40:37:d0:e1:81:ca:af:f2:29:d0:86:
                    6a:13:d8:5c:3b:2d:f0:b2:37:d2:55:b8:af:16:ea:
                    2b:23:f2:ff:64:27:47:dd:82:c3:e1:66:29:da:95:
                    7a:02:bb:5a:43:96:33:b1:c2:bd:6b:1a:f4:a2:e2:
                    fd:83:53:37:c5:a4:b8:ae:bb:c0:9b:0c:b4:12:0e:
                    db:ca:28:ac:23:f5:ea:8f:4b:d9:b6:7c:a2:a6:57:
                    67:c1:f8:74:c8:c4:78:bb:d5:05:f6:19:91:b1:c5:
                    36:49:4b:a3:a5:38:c9:dd:79:0a:22:67:6a:42:9c:
                    5c:7d:9a:fc:12:a9:3b:f7:f0:f1:89:67:d4:b8:8d:
                    8b:98:96:21:25:98:97:19:e3:0f:79:8b:f5:59:2c:
                    54:a8:33:7d:61:d0:ad:71:c8:01:c7:1b:c9:c5:8c:
                    bb:d0:f5:80:d2:99:65:09:ee:c2:ab:51:3c:48:aa:
                    b6:a1:fe:77:46:47:3c:9e:d2:d9:02:8d:a5:c2:57:
                    41:20:db:36:75:9d:86:b3:24:52:f6:f6:9d:ca:05:
                    dc:ec:14:36:6a:74:04:4b:a0:35:8e:ab:ca:c4:07:
                    c2:79:ac:fc:79:1f:50:db:4a:0f:11:f8:32:22:ee:
                    54:06:77:77:c3:8c:9c:14:a3:6b:fb:4b:66:2d:7c:
                    4b:9a:f2:7a:00:db:2f:5a:6c:3c:7f:6e:81:af:2c:
                    00:c8:aa:5b:7e:48:4f:63:3d:a0:a8:be:cd:39:96:
                    48:67:73:7f:79:b2:89:9b:76:7a:8b:c2:fd:70:51:
                    e7:12:93:ab:03:b7:63:0c:25:d9:38:a5:46:86:29:
                    9c:13:25:74:44:9d:32:0a:9f:b4:5c:23:16:52:fe:
                    70:02:7d:00:14:dd:48:b2:83:cc:b4:e3:64:67:3d:
                    93:d0:d5:41:6d:0a:ef:44:e9:49:20:33:bb:81:a4:
                    09:c4:3f:61:15:9f:71:28:ac:d5:12:62:15:a6:16:
                    76:03:74:60:44:c4:17:d9:26:d4:52:c3:c8:f6:2a:
                    c2:a6:6b:8a:a9:b0:e4:88:11:8c:fc:0a:f6:b1:37:
                    ec:b1:80:d6:f7:02:dc:11:19:de:63:c7:5d:f0:de:
                    4f:80:ea:68:d5:35:b5:a3:9c:fe:af:79:dc:6a:52:
                    ef:e7:de:37:15:fd:5d:5b:03:4d:1b:f7:a9:b8:70:
                    8a:65:83:a7:86:8c:b1:5e:e9:bb:52:63:c1:42:e4:
                    44:a0:39:3f:85:e2:0d:30:a6:92:ff:ef:ab:fd:fc:
                    15:3a:d7
                Exponent: 65537 (0x10001)
        X509v3 extensions:
            X509v3 Basic Constraints: 
                CA:FALSE
            Netscape Comment: 
                VPN User Certificate
            Netscape Cert Type: 
                SSL Client
            X509v3 Key Usage: 
                Digital Signature
            X509v3 Extended Key Usage: 
                TLS Web Client Authentication
            X509v3 Subject Key Identifier: 
                56:1B:A7:E5:33:79:7E:2E:63:36:5E:AA:7E:39:0F:A5:76:FE:8E:7B
            X509v3 Authority Key Identifier: 
                keyid:86:4F:B8:6D:18:2A:1B:3C:8F:27:34:29:F0:81:9F:BA:6E:61:0E:E1
                DirName:/C=CH/ST=Zug/L=Zug/O=Perfect Privacy/CN=Perfect Privacy/emailAddress=admin@perfect-privacy.com
                serial:FA:11:B5:C4:AA:69:AF:69

    Signature Algorithm: sha512WithRSAEncryption
         05:8d:b1:8b:b0:f6:fb:e2:ff:3b:df:db:d7:11:da:7d:ca:30:
         40:37:d3:f0:67:99:eb:0d:2c:b6:58:53:bc:36:11:36:eb:f1:
         96:9e:cb:e4:a7:24:db:98:8e:42:1c:ff:d1:cb:c8:47:6c:57:
         1a:60:f1:30:d3:ed:0a:bf:ce:b6:7c:0c:bc:2c:bc:b7:4d:ad:
         a4:02:13:f3:e3:4e:8a:12:13:a9:85:f5:98:33:24:70:ec:e7:
         e4:fc:fe:d2:2b:4f:b7:67:61:8e:87:7b:8a:1b:42:3a:94:2f:
         88:36:f7:76:19:17:06:85:fe:fd:b1:b9:15:83:7d:09:23:7a:
         e1:35:a3:7c:b7:59:88:c2:ee:4f:ec:a1:2d:65:a6:bc:dd:90:
         9a:11:5b:0f:ea:3a:41:d1:7f:2d:f1:15:d1:d5:7c:7f:f7:8b:
         4f:b7:a6:44:84:2e:22:a5:22:6e:b4:8e:e4:27:3f:6e:40:a6:
         2e:30:c2:2f:c9:60:12:bf:75:e7:37:14:6d:4a:86:c2:fc:ac:
         e1:3b:dc:8f:69:27:e9:bc:f7:49:8c:76:89:2b:0e:fe:ba:1d:
         1f:99:7a:6e:68:26:d0:57:15:b6:af:a0:38:67:73:d3:f7:40:
         c3:f7:13:65:95:00:a1:db:e3:08:f2:7e:be:8b:83:90:c4:a2:
         45:47:d1:8c:1e:bd:00:1b:7f:92:76:6d:a7:bd:80:54:8a:40:
         a4:3d:f5:02:46:f9:fe:1f:8f:1f:64:b9:f6:80:56:ee:b0:23:
         19:4a:a3:97:9d:73:ec:a8:bf:32:87:ac:a7:88:7c:f0:d1:e1:
         ce:bb:18:87:a3:b3:86:28:f6:bd:44:bd:7f:db:17:38:a5:06:
         72:d1:cb:a0:bf:e5:11:5a:68:3e:ff:05:9f:db:eb:ed:8c:ea:
         76:9b:7b:cf:8d:06:0b:36:2e:5d:c3:c1:8c:9f:c3:b9:11:36:
         7a:e0:e5:1a:4d:5c:14:9a:88:d8:7b:83:ed:eb:28:3d:44:98:
         55:c6:22:1c:26:86:8a:51:7a:36:2a:ae:78:f2:ce:82:c2:15:
         86:b7:b5:08:d9:23:17:42:b6:92:a3:be:93:75:17:cf:e2:f2:
         30:ea:58:80:8b:83:7b:8e:69:da:30:f1:e8:30:3e:e2:7a:50:
         4a:bf:24:39:0b:77:e0:a2:f8:7e:ac:72:17:e6:8b:ec:20:e4:
         98:cd:e2:05:d8:92:20:fd:09:a1:51:dc:d4:62:ce:4d:aa:85:
         82:f4:f6:0c:ad:e4:2d:64:5c:3f:68:4f:c6:06:2a:a8:8f:32:
         0a:29:07:3a:99:38:d4:bf:90:f0:f7:10:b6:8e:87:6d:1c:ec:
         3f:52:26:03:cd:3e:4c:a8
-----BEGIN CERTIFICATE-----
MIIG3zCCBMegAwIBAgIIdypixGlVCTMwDQYJKoZIhvcNAQENBQAwgYcxCzAJBgNV
BAYTAkNIMQwwCgYDVQQIEwNadWcxDDAKBgNVBAcTA1p1ZzEYMBYGA1UEChMPUGVy
ZmVjdCBQcml2YWN5MRgwFgYDVQQDEw9QZXJmZWN0IFByaXZhY3kxKDAmBgkqhkiG
9w0BCQEWGWFkbWluQHBlcmZlY3QtcHJpdmFjeS5jb20wHhcNMjQwNTIyMDAwMDAw
WhcNMjYwMTE3MDAwMDAwWjCBizELMAkGA1UEBhMCQ0gxDDAKBgNVBAgTA1p1ZzEY
MBYGA1UEChMPUGVyZmVjdCBQcml2YWN5MSowKAYDVQQDFCFDbGllbnRfbWFkcmlk
LnBlcmZlY3QtcHJpdmFjeS5jb20xKDAmBgkqhkiG9w0BCQEWGWFkbWluQHBlcmZl
Y3QtcHJpdmFjeS5jb20wggIiMA0GCSqGSIb3DQEBAQUAA4ICDwAwggIKAoICAQC+
S/dsWB4O3n/CPRiF5nadTtoBsym/2BkgWh77qx/VYbJAN9Dhgcqv8inQhmoT2Fw7
LfCyN9JVuK8W6isj8v9kJ0fdgsPhZinalXoCu1pDljOxwr1rGvSi4v2DUzfFpLiu
u8CbDLQSDtvKKKwj9eqPS9m2fKKmV2fB+HTIxHi71QX2GZGxxTZJS6OlOMndeQoi
Z2pCnFx9mvwSqTv38PGJZ9S4jYuYliElmJcZ4w95i/VZLFSoM31h0K1xyAHHG8nF
jLvQ9YDSmWUJ7sKrUTxIqrah/ndGRzye0tkCjaXCV0Eg2zZ1nYazJFL29p3KBdzs
FDZqdARLoDWOq8rEB8J5rPx5H1DbSg8R+DIi7lQGd3fDjJwUo2v7S2YtfEua8noA
2y9abDx/boGvLADIqlt+SE9jPaCovs05lkhnc395sombdnqLwv1wUecSk6sDt2MM
Jdk4pUaGKZwTJXREnTIKn7RcIxZS/nACfQAU3Uiyg8y042RnPZPQ1UFtCu9E6Ukg
M7uBpAnEP2EVn3EorNUSYhWmFnYDdGBExBfZJtRSw8j2KsKma4qpsOSIEYz8Cvax
N+yxgNb3AtwRGd5jx13w3k+A6mjVNbWjnP6vedxqUu/n3jcV/V1bA00b96m4cIpl
g6eGjLFe6btSY8FC5ESgOT+F4g0wppL/76v9/BU61wIDAQABo4IBRzCCAUMwCQYD
VR0TBAIwADAjBglghkgBhvhCAQ0EFhYUVlBOIFVzZXIgQ2VydGlmaWNhdGUwEQYJ
YIZIAYb4QgEBBAQDAgeAMAsGA1UdDwQEAwIHgDATBgNVHSUEDDAKBggrBgEFBQcD
AjAdBgNVHQ4EFgQUVhun5TN5fi5jNl6qfjkPpXb+jnswgbwGA1UdIwSBtDCBsYAU
hk+4bRgqGzyPJzQp8IGfum5hDuGhgY2kgYowgYcxCzAJBgNVBAYTAkNIMQwwCgYD
VQQIEwNadWcxDDAKBgNVBAcTA1p1ZzEYMBYGA1UEChMPUGVyZmVjdCBQcml2YWN5
MRgwFgYDVQQDEw9QZXJmZWN0IFByaXZhY3kxKDAmBgkqhkiG9w0BCQEWGWFkbWlu
QHBlcmZlY3QtcHJpdmFjeS5jb22CCQD6EbXEqmmvaTANBgkqhkiG9w0BAQ0FAAOC
AgEABY2xi7D2++L/O9/b1xHafcowQDfT8GeZ6w0stlhTvDYRNuvxlp7L5Kck25iO
Qhz/0cvIR2xXGmDxMNPtCr/OtnwMvCy8t02tpAIT8+NOihITqYX1mDMkcOzn5Pz+
0itPt2dhjod7ihtCOpQviDb3dhkXBoX+/bG5FYN9CSN64TWjfLdZiMLuT+yhLWWm
vN2QmhFbD+o6QdF/LfEV0dV8f/eLT7emRIQuIqUibrSO5Cc/bkCmLjDCL8lgEr91
5zcUbUqGwvys4Tvcj2kn6bz3SYx2iSsO/rodH5l6bmgm0FcVtq+gOGdz0/dAw/cT
ZZUAodvjCPJ+vouDkMSiRUfRjB69ABt/knZtp72AVIpApD31Akb5/h+PH2S59oBW
7rAjGUqjl51z7Ki/Moesp4h88NHhzrsYh6Ozhij2vUS9f9sXOKUGctHLoL/lEVpo
Pv8Fn9vr7Yzqdpt7z40GCzYuXcPBjJ/DuRE2euDlGk1cFJqI2HuD7esoPUSYVcYi
HCaGilF6NiquePLOgsIVhre1CNkjF0K2kqO+k3UXz+LyMOpYgIuDe45p2jDx6DA+
4npQSr8kOQt34KL4fqxyF+aL7CDkmM3iBdiSIP0JoVHc1GLOTaqFgvT2DK3kLWRc
P2hPxgYqqI8yCikHOpk41L+Q8PcQto6HbRzsP1ImA80+TKg=
-----END CERTIFICATE-----
