Certificate:
    Data:
        Version: 3 (0x2)
        Serial Number: 2451773713566351235 (0x22067333d2c33f83)
    Signature Algorithm: sha512WithRSAEncryption
        Issuer: C=CH, ST=Zug, L=Zug, O=Perfect Privacy, CN=Perfect Privacy/emailAddress=admin@perfect-privacy.com
        Validity
            Not Before: May 19 00:00:00 2024 GMT
            Not After : Jan 14 00:00:00 2026 GMT
        Subject: C=CH, ST=Zug, O=Perfect Privacy, CN=Client_manchester.perfect-privacy.com/emailAddress=admin@perfect-privacy.com
        Subject Public Key Info:
            Public Key Algorithm: rsaEncryption
                Public-Key: (4096 bit)
                Modulus:
                    00:c2:92:b8:90:61:6a:93:15:dd:19:dd:84:3e:ae:
                    0f:22:6a:58:49:82:fd:7d:7e:88:fa:48:85:0a:03:
                    6e:70:34:fa:38:cc:ea:20:5a:00:7d:ab:3a:00:8f:
                    68:6b:e0:7a:b7:5c:c0:3a:09:c0:0a:97:da:7c:db:
                    13:96:bf:71:2f:4e:2e:3f:7d:cb:9c:47:0e:47:67:
                    7a:91:49:5b:c4:39:40:85:2f:4b:34:6d:06:db:52:
                    ff:60:23:6d:0b:cc:50:ce:87:f2:fa:45:c6:2e:41:
                    9c:12:be:9e:57:78:fe:88:e6:c2:13:bd:c8:c4:bd:
                    d8:a4:37:a7:b0:5b:85:7c:c7:8c:65:9a:04:dd:eb:
                    3b:30:02:eb:9f:6d:05:40:8b:a3:04:13:e4:b5:f0:
                    2c:90:07:bb:68:ba:98:b4:ff:81:9c:60:b4:c7:56:
                    58:16:77:d6:38:e2:16:ff:e1:2f:fd:74:c7:7d:66:
                    d5:cf:e9:3f:16:9d:e2:92:4f:ca:70:b2:0e:9b:12:
                    91:8e:a6:e1:c8:7c:5c:e0:71:b4:2d:0e:27:a7:86:
                    18:48:5d:0e:8c:a5:a3:2e:a6:e3:51:45:91:14:a0:
                    89:8c:97:0e:ab:8f:34:6c:03:be:60:70:96:c9:d4:
                    a8:4a:ec:c8:47:08:cf:52:33:31:b8:62:72:8b:10:
                    7a:55:8f:6b:98:82:23:58:aa:c6:e2:14:88:64:de:
                    eb:b5:d0:8d:6e:d0:a4:1d:30:0f:e0:7b:15:83:b6:
                    36:a9:71:cb:0a:44:d2:a7:b4:72:cd:10:d8:f2:99:
                    2b:83:25:83:42:4d:03:6a:c7:4c:7f:21:98:d0:23:
                    c6:54:de:14:f1:a6:a0:23:0d:10:8d:34:ba:6f:20:
                    58:8e:3b:2e:df:58:68:22:55:4e:5c:5e:d3:bc:11:
                    6c:10:21:9c:8f:c5:b9:22:69:56:ef:69:c2:25:1f:
                    3a:23:4f:19:ea:d9:85:0a:55:23:7d:ab:99:1e:f5:
                    f5:0c:bb:04:ca:31:62:c1:b6:db:97:cd:2a:e4:32:
                    ad:14:79:54:61:81:e3:a4:85:eb:4a:51:94:8b:a5:
                    64:df:c0:19:e5:b2:df:24:4f:a3:51:d7:01:6f:ea:
                    2c:e8:10:1c:06:df:1b:fe:77:7e:2a:22:e5:9d:ab:
                    99:7c:3b:9b:ee:11:5b:26:d3:45:95:8b:ae:3a:db:
                    9a:95:e9:24:56:36:8d:ee:bd:56:6f:a8:ab:0d:b0:
                    c7:72:c6:ae:e0:50:4b:b3:f7:27:34:74:f3:3e:10:
                    26:a5:57:05:6c:d7:04:f0:04:32:d5:be:f4:5e:b0:
                    33:80:1f:d4:65:20:27:43:63:26:af:30:5d:14:f7:
                    dc:bf:45
                Exponent: 65537 (0x10001)
        X509v3 extensions:
            X509v3 Basic Constraints: 
                CA:FALSE
            Netscape Comment: 
                VPN User Certificate
            Netscape Cert Type: 
                SSL Client
            X509v3 Key Usage: 
                Digital Signature
            X509v3 Extended Key Usage: 
                TLS Web Client Authentication
            X509v3 Subject Key Identifier: 
                D1:E8:68:1F:D6:A5:C5:03:86:EF:45:E2:B5:C8:11:24:FF:85:FF:9F
            X509v3 Authority Key Identifier: 
                keyid:86:4F:B8:6D:18:2A:1B:3C:8F:27:34:29:F0:81:9F:BA:6E:61:0E:E1
                DirName:/C=CH/ST=Zug/L=Zug/O=Perfect Privacy/CN=Perfect Privacy/emailAddress=admin@perfect-privacy.com
                serial:FA:11:B5:C4:AA:69:AF:69

    Signature Algorithm: sha512WithRSAEncryption
         82:ef:54:84:68:e3:9a:67:f0:74:c0:35:d9:0d:bb:d8:80:fc:
         5d:38:15:7b:15:26:37:e7:cf:fa:dc:44:64:ec:00:ec:44:a7:
         df:5f:76:2f:af:3b:b2:37:4a:37:52:19:4c:22:61:39:5f:54:
         58:25:d0:11:e2:db:ef:f9:bc:b7:33:ee:ed:05:bd:88:b9:ba:
         a8:71:f9:95:93:f8:6c:54:1e:0f:3c:65:fa:42:f3:b6:e2:f4:
         f6:12:f5:4a:4c:b6:e2:d7:09:ba:3a:7c:6a:68:1b:a1:22:b7:
         26:f9:0b:8d:8e:cb:4e:53:dc:69:47:98:d3:f7:b6:4d:db:70:
         b0:90:62:0a:b9:60:7a:a9:9e:75:ad:13:d4:c7:48:34:01:39:
         95:fe:18:b9:b1:85:9e:e0:57:86:fc:2d:fb:a7:25:fc:4a:47:
         d8:5d:41:41:d1:89:6f:71:f9:37:e1:82:77:eb:12:32:26:b8:
         50:53:f3:ca:e8:e3:45:cc:f6:39:98:ca:fe:c7:15:c5:5c:41:
         32:d2:da:e7:19:6d:37:6d:90:dc:89:52:46:4e:ce:2e:1e:4c:
         29:33:18:c3:89:91:17:08:49:7d:fe:71:5b:ed:9a:ad:57:fa:
         d6:16:d0:37:00:99:38:66:9d:d6:7c:4e:9f:68:64:70:3d:b1:
         ae:f9:03:39:5a:a1:95:b2:22:99:e1:ef:0c:37:be:65:d0:de:
         dc:e1:08:24:21:20:f6:6d:a0:c9:2d:4d:7a:0e:f3:cc:79:24:
         a9:80:66:20:66:bf:00:e1:fb:fa:ca:48:e6:b9:6e:4c:aa:99:
         d8:13:fa:1a:54:f6:66:c4:cf:aa:87:80:e2:e2:58:35:55:c1:
         cf:90:50:01:59:b3:6d:23:08:1d:2c:e8:da:f6:9c:70:85:d3:
         d6:90:4c:24:00:d5:b3:50:f3:3d:9b:9c:aa:5d:35:80:8a:64:
         8d:a8:2e:26:16:c5:b3:d2:5a:57:be:41:f3:22:c4:0e:82:65:
         0d:8b:61:30:d0:2c:11:cf:58:6b:1a:57:94:03:27:69:b9:1c:
         14:7a:fb:94:e4:a4:d0:04:01:44:3d:ef:c7:0c:63:83:44:3f:
         07:c9:e1:fc:c6:ad:7b:b8:73:e7:01:8e:4d:2b:e4:87:14:c6:
         e0:b5:69:72:68:c2:9e:1f:c6:d8:de:f8:83:50:99:dd:f0:18:
         ec:55:22:48:c0:0b:a0:7a:ec:38:eb:62:4d:62:bf:dc:87:53:
         ac:73:e8:d7:5b:05:67:36:be:6e:12:b7:55:bb:ef:04:26:8d:
         f8:6b:74:20:21:fa:78:00:11:be:7b:32:91:0d:74:c9:f8:53:
         41:2d:ad:d4:8f:89:2b:e9
-----BEGIN CERTIFICATE-----
MIIG4zCCBMugAwIBAgIIIgZzM9LDP4MwDQYJKoZIhvcNAQENBQAwgYcxCzAJBgNV
BAYTAkNIMQwwCgYDVQQIEwNadWcxDDAKBgNVBAcTA1p1ZzEYMBYGA1UEChMPUGVy
ZmVjdCBQcml2YWN5MRgwFgYDVQQDEw9QZXJmZWN0IFByaXZhY3kxKDAmBgkqhkiG
9w0BCQEWGWFkbWluQHBlcmZlY3QtcHJpdmFjeS5jb20wHhcNMjQwNTE5MDAwMDAw
WhcNMjYwMTE0MDAwMDAwWjCBjzELMAkGA1UEBhMCQ0gxDDAKBgNVBAgTA1p1ZzEY
MBYGA1UEChMPUGVyZmVjdCBQcml2YWN5MS4wLAYDVQQDFCVDbGllbnRfbWFuY2hl
c3Rlci5wZXJmZWN0LXByaXZhY3kuY29tMSgwJgYJKoZIhvcNAQkBFhlhZG1pbkBw
ZXJmZWN0LXByaXZhY3kuY29tMIICIjANBgkqhkiG9w0BAQEFAAOCAg8AMIICCgKC
AgEAwpK4kGFqkxXdGd2EPq4PImpYSYL9fX6I+kiFCgNucDT6OMzqIFoAfas6AI9o
a+B6t1zAOgnACpfafNsTlr9xL04uP33LnEcOR2d6kUlbxDlAhS9LNG0G21L/YCNt
C8xQzofy+kXGLkGcEr6eV3j+iObCE73IxL3YpDensFuFfMeMZZoE3es7MALrn20F
QIujBBPktfAskAe7aLqYtP+BnGC0x1ZYFnfWOOIW/+Ev/XTHfWbVz+k/Fp3ikk/K
cLIOmxKRjqbhyHxc4HG0LQ4np4YYSF0OjKWjLqbjUUWRFKCJjJcOq480bAO+YHCW
ydSoSuzIRwjPUjMxuGJyixB6VY9rmIIjWKrG4hSIZN7rtdCNbtCkHTAP4HsVg7Y2
qXHLCkTSp7RyzRDY8pkrgyWDQk0DasdMfyGY0CPGVN4U8aagIw0QjTS6byBYjjsu
31hoIlVOXF7TvBFsECGcj8W5ImlW72nCJR86I08Z6tmFClUjfauZHvX1DLsEyjFi
wbbbl80q5DKtFHlUYYHjpIXrSlGUi6Vk38AZ5bLfJE+jUdcBb+os6BAcBt8b/nd+
KiLlnauZfDub7hFbJtNFlYuuOtualekkVjaN7r1Wb6irDbDHcsau4FBLs/cnNHTz
PhAmpVcFbNcE8AQy1b70XrAzgB/UZSAnQ2MmrzBdFPfcv0UCAwEAAaOCAUcwggFD
MAkGA1UdEwQCMAAwIwYJYIZIAYb4QgENBBYWFFZQTiBVc2VyIENlcnRpZmljYXRl
MBEGCWCGSAGG+EIBAQQEAwIHgDALBgNVHQ8EBAMCB4AwEwYDVR0lBAwwCgYIKwYB
BQUHAwIwHQYDVR0OBBYEFNHoaB/WpcUDhu9F4rXIEST/hf+fMIG8BgNVHSMEgbQw
gbGAFIZPuG0YKhs8jyc0KfCBn7puYQ7hoYGNpIGKMIGHMQswCQYDVQQGEwJDSDEM
MAoGA1UECBMDWnVnMQwwCgYDVQQHEwNadWcxGDAWBgNVBAoTD1BlcmZlY3QgUHJp
dmFjeTEYMBYGA1UEAxMPUGVyZmVjdCBQcml2YWN5MSgwJgYJKoZIhvcNAQkBFhlh
ZG1pbkBwZXJmZWN0LXByaXZhY3kuY29tggkA+hG1xKppr2kwDQYJKoZIhvcNAQEN
BQADggIBAILvVIRo45pn8HTANdkNu9iA/F04FXsVJjfnz/rcRGTsAOxEp99fdi+v
O7I3SjdSGUwiYTlfVFgl0BHi2+/5vLcz7u0FvYi5uqhx+ZWT+GxUHg88ZfpC87bi
9PYS9UpMtuLXCbo6fGpoG6Eityb5C42Oy05T3GlHmNP3tk3bcLCQYgq5YHqpnnWt
E9THSDQBOZX+GLmxhZ7gV4b8LfunJfxKR9hdQUHRiW9x+TfhgnfrEjImuFBT88ro
40XM9jmYyv7HFcVcQTLS2ucZbTdtkNyJUkZOzi4eTCkzGMOJkRcISX3+cVvtmq1X
+tYW0DcAmThmndZ8Tp9oZHA9sa75AzlaoZWyIpnh7ww3vmXQ3tzhCCQhIPZtoMkt
TXoO88x5JKmAZiBmvwDh+/rKSOa5bkyqmdgT+hpU9mbEz6qHgOLiWDVVwc+QUAFZ
s20jCB0s6Nr2nHCF09aQTCQA1bNQ8z2bnKpdNYCKZI2oLiYWxbPSWle+QfMixA6C
ZQ2LYTDQLBHPWGsaV5QDJ2m5HBR6+5TkpNAEAUQ978cMY4NEPwfJ4fzGrXu4c+cB
jk0r5IcUxuC1aXJowp4fxtje+INQmd3wGOxVIkjAC6B67DjrYk1iv9yHU6xz6Ndb
BWc2vm4St1W77wQmjfhrdCAh+ngAEb57MpENdMn4U0EtrdSPiSvp
-----END CERTIFICATE-----
