Certificate:
    Data:
        Version: 3 (0x2)
        Serial Number:
            9d:c3:98:c6:56:44:7b:5e
    Signature Algorithm: sha512WithRSAEncryption
        Issuer: C=CH, ST=Zug, L=Zug, O=Perfect Privacy, CN=Perfect Privacy/emailAddress=admin@perfect-privacy.com
        Validity
            Not Before: Jul  2 00:00:00 2023 GMT
            Not After : Feb 26 00:00:00 2025 GMT
        Subject: C=CH, ST=Zug, O=Perfect Privacy, CN=Client_manchester.perfect-privacy.com/emailAddress=admin@perfect-privacy.com
        Subject Public Key Info:
            Public Key Algorithm: rsaEncryption
                Public-Key: (4096 bit)
                Modulus:
                    00:b5:84:41:9e:8c:be:4f:8e:32:61:be:6b:be:ae:
                    36:c3:ee:4c:fe:2d:5a:cb:9c:d6:18:fd:ed:63:5e:
                    e6:35:bc:34:82:2b:b8:81:79:04:ce:5d:dd:ab:3e:
                    84:3c:be:64:bc:91:bc:2d:bc:e7:cb:fb:41:c0:66:
                    1a:0b:8a:14:85:92:5d:7f:7d:47:fb:02:aa:71:8f:
                    c6:f7:4b:36:43:9f:94:21:20:db:5d:87:19:6c:bd:
                    57:fe:2f:0c:48:2a:62:be:1e:4d:79:56:3f:cc:4f:
                    ad:84:1e:e9:e4:b3:18:58:60:b3:7e:70:e4:89:e9:
                    bf:bd:ef:4f:5d:93:48:c2:bf:a0:3b:48:5c:6e:0d:
                    48:14:20:0b:a4:6d:ed:c8:14:d0:2f:74:3d:67:d0:
                    a9:30:da:35:73:42:1a:12:7e:98:cf:11:69:f4:bb:
                    e8:2f:05:9b:89:e9:9c:3b:fa:2f:b9:7b:7b:6b:2b:
                    01:5d:56:68:0a:54:53:49:19:1b:d9:83:67:9b:2e:
                    25:03:13:94:43:aa:10:56:1d:7e:78:93:e0:75:8d:
                    58:24:a4:a9:b7:6c:c3:7f:69:65:a3:d5:c1:63:0c:
                    6f:e6:62:a2:a5:9a:e4:9a:61:4d:93:cc:49:9d:ee:
                    15:cc:41:51:4f:af:b4:1e:53:b9:e7:96:2a:61:ac:
                    6a:60:f8:53:a6:48:9a:2c:bb:5a:b1:f5:e4:40:ea:
                    ca:51:ad:87:ba:79:f1:60:cb:39:b0:06:41:d4:37:
                    35:b9:1c:ea:17:42:ab:7c:64:fa:46:5f:f5:81:d9:
                    42:c7:f2:20:ae:3b:ba:ba:95:08:8f:cf:37:1c:54:
                    7d:72:e7:3a:3c:b3:a4:b0:86:9e:ac:47:0a:88:99:
                    4f:5f:74:7a:91:be:72:49:1a:e6:4f:e8:cf:eb:07:
                    24:43:06:03:ce:7b:37:b2:66:9b:21:89:e3:47:47:
                    da:64:88:18:fb:32:52:fd:5c:b5:f0:3d:39:d0:56:
                    42:51:05:dc:bd:a2:4c:fe:e4:c5:9e:f3:58:fe:0c:
                    1a:eb:9a:7d:d9:31:e4:88:a4:33:dc:08:29:70:ee:
                    68:ba:51:ee:55:07:39:31:f6:54:0b:a9:05:a4:b6:
                    f0:36:cd:08:60:b3:e2:68:96:31:d8:49:9b:26:3e:
                    c3:d1:51:2e:b4:7f:39:97:e3:ac:cc:87:0b:58:3c:
                    33:01:ba:95:6f:43:2f:c1:41:8a:56:96:8f:7c:8d:
                    8a:f5:92:2a:1d:8e:52:f7:d2:93:11:89:c1:01:be:
                    a8:7e:36:1f:2c:34:ef:5d:c1:24:d8:db:41:f0:29:
                    01:2a:af:d5:95:60:7e:5d:d9:5e:4e:49:84:7a:d9:
                    73:ec:7d
                Exponent: 65537 (0x10001)
        X509v3 extensions:
            X509v3 Basic Constraints: 
                CA:FALSE
            Netscape Comment: 
                VPN User Certificate
            Netscape Cert Type: 
                SSL Client
            X509v3 Key Usage: 
                Digital Signature
            X509v3 Extended Key Usage: 
                TLS Web Client Authentication
            X509v3 Subject Key Identifier: 
                93:86:1A:56:7C:A8:46:3D:1B:9A:19:B2:23:44:52:D4:2F:6D:C7:C0
            X509v3 Authority Key Identifier: 
                keyid:86:4F:B8:6D:18:2A:1B:3C:8F:27:34:29:F0:81:9F:BA:6E:61:0E:E1
                DirName:/C=CH/ST=Zug/L=Zug/O=Perfect Privacy/CN=Perfect Privacy/emailAddress=admin@perfect-privacy.com
                serial:FA:11:B5:C4:AA:69:AF:69

    Signature Algorithm: sha512WithRSAEncryption
         11:c0:33:d2:35:71:e8:62:5b:d5:43:0d:53:fb:82:21:88:82:
         0b:85:a9:a9:0e:0b:62:b0:6e:44:39:1c:24:53:60:b5:11:ce:
         ea:b0:26:7d:86:0e:0a:c2:62:04:5a:71:c7:1c:c3:84:17:6d:
         50:e8:81:31:c8:43:c8:13:b6:07:45:9a:15:c0:27:92:d0:33:
         8b:71:7f:5b:76:26:13:3b:f2:8f:22:74:e8:57:7b:36:1a:29:
         9d:2f:c8:b1:d5:af:eb:df:a0:b6:0e:43:1c:d4:ab:b5:56:1d:
         7c:c8:4e:13:a2:96:ce:b0:68:30:c4:e4:3d:fe:b2:17:4a:75:
         65:08:6f:b7:b5:9f:78:35:f6:47:0e:6c:69:9f:15:2a:37:5b:
         a1:c2:7d:dc:4c:6c:b2:52:29:d7:88:a0:5f:17:91:43:76:ac:
         c3:ea:6d:02:11:43:24:80:0b:a2:2c:37:4f:da:ee:64:55:9b:
         66:fd:70:e5:af:dc:b3:ba:f8:49:eb:d8:19:04:2e:78:c3:64:
         9f:7f:bc:4b:f2:51:7a:f9:8f:99:7d:32:58:42:ca:9b:7d:56:
         8a:42:89:ee:73:ce:a1:6b:3f:90:ad:f1:f7:b2:e4:84:06:bd:
         b6:ea:8a:c6:52:e6:d3:f2:94:85:73:c7:35:55:5d:9d:76:de:
         40:75:c8:c9:c7:80:25:21:c8:f4:45:ee:15:94:6e:49:89:c0:
         db:d4:5e:bb:e5:ff:b6:5d:24:f8:03:50:02:4f:a6:fe:27:7d:
         73:14:07:dc:84:8f:3d:10:ab:12:bc:26:e9:8c:07:25:31:9b:
         8c:f7:f6:20:5f:0f:e6:60:e0:41:46:43:fa:8f:b1:70:b7:d7:
         1b:b7:fe:70:d2:5c:43:0c:b0:15:a2:37:1f:7d:df:9f:b0:13:
         d0:02:ae:07:c4:ff:ce:44:d4:99:01:49:f4:2e:c4:93:ef:67:
         a7:1e:d5:d1:f5:51:10:2d:ff:e0:b3:31:ca:56:ca:81:c1:e8:
         6c:17:ec:60:eb:ca:9f:77:b8:ea:60:09:22:48:aa:60:81:8f:
         36:20:99:d3:ce:06:28:5e:3c:1d:75:a1:6f:46:7d:43:25:6d:
         96:2e:07:69:3b:2b:e4:2a:04:86:51:27:aa:50:70:5e:74:95:
         93:e5:20:5b:8d:59:bd:d4:6f:91:23:da:0e:d3:99:c9:2e:80:
         12:64:e4:26:61:b2:12:ed:fe:bc:f8:d1:70:b9:da:ab:22:4b:
         75:1c:ca:a6:e9:e4:9a:fd:47:bb:1b:fb:25:36:fe:70:52:51:
         9c:d3:79:c9:9f:74:28:9f:a3:4b:51:b9:43:4a:96:c6:43:c3:
         dd:40:5c:91:3b:4e:ac:dc
-----BEGIN CERTIFICATE-----
MIIG5DCCBMygAwIBAgIJAJ3DmMZWRHteMA0GCSqGSIb3DQEBDQUAMIGHMQswCQYD
VQQGEwJDSDEMMAoGA1UECBMDWnVnMQwwCgYDVQQHEwNadWcxGDAWBgNVBAoTD1Bl
cmZlY3QgUHJpdmFjeTEYMBYGA1UEAxMPUGVyZmVjdCBQcml2YWN5MSgwJgYJKoZI
hvcNAQkBFhlhZG1pbkBwZXJmZWN0LXByaXZhY3kuY29tMB4XDTIzMDcwMjAwMDAw
MFoXDTI1MDIyNjAwMDAwMFowgY8xCzAJBgNVBAYTAkNIMQwwCgYDVQQIEwNadWcx
GDAWBgNVBAoTD1BlcmZlY3QgUHJpdmFjeTEuMCwGA1UEAxQlQ2xpZW50X21hbmNo
ZXN0ZXIucGVyZmVjdC1wcml2YWN5LmNvbTEoMCYGCSqGSIb3DQEJARYZYWRtaW5A
cGVyZmVjdC1wcml2YWN5LmNvbTCCAiIwDQYJKoZIhvcNAQEBBQADggIPADCCAgoC
ggIBALWEQZ6Mvk+OMmG+a76uNsPuTP4tWsuc1hj97WNe5jW8NIIruIF5BM5d3as+
hDy+ZLyRvC2858v7QcBmGguKFIWSXX99R/sCqnGPxvdLNkOflCEg212HGWy9V/4v
DEgqYr4eTXlWP8xPrYQe6eSzGFhgs35w5Inpv73vT12TSMK/oDtIXG4NSBQgC6Rt
7cgU0C90PWfQqTDaNXNCGhJ+mM8RafS76C8Fm4npnDv6L7l7e2srAV1WaApUU0kZ
G9mDZ5suJQMTlEOqEFYdfniT4HWNWCSkqbdsw39pZaPVwWMMb+ZioqWa5JphTZPM
SZ3uFcxBUU+vtB5TueeWKmGsamD4U6ZImiy7WrH15EDqylGth7p58WDLObAGQdQ3
Nbkc6hdCq3xk+kZf9YHZQsfyIK47urqVCI/PNxxUfXLnOjyzpLCGnqxHCoiZT190
epG+ckka5k/oz+sHJEMGA857N7JmmyGJ40dH2mSIGPsyUv1ctfA9OdBWQlEF3L2i
TP7kxZ7zWP4MGuuafdkx5IikM9wIKXDuaLpR7lUHOTH2VAupBaS28DbNCGCz4miW
MdhJmyY+w9FRLrR/OZfjrMyHC1g8MwG6lW9DL8FBilaWj3yNivWSKh2OUvfSkxGJ
wQG+qH42Hyw0713BJNjbQfApASqv1ZVgfl3ZXk5JhHrZc+x9AgMBAAGjggFHMIIB
QzAJBgNVHRMEAjAAMCMGCWCGSAGG+EIBDQQWFhRWUE4gVXNlciBDZXJ0aWZpY2F0
ZTARBglghkgBhvhCAQEEBAMCB4AwCwYDVR0PBAQDAgeAMBMGA1UdJQQMMAoGCCsG
AQUFBwMCMB0GA1UdDgQWBBSThhpWfKhGPRuaGbIjRFLUL23HwDCBvAYDVR0jBIG0
MIGxgBSGT7htGCobPI8nNCnwgZ+6bmEO4aGBjaSBijCBhzELMAkGA1UEBhMCQ0gx
DDAKBgNVBAgTA1p1ZzEMMAoGA1UEBxMDWnVnMRgwFgYDVQQKEw9QZXJmZWN0IFBy
aXZhY3kxGDAWBgNVBAMTD1BlcmZlY3QgUHJpdmFjeTEoMCYGCSqGSIb3DQEJARYZ
YWRtaW5AcGVyZmVjdC1wcml2YWN5LmNvbYIJAPoRtcSqaa9pMA0GCSqGSIb3DQEB
DQUAA4ICAQARwDPSNXHoYlvVQw1T+4IhiIILhampDgtisG5EORwkU2C1Ec7qsCZ9
hg4KwmIEWnHHHMOEF21Q6IExyEPIE7YHRZoVwCeS0DOLcX9bdiYTO/KPInToV3s2
GimdL8ix1a/r36C2DkMc1Ku1Vh18yE4TopbOsGgwxOQ9/rIXSnVlCG+3tZ94NfZH
DmxpnxUqN1uhwn3cTGyyUinXiKBfF5FDdqzD6m0CEUMkgAuiLDdP2u5kVZtm/XDl
r9yzuvhJ69gZBC54w2Sff7xL8lF6+Y+ZfTJYQsqbfVaKQonuc86haz+QrfH3suSE
Br226orGUubT8pSFc8c1VV2ddt5AdcjJx4AlIcj0Re4VlG5JicDb1F675f+2XST4
A1ACT6b+J31zFAfchI89EKsSvCbpjAclMZuM9/YgXw/mYOBBRkP6j7Fwt9cbt/5w
0lxDDLAVojcffd+fsBPQAq4HxP/ORNSZAUn0LsST72enHtXR9VEQLf/gszHKVsqB
wehsF+xg68qfd7jqYAkiSKpggY82IJnTzgYoXjwddaFvRn1DJW2WLgdpOyvkKgSG
USeqUHBedJWT5SBbjVm91G+RI9oO05nJLoASZOQmYbIS7f68+NFwudqrIkt1HMqm
6eSa/Ue7G/slNv5wUlGc03nJn3Qon6NLUblDSpbGQ8PdQFyRO06s3A==
-----END CERTIFICATE-----
