Certificate:
    Data:
        Version: 3 (0x2)
        Serial Number:
            db:37:32:5d:71:df:30:1b
    Signature Algorithm: sha512WithRSAEncryption
        Issuer: C=CH, ST=Zug, L=Zug, O=Perfect Privacy, CN=Perfect Privacy/emailAddress=admin@perfect-privacy.com
        Validity
            Not Before: Jan 11 00:00:00 2023 GMT
            Not After : Sep  7 00:00:00 2024 GMT
        Subject: C=CH, ST=Zug, O=Perfect Privacy, CN=Client_malmoe.perfect-privacy.com/emailAddress=admin@perfect-privacy.com
        Subject Public Key Info:
            Public Key Algorithm: rsaEncryption
                Public-Key: (4096 bit)
                Modulus:
                    00:9b:48:8d:b2:14:1b:05:0f:81:30:4a:9f:0e:12:
                    17:14:6c:4c:8e:54:b0:d8:95:90:9f:1c:83:5d:46:
                    f6:08:b0:28:d6:76:73:b6:8b:15:7b:0b:b3:64:c7:
                    36:71:c4:c3:2c:7b:f2:fb:64:71:f3:99:5c:ab:58:
                    81:f2:d1:6e:2c:5c:1c:52:d3:ff:97:fd:9f:e9:35:
                    95:72:15:20:2a:c8:12:29:84:9e:6f:6c:2b:b1:a2:
                    7b:4f:20:61:a2:3c:1d:2e:be:f2:e2:dd:f6:44:ee:
                    d2:78:18:94:7b:9f:21:9b:83:3c:6d:53:7c:7c:1a:
                    f6:b2:f9:ad:6b:bc:05:9a:f3:df:66:79:66:7e:9a:
                    fe:c2:af:01:ac:14:fb:31:72:f9:7e:a8:b9:03:06:
                    43:46:41:e5:55:64:d0:a5:01:d8:51:a6:ab:3b:36:
                    a2:ee:95:77:79:28:b5:2b:6c:41:cb:d1:f2:1f:d1:
                    e1:e0:c2:e0:4c:19:ae:82:a3:2e:50:71:bb:52:be:
                    7f:f0:2d:3d:a5:e3:82:33:2a:2a:b4:cf:c2:69:a9:
                    43:da:4f:de:07:94:44:47:09:5e:12:f5:e1:c8:46:
                    03:49:ab:6f:fa:f6:b6:60:be:92:19:34:8b:6a:ef:
                    3e:b5:7b:4a:27:c5:6f:8a:e7:e9:b3:df:b5:52:3f:
                    88:81:23:54:46:ce:30:87:78:74:56:ee:ca:b7:0a:
                    3c:9a:0a:d4:3d:ce:33:71:11:2c:a7:8e:19:3a:73:
                    98:2b:0a:a9:fc:f5:02:ea:c8:6f:65:69:bc:1f:7e:
                    56:69:0b:64:e6:56:58:95:5a:3b:cd:b6:f4:d1:22:
                    1a:a1:ce:3d:7a:26:b9:13:1c:36:a7:4d:b1:93:36:
                    5c:38:25:3e:86:90:2d:85:d5:63:62:31:97:4c:74:
                    06:29:5a:9a:43:5b:50:e1:81:f0:50:65:16:ac:d9:
                    4d:ae:92:7a:60:c7:26:c1:f7:bf:f3:b2:ed:42:b1:
                    87:5b:01:33:cd:af:fd:c9:a5:76:f4:42:ce:56:2f:
                    c5:ac:b5:63:d1:08:97:6e:7d:88:f9:20:81:33:ed:
                    80:6e:b0:f9:5c:9c:db:e6:e9:fd:3f:33:be:a6:29:
                    82:e0:38:39:b8:a7:e9:6a:53:2f:f9:7a:cf:46:88:
                    ab:02:5c:c9:63:25:b8:5c:e1:7c:9a:56:d8:d5:b1:
                    18:b1:fd:1f:b2:39:49:24:89:08:cb:fc:43:44:08:
                    71:85:1b:fd:fa:44:ea:0f:11:4a:16:18:05:03:ae:
                    c2:6c:fd:3c:07:e7:66:0e:e0:5b:91:7f:2c:07:d2:
                    09:ac:1c:26:3e:58:97:8f:0d:26:c8:22:98:12:fc:
                    b9:03:d9
                Exponent: 65537 (0x10001)
        X509v3 extensions:
            X509v3 Basic Constraints: 
                CA:FALSE
            Netscape Comment: 
                VPN User Certificate
            Netscape Cert Type: 
                SSL Client
            X509v3 Key Usage: 
                Digital Signature
            X509v3 Extended Key Usage: 
                TLS Web Client Authentication
            X509v3 Subject Key Identifier: 
                2D:71:A0:FE:D7:72:2F:F9:46:6B:56:A6:DC:D3:A3:3E:B7:47:39:94
            X509v3 Authority Key Identifier: 
                keyid:86:4F:B8:6D:18:2A:1B:3C:8F:27:34:29:F0:81:9F:BA:6E:61:0E:E1
                DirName:/C=CH/ST=Zug/L=Zug/O=Perfect Privacy/CN=Perfect Privacy/emailAddress=admin@perfect-privacy.com
                serial:FA:11:B5:C4:AA:69:AF:69

    Signature Algorithm: sha512WithRSAEncryption
         5c:f2:55:d5:c8:6c:8b:7f:80:2c:4b:74:48:70:95:62:02:89:
         82:79:6e:39:f2:a4:dd:8b:94:00:5b:11:55:9e:d7:3d:1a:18:
         09:20:31:be:ec:d0:6c:11:f4:86:18:17:09:82:62:2b:15:33:
         cc:4a:97:dd:ad:0c:59:48:d6:22:1c:10:00:72:a5:05:67:50:
         fd:a5:9a:c4:ca:7a:37:4c:be:6d:db:f9:69:27:07:5e:10:83:
         ba:23:32:e2:0b:af:47:df:a3:00:46:2d:96:8c:a3:8a:6a:98:
         9d:c2:74:ef:1f:96:65:50:0e:1a:68:88:37:57:0e:9a:a3:1e:
         c1:76:b1:c3:3b:ba:03:91:e4:86:51:15:2d:9e:31:4b:70:b7:
         40:f4:0f:d9:43:79:17:e4:0b:41:aa:7a:d4:49:81:ad:6c:22:
         2c:98:08:49:d0:ac:2f:8c:a0:aa:d5:fc:47:04:b4:a2:61:2b:
         b9:0d:ea:7f:7a:15:40:f4:ed:91:a5:8d:4e:2c:55:31:2b:c3:
         b0:ae:9f:13:a2:78:f7:0d:94:02:5f:9e:de:89:2b:67:9b:16:
         e5:93:76:c7:28:ed:6b:ba:d3:1b:cf:62:29:9b:7a:b0:a2:c8:
         d5:c5:4a:46:34:70:63:2c:e1:bf:dd:21:f3:ae:05:fd:66:96:
         74:3d:bf:c8:a0:9d:7d:a9:67:a0:59:44:b8:1c:7d:c6:69:5a:
         36:fb:ba:ec:f4:a6:29:39:48:3d:a7:81:0e:6b:dd:6d:8d:79:
         f6:20:28:35:eb:a7:1f:85:8a:3a:b4:55:1d:a5:d4:86:fc:ed:
         38:94:82:20:7a:60:8e:ce:fa:8b:31:9c:89:37:bc:9b:c3:20:
         a5:f4:c3:44:d2:57:79:00:b0:4d:be:e0:3b:eb:49:3f:2f:ca:
         a6:91:ab:e0:9a:b2:ea:96:38:64:83:26:df:ce:82:d0:b4:a9:
         c1:99:0f:f1:21:05:62:06:7e:33:79:64:f8:e5:2e:c8:1d:a6:
         57:82:b4:59:24:ff:5d:57:0e:33:d8:43:20:67:5b:26:93:8b:
         80:e7:4c:1a:f9:54:36:e2:a1:2c:d8:dd:8d:5b:fb:2b:b4:11:
         8d:b5:ef:cf:1f:8e:ff:24:20:eb:f7:e1:8b:bb:9b:b7:5f:1d:
         41:0f:8f:0d:6d:51:d3:9f:5b:b2:7b:fc:71:04:8b:21:3f:fd:
         23:33:41:53:92:5a:a5:a6:59:7a:98:b6:31:ac:1f:2a:22:07:
         bd:c7:5b:93:32:6b:52:e6:54:49:59:1e:f3:7f:e3:73:2e:ee:
         ee:89:23:a3:41:b8:bb:1c:54:8b:9b:5a:c6:db:0a:27:c6:fd:
         f5:7f:ee:fe:48:8a:44:c5
-----BEGIN CERTIFICATE-----
MIIG4DCCBMigAwIBAgIJANs3Ml1x3zAbMA0GCSqGSIb3DQEBDQUAMIGHMQswCQYD
VQQGEwJDSDEMMAoGA1UECBMDWnVnMQwwCgYDVQQHEwNadWcxGDAWBgNVBAoTD1Bl
cmZlY3QgUHJpdmFjeTEYMBYGA1UEAxMPUGVyZmVjdCBQcml2YWN5MSgwJgYJKoZI
hvcNAQkBFhlhZG1pbkBwZXJmZWN0LXByaXZhY3kuY29tMB4XDTIzMDExMTAwMDAw
MFoXDTI0MDkwNzAwMDAwMFowgYsxCzAJBgNVBAYTAkNIMQwwCgYDVQQIEwNadWcx
GDAWBgNVBAoTD1BlcmZlY3QgUHJpdmFjeTEqMCgGA1UEAxQhQ2xpZW50X21hbG1v
ZS5wZXJmZWN0LXByaXZhY3kuY29tMSgwJgYJKoZIhvcNAQkBFhlhZG1pbkBwZXJm
ZWN0LXByaXZhY3kuY29tMIICIjANBgkqhkiG9w0BAQEFAAOCAg8AMIICCgKCAgEA
m0iNshQbBQ+BMEqfDhIXFGxMjlSw2JWQnxyDXUb2CLAo1nZztosVewuzZMc2ccTD
LHvy+2Rx85lcq1iB8tFuLFwcUtP/l/2f6TWVchUgKsgSKYSeb2wrsaJ7TyBhojwd
Lr7y4t32RO7SeBiUe58hm4M8bVN8fBr2svmta7wFmvPfZnlmfpr+wq8BrBT7MXL5
fqi5AwZDRkHlVWTQpQHYUaarOzai7pV3eSi1K2xBy9HyH9Hh4MLgTBmugqMuUHG7
Ur5/8C09peOCMyoqtM/CaalD2k/eB5RERwleEvXhyEYDSatv+va2YL6SGTSLau8+
tXtKJ8Vviufps9+1Uj+IgSNURs4wh3h0Vu7Ktwo8mgrUPc4zcREsp44ZOnOYKwqp
/PUC6shvZWm8H35WaQtk5lZYlVo7zbb00SIaoc49eia5Exw2p02xkzZcOCU+hpAt
hdVjYjGXTHQGKVqaQ1tQ4YHwUGUWrNlNrpJ6YMcmwfe/87LtQrGHWwEzza/9yaV2
9ELOVi/FrLVj0QiXbn2I+SCBM+2AbrD5XJzb5un9PzO+pimC4Dg5uKfpalMv+XrP
RoirAlzJYyW4XOF8mlbY1bEYsf0fsjlJJIkIy/xDRAhxhRv9+kTqDxFKFhgFA67C
bP08B+dmDuBbkX8sB9IJrBwmPliXjw0myCKYEvy5A9kCAwEAAaOCAUcwggFDMAkG
A1UdEwQCMAAwIwYJYIZIAYb4QgENBBYWFFZQTiBVc2VyIENlcnRpZmljYXRlMBEG
CWCGSAGG+EIBAQQEAwIHgDALBgNVHQ8EBAMCB4AwEwYDVR0lBAwwCgYIKwYBBQUH
AwIwHQYDVR0OBBYEFC1xoP7Xci/5RmtWptzToz63RzmUMIG8BgNVHSMEgbQwgbGA
FIZPuG0YKhs8jyc0KfCBn7puYQ7hoYGNpIGKMIGHMQswCQYDVQQGEwJDSDEMMAoG
A1UECBMDWnVnMQwwCgYDVQQHEwNadWcxGDAWBgNVBAoTD1BlcmZlY3QgUHJpdmFj
eTEYMBYGA1UEAxMPUGVyZmVjdCBQcml2YWN5MSgwJgYJKoZIhvcNAQkBFhlhZG1p
bkBwZXJmZWN0LXByaXZhY3kuY29tggkA+hG1xKppr2kwDQYJKoZIhvcNAQENBQAD
ggIBAFzyVdXIbIt/gCxLdEhwlWICiYJ5bjnypN2LlABbEVWe1z0aGAkgMb7s0GwR
9IYYFwmCYisVM8xKl92tDFlI1iIcEABypQVnUP2lmsTKejdMvm3b+WknB14Qg7oj
MuILr0ffowBGLZaMo4pqmJ3CdO8flmVQDhpoiDdXDpqjHsF2scM7ugOR5IZRFS2e
MUtwt0D0D9lDeRfkC0GqetRJga1sIiyYCEnQrC+MoKrV/EcEtKJhK7kN6n96FUD0
7ZGljU4sVTErw7CunxOiePcNlAJfnt6JK2ebFuWTdsco7Wu60xvPYimberCiyNXF
SkY0cGMs4b/dIfOuBf1mlnQ9v8ignX2pZ6BZRLgcfcZpWjb7uuz0pik5SD2ngQ5r
3W2NefYgKDXrpx+Fijq0VR2l1Ib87TiUgiB6YI7O+osxnIk3vJvDIKX0w0TSV3kA
sE2+4DvrST8vyqaRq+CasuqWOGSDJt/OgtC0qcGZD/EhBWIGfjN5ZPjlLsgdpleC
tFkk/11XDjPYQyBnWyaTi4DnTBr5VDbioSzY3Y1b+yu0EY21788fjv8kIOv34Yu7
m7dfHUEPjw1tUdOfW7J7/HEEiyE//SMzQVOSWqWmWXqYtjGsHyoiB73HW5Mya1Lm
VElZHvN/43Mu7u6JI6NBuLscVIubWsbbCifG/fV/7v5IikTF
-----END CERTIFICATE-----
