Certificate:
    Data:
        Version: 3 (0x2)
        Serial Number:
            c1:80:45:b5:13:18:b6:04
    Signature Algorithm: sha512WithRSAEncryption
        Issuer: C=CH, ST=Zug, L=Zug, O=Perfect Privacy, CN=Perfect Privacy/emailAddress=admin@perfect-privacy.com
        Validity
            Not Before: Apr 11 00:00:00 2024 GMT
            Not After : Dec  7 00:00:00 2025 GMT
        Subject: C=CH, ST=Zug, O=Perfect Privacy, CN=Client_newyork.perfect-privacy.com/emailAddress=admin@perfect-privacy.com
        Subject Public Key Info:
            Public Key Algorithm: rsaEncryption
                Public-Key: (4096 bit)
                Modulus:
                    00:b7:51:9c:e7:60:6d:2c:01:24:b0:50:eb:09:54:
                    88:c2:b4:aa:d3:de:7c:a5:69:eb:83:8d:3a:a1:83:
                    5d:3a:4f:0b:9b:e6:c1:ba:fa:63:a8:04:2f:c0:07:
                    11:15:28:c0:ee:bb:d7:98:bc:8e:dd:3a:9c:e6:05:
                    68:17:a1:c1:de:b1:a0:37:d3:18:91:f9:67:70:2c:
                    12:e1:b3:fc:f1:f8:94:48:cf:d6:b7:c7:a5:88:f9:
                    3f:65:85:6a:e4:b5:30:6c:2e:13:23:2d:5c:dc:bf:
                    a6:17:61:4c:ec:5a:f7:de:5e:f8:a7:e4:d2:c4:c3:
                    36:23:cf:8d:ef:ca:06:ed:d1:1c:a4:a0:ab:7d:e5:
                    c1:2a:f1:49:67:f3:79:7d:29:c4:0b:65:c3:ac:b9:
                    d3:1c:66:b2:91:7d:a2:3e:e1:cc:6c:70:67:e2:c8:
                    9d:1e:d1:d5:97:a0:be:19:15:46:be:55:2f:11:3b:
                    be:ca:ce:24:e6:2d:fa:4b:7b:5f:c3:f9:5a:e9:ee:
                    d0:51:f1:c7:30:82:4e:be:81:ae:5a:e9:72:e1:de:
                    02:a6:b5:7f:1c:1e:c9:86:bc:2c:d5:33:54:a6:57:
                    93:dd:c9:ad:76:94:f7:ac:f1:1e:0f:68:b7:b2:3d:
                    02:05:1b:09:2a:1b:fa:fd:01:c6:5e:9b:07:2e:ed:
                    0a:fc:35:46:81:31:ca:81:f8:fd:87:83:95:de:6c:
                    64:db:e1:d6:79:6a:65:77:46:df:e8:16:8b:d3:da:
                    51:bc:84:2a:88:37:9b:7c:17:16:af:ab:87:4d:72:
                    75:48:aa:55:3c:a8:38:59:e0:7f:0f:3b:31:e3:ce:
                    29:49:e2:e4:4c:31:40:d1:df:c2:3d:3e:de:a5:be:
                    97:d8:a5:b5:ea:7b:c8:dc:10:0d:b6:de:9c:53:9a:
                    4d:6f:26:20:73:42:bb:65:17:10:7f:bc:39:87:04:
                    42:83:e0:8f:6f:83:7a:81:9c:34:6b:c4:11:6c:6b:
                    33:fa:08:37:43:d3:94:94:aa:9d:c9:32:86:9d:dd:
                    33:5c:c0:4a:85:6a:e7:45:82:5a:e5:11:e7:73:71:
                    b9:3e:6a:d8:02:59:bd:b2:9d:d1:a7:fd:81:58:1f:
                    75:01:33:54:c4:0e:80:43:8e:61:89:20:72:12:d1:
                    70:d3:4d:c7:60:e7:98:d9:8e:a6:fd:e3:9a:9f:89:
                    d1:2f:31:fc:82:91:c0:15:73:58:7d:ac:52:8c:e6:
                    7c:6a:d6:bf:e7:00:1d:7c:7d:fb:7d:73:14:e0:3f:
                    12:1c:a3:82:c9:64:55:71:6b:04:7d:b7:1c:64:3a:
                    46:e7:8f:7a:b7:a6:70:c8:7f:6c:e4:e6:a5:4f:29:
                    d0:f9:c7
                Exponent: 65537 (0x10001)
        X509v3 extensions:
            X509v3 Basic Constraints: 
                CA:FALSE
            Netscape Comment: 
                VPN User Certificate
            Netscape Cert Type: 
                SSL Client
            X509v3 Key Usage: 
                Digital Signature
            X509v3 Extended Key Usage: 
                TLS Web Client Authentication
            X509v3 Subject Key Identifier: 
                49:96:8A:40:71:12:AB:1E:79:21:C1:A1:75:07:AE:B1:13:8E:56:32
            X509v3 Authority Key Identifier: 
                keyid:86:4F:B8:6D:18:2A:1B:3C:8F:27:34:29:F0:81:9F:BA:6E:61:0E:E1
                DirName:/C=CH/ST=Zug/L=Zug/O=Perfect Privacy/CN=Perfect Privacy/emailAddress=admin@perfect-privacy.com
                serial:FA:11:B5:C4:AA:69:AF:69

    Signature Algorithm: sha512WithRSAEncryption
         43:69:0c:72:09:aa:a9:45:ce:38:c1:51:71:08:d6:72:bd:be:
         cb:5e:04:eb:ee:85:01:a4:db:a0:93:1b:5c:57:91:08:cc:ee:
         dc:fa:5c:24:10:10:6c:8e:c7:7a:e4:83:10:50:dc:12:cf:c0:
         c1:94:3a:0f:fe:f2:6b:10:9f:63:59:3d:0d:03:36:40:a6:71:
         6f:f8:e2:85:1e:59:f8:26:d6:2f:03:8b:58:dc:be:f0:09:47:
         1d:35:94:9f:a2:f7:58:52:00:40:aa:e1:87:50:d5:49:15:a4:
         1a:69:04:b9:83:ed:28:f0:9f:4c:a9:40:4b:89:9e:e4:74:3a:
         5f:0f:ab:17:b1:13:c7:43:69:6a:35:66:8d:6d:1a:20:69:71:
         cf:2e:e0:6d:83:77:97:ba:6e:86:bf:43:27:89:91:f3:5c:59:
         a5:a1:9e:49:66:c3:6a:68:89:1e:8f:2c:44:46:f1:5f:39:1a:
         f1:6e:03:c6:23:f9:fb:6e:60:9d:d1:8f:98:d9:0d:b7:9f:0f:
         60:5c:66:a7:87:d8:da:e2:2c:fa:45:d4:4d:89:f6:e9:a4:cc:
         58:57:7c:e2:2a:2d:78:5f:6b:5a:16:e9:ad:36:27:f4:f7:2c:
         63:de:97:50:b5:86:c4:53:87:32:de:91:51:94:f3:64:df:46:
         a2:c4:a5:be:99:69:f3:59:54:cf:c7:0f:13:5c:df:4d:e1:28:
         2f:2e:08:d4:ec:68:fa:c6:f5:e8:11:09:43:18:d2:c2:c0:ca:
         18:8a:4f:ec:82:86:b8:46:ee:3d:c8:22:49:f4:59:d1:06:28:
         a4:29:3e:71:3c:5b:44:a7:41:70:75:03:0f:d3:7c:2f:13:f6:
         3a:26:d6:bd:aa:bb:f6:c9:bc:4f:c4:0e:47:42:a1:0a:35:00:
         8d:94:fc:f1:a2:5a:31:7c:4c:40:9b:0b:c4:8a:94:98:ad:cc:
         d2:1a:24:d1:06:c1:e6:21:f1:a9:90:f3:a4:a7:e4:2d:46:25:
         ff:a0:22:4c:d4:20:60:67:c0:20:9b:87:2a:13:91:b1:ce:b7:
         74:82:bd:22:e3:42:bf:05:e2:b5:2e:00:df:f2:e6:4a:2d:b1:
         95:f9:b7:e9:0f:b2:22:18:ce:25:1b:2b:de:a2:31:d5:65:30:
         b5:66:f5:e0:f2:87:8b:e6:b8:91:c7:1f:b3:bd:8c:3d:0f:74:
         75:02:59:61:56:31:e9:53:51:e7:f5:c2:18:9a:2c:e7:ab:42:
         e0:44:1d:b6:8b:be:2d:f2:03:b7:07:12:6a:79:16:a8:4f:0d:
         3a:f3:34:90:00:2b:96:a1:38:cb:9f:c3:81:ad:08:2a:49:1c:
         20:a4:81:16:fb:32:0d:ef
-----BEGIN CERTIFICATE-----
MIIG4TCCBMmgAwIBAgIJAMGARbUTGLYEMA0GCSqGSIb3DQEBDQUAMIGHMQswCQYD
VQQGEwJDSDEMMAoGA1UECBMDWnVnMQwwCgYDVQQHEwNadWcxGDAWBgNVBAoTD1Bl
cmZlY3QgUHJpdmFjeTEYMBYGA1UEAxMPUGVyZmVjdCBQcml2YWN5MSgwJgYJKoZI
hvcNAQkBFhlhZG1pbkBwZXJmZWN0LXByaXZhY3kuY29tMB4XDTI0MDQxMTAwMDAw
MFoXDTI1MTIwNzAwMDAwMFowgYwxCzAJBgNVBAYTAkNIMQwwCgYDVQQIEwNadWcx
GDAWBgNVBAoTD1BlcmZlY3QgUHJpdmFjeTErMCkGA1UEAxQiQ2xpZW50X25ld3lv
cmsucGVyZmVjdC1wcml2YWN5LmNvbTEoMCYGCSqGSIb3DQEJARYZYWRtaW5AcGVy
ZmVjdC1wcml2YWN5LmNvbTCCAiIwDQYJKoZIhvcNAQEBBQADggIPADCCAgoCggIB
ALdRnOdgbSwBJLBQ6wlUiMK0qtPefKVp64ONOqGDXTpPC5vmwbr6Y6gEL8AHERUo
wO6715i8jt06nOYFaBehwd6xoDfTGJH5Z3AsEuGz/PH4lEjP1rfHpYj5P2WFauS1
MGwuEyMtXNy/phdhTOxa995e+Kfk0sTDNiPPje/KBu3RHKSgq33lwSrxSWfzeX0p
xAtlw6y50xxmspF9oj7hzGxwZ+LInR7R1ZegvhkVRr5VLxE7vsrOJOYt+kt7X8P5
Wunu0FHxxzCCTr6BrlrpcuHeAqa1fxweyYa8LNUzVKZXk93JrXaU96zxHg9ot7I9
AgUbCSob+v0Bxl6bBy7tCvw1RoExyoH4/YeDld5sZNvh1nlqZXdG3+gWi9PaUbyE
Kog3m3wXFq+rh01ydUiqVTyoOFngfw87MePOKUni5EwxQNHfwj0+3qW+l9iltep7
yNwQDbbenFOaTW8mIHNCu2UXEH+8OYcEQoPgj2+DeoGcNGvEEWxrM/oIN0PTlJSq
nckyhp3dM1zASoVq50WCWuUR53NxuT5q2AJZvbKd0af9gVgfdQEzVMQOgEOOYYkg
chLRcNNNx2DnmNmOpv3jmp+J0S8x/IKRwBVzWH2sUozmfGrWv+cAHXx9+31zFOA/
EhyjgslkVXFrBH23HGQ6RuePeremcMh/bOTmpU8p0PnHAgMBAAGjggFHMIIBQzAJ
BgNVHRMEAjAAMCMGCWCGSAGG+EIBDQQWFhRWUE4gVXNlciBDZXJ0aWZpY2F0ZTAR
BglghkgBhvhCAQEEBAMCB4AwCwYDVR0PBAQDAgeAMBMGA1UdJQQMMAoGCCsGAQUF
BwMCMB0GA1UdDgQWBBRJlopAcRKrHnkhwaF1B66xE45WMjCBvAYDVR0jBIG0MIGx
gBSGT7htGCobPI8nNCnwgZ+6bmEO4aGBjaSBijCBhzELMAkGA1UEBhMCQ0gxDDAK
BgNVBAgTA1p1ZzEMMAoGA1UEBxMDWnVnMRgwFgYDVQQKEw9QZXJmZWN0IFByaXZh
Y3kxGDAWBgNVBAMTD1BlcmZlY3QgUHJpdmFjeTEoMCYGCSqGSIb3DQEJARYZYWRt
aW5AcGVyZmVjdC1wcml2YWN5LmNvbYIJAPoRtcSqaa9pMA0GCSqGSIb3DQEBDQUA
A4ICAQBDaQxyCaqpRc44wVFxCNZyvb7LXgTr7oUBpNugkxtcV5EIzO7c+lwkEBBs
jsd65IMQUNwSz8DBlDoP/vJrEJ9jWT0NAzZApnFv+OKFHln4JtYvA4tY3L7wCUcd
NZSfovdYUgBAquGHUNVJFaQaaQS5g+0o8J9MqUBLiZ7kdDpfD6sXsRPHQ2lqNWaN
bRogaXHPLuBtg3eXum6Gv0MniZHzXFmloZ5JZsNqaIkejyxERvFfORrxbgPGI/n7
bmCd0Y+Y2Q23nw9gXGanh9ja4iz6RdRNifbppMxYV3ziKi14X2taFumtNif09yxj
3pdQtYbEU4cy3pFRlPNk30aixKW+mWnzWVTPxw8TXN9N4SgvLgjU7Gj6xvXoEQlD
GNLCwMoYik/sgoa4Ru49yCJJ9FnRBiikKT5xPFtEp0FwdQMP03wvE/Y6Jta9qrv2
ybxPxA5HQqEKNQCNlPzxoloxfExAmwvEipSYrczSGiTRBsHmIfGpkPOkp+QtRiX/
oCJM1CBgZ8Agm4cqE5Gxzrd0gr0i40K/BeK1LgDf8uZKLbGV+bfpD7IiGM4lGyve
ojHVZTC1ZvXg8oeL5riRxx+zvYw9D3R1AllhVjHpU1Hn9cIYmiznq0LgRB22i74t
8gO3BxJqeRaoTw068zSQACuWoTjLn8OBrQgqSRwgpIEW+zIN7w==
-----END CERTIFICATE-----
