Certificate:
    Data:
        Version: 3 (0x2)
        Serial Number: 4675323408616417221 (0x40e215de84a667c5)
    Signature Algorithm: sha512WithRSAEncryption
        Issuer: C=CH, ST=Zug, L=Zug, O=Perfect Privacy, CN=Perfect Privacy/emailAddress=admin@perfect-privacy.com
        Validity
            Not Before: Jun  3 00:00:00 2023 GMT
            Not After : Jan 28 00:00:00 2025 GMT
        Subject: C=CH, ST=Zug, O=Perfect Privacy, CN=Client_newyork.perfect-privacy.com/emailAddress=admin@perfect-privacy.com
        Subject Public Key Info:
            Public Key Algorithm: rsaEncryption
                Public-Key: (4096 bit)
                Modulus:
                    00:9d:dc:26:54:32:d3:60:c6:00:0d:25:13:a0:61:
                    ed:59:e0:4d:c2:44:d7:59:b3:83:1f:b0:c8:f0:1e:
                    b1:8b:7d:5b:78:1c:79:71:5e:2f:71:a5:bb:38:2c:
                    01:91:d4:2e:47:f1:88:2a:1d:73:0e:c3:08:7a:d5:
                    e4:ca:0b:dc:3b:72:cc:b7:c7:52:af:5c:4c:c9:51:
                    63:0a:ac:f7:82:3a:f6:99:4b:f7:3d:b1:2e:ff:20:
                    46:1a:1d:c4:07:61:03:1f:18:c9:07:be:8b:56:60:
                    a4:0d:f7:26:ad:c1:80:eb:c3:95:9f:f4:08:93:d2:
                    7c:07:a4:30:8c:44:8b:18:b9:6f:ed:20:d7:0b:78:
                    1b:a7:5d:d1:34:f6:48:df:fa:ed:87:c8:5d:98:d0:
                    09:15:42:f6:28:09:f3:6d:f1:ac:fc:b0:af:b2:66:
                    71:7d:f4:e9:4e:d7:b8:46:8e:2c:f8:f8:4a:8f:48:
                    af:6e:83:c6:27:39:72:29:68:4c:f8:36:ab:db:18:
                    6c:cb:c6:5b:0f:aa:f7:ce:70:64:80:c8:64:e1:78:
                    84:f7:66:df:5a:6f:cf:e7:f8:31:ac:79:24:f6:bd:
                    bf:e3:0f:af:92:a6:57:f9:f9:15:95:4b:4c:e2:3e:
                    a0:92:94:c0:7c:34:bb:22:ea:8c:0b:2d:59:50:e3:
                    b7:b8:a7:82:0b:71:5b:26:04:62:3c:f9:a1:c2:54:
                    22:97:c7:8e:1f:f4:b4:34:8b:97:1b:8d:a7:44:c8:
                    92:b5:02:f4:2d:86:9b:75:7c:63:f0:49:f6:67:07:
                    d2:ad:85:42:50:c4:aa:7a:87:7c:65:83:1c:f6:a3:
                    d9:d5:fd:04:76:14:c2:a7:42:aa:d6:1a:73:9d:9f:
                    6e:bd:21:52:27:c9:b6:8c:a2:1d:ed:13:e2:5c:76:
                    0f:b9:84:2d:54:94:d2:9e:ca:c8:d6:d8:13:8a:61:
                    f4:21:04:77:88:c0:dd:29:a3:27:a5:13:45:15:b9:
                    2a:bf:1e:78:3f:5f:c1:1e:50:cb:28:7e:6c:26:32:
                    79:fc:31:29:da:67:b5:e7:eb:4a:36:4d:0c:67:c8:
                    7f:e8:0f:2e:cf:1e:8e:43:e2:53:dc:f1:88:50:f0:
                    0a:9f:cd:09:7b:86:5e:76:64:c1:b3:d7:5c:cf:56:
                    28:c0:0e:b1:74:91:36:9c:60:b8:e5:37:6d:37:f4:
                    aa:65:f2:0f:54:84:c6:36:e5:a5:ed:2b:1e:be:49:
                    d9:57:c6:33:6a:52:c7:d0:89:71:d8:fb:79:f2:30:
                    8e:34:63:82:55:8c:2d:29:fd:a2:00:05:2c:53:a9:
                    43:be:29:fc:18:42:4d:14:12:58:71:4d:13:a1:15:
                    8f:9a:37
                Exponent: 65537 (0x10001)
        X509v3 extensions:
            X509v3 Basic Constraints: 
                CA:FALSE
            Netscape Comment: 
                VPN User Certificate
            Netscape Cert Type: 
                SSL Client
            X509v3 Key Usage: 
                Digital Signature
            X509v3 Extended Key Usage: 
                TLS Web Client Authentication
            X509v3 Subject Key Identifier: 
                C6:64:54:F7:CA:0C:35:8A:5E:C5:5C:07:48:65:DE:16:A7:D7:7C:0D
            X509v3 Authority Key Identifier: 
                keyid:86:4F:B8:6D:18:2A:1B:3C:8F:27:34:29:F0:81:9F:BA:6E:61:0E:E1
                DirName:/C=CH/ST=Zug/L=Zug/O=Perfect Privacy/CN=Perfect Privacy/emailAddress=admin@perfect-privacy.com
                serial:FA:11:B5:C4:AA:69:AF:69

    Signature Algorithm: sha512WithRSAEncryption
         2e:99:bb:be:64:cd:d0:14:15:a2:00:16:80:df:76:97:b8:7c:
         df:50:d7:2e:9f:87:0e:3d:df:63:e3:d0:13:ab:9b:19:fa:43:
         9f:2a:fd:19:5f:8a:56:8d:d2:93:78:39:a7:7f:1c:5d:f7:65:
         1a:8e:82:ba:dd:ed:3d:d0:c8:c1:c8:74:d4:67:22:41:ea:62:
         80:7f:65:4f:fc:94:b5:6e:f0:c4:e3:28:9b:1e:b9:3a:5e:72:
         55:a9:c1:16:57:c5:ce:70:4f:32:84:e3:e6:ae:25:b3:98:8a:
         86:00:2b:fb:81:02:66:50:4e:30:f8:34:a7:5b:6c:12:53:04:
         2f:77:d1:b3:c1:5b:a6:7d:06:95:41:ba:b3:30:da:4e:c4:8d:
         c3:9a:68:dd:7d:f1:41:6c:fb:d9:97:c2:8f:9f:15:ce:20:f0:
         32:28:97:ea:88:91:b8:91:0b:b2:ed:e9:f4:23:b6:35:02:e8:
         69:e2:11:84:97:e3:44:45:db:44:be:c7:de:b6:07:36:95:5a:
         80:9e:5b:6c:ae:1b:06:e0:93:05:0e:16:07:72:1f:61:5c:76:
         19:11:ae:99:f0:6a:32:12:dc:ea:34:2c:81:c2:6c:e7:c7:06:
         07:df:fc:f0:d7:9c:38:4f:9d:ff:be:96:e4:bb:f4:d6:90:8e:
         6b:9a:5e:bf:12:e3:f9:ce:33:c3:5f:3d:56:f9:90:18:ed:19:
         94:3e:67:a7:cb:6a:27:f5:8c:f3:96:61:32:d8:8f:ad:4b:38:
         c6:c8:f8:1a:9a:58:6e:92:fe:d9:5b:51:f6:bc:68:98:2e:6b:
         c4:c8:07:e4:aa:4b:fe:33:84:a3:ba:a6:ee:f2:09:3d:c5:ae:
         bd:d6:7d:02:dc:72:1e:05:41:fb:de:01:cb:30:11:6c:33:59:
         1a:3f:a6:80:4a:91:4f:4a:39:4b:f2:31:aa:2e:6c:97:41:87:
         c1:29:6b:19:43:4b:94:67:02:25:96:1d:df:e8:a1:77:7b:fb:
         39:a4:ea:a3:1b:94:58:13:40:73:21:b2:65:c8:a3:8f:56:14:
         43:75:e8:d0:79:08:3d:2b:80:0b:7b:48:9a:83:36:9e:b7:53:
         df:de:57:05:6a:aa:93:16:bb:e0:e9:c6:a8:1f:e7:f5:a5:52:
         af:4a:56:fc:4a:5a:73:e6:08:cb:97:02:1b:c1:cb:d2:c1:16:
         f0:25:23:b5:00:f6:c1:7a:46:f4:39:51:85:39:e4:62:4d:c5:
         1b:49:1c:90:5e:c2:d9:a4:27:c4:0b:69:e7:2e:15:9c:9d:5d:
         c7:a4:16:ee:39:41:3b:9b:b9:73:d9:6d:e5:12:6a:bd:8c:82:
         87:68:e8:05:db:1e:38:2b
-----BEGIN CERTIFICATE-----
MIIG4DCCBMigAwIBAgIIQOIV3oSmZ8UwDQYJKoZIhvcNAQENBQAwgYcxCzAJBgNV
BAYTAkNIMQwwCgYDVQQIEwNadWcxDDAKBgNVBAcTA1p1ZzEYMBYGA1UEChMPUGVy
ZmVjdCBQcml2YWN5MRgwFgYDVQQDEw9QZXJmZWN0IFByaXZhY3kxKDAmBgkqhkiG
9w0BCQEWGWFkbWluQHBlcmZlY3QtcHJpdmFjeS5jb20wHhcNMjMwNjAzMDAwMDAw
WhcNMjUwMTI4MDAwMDAwWjCBjDELMAkGA1UEBhMCQ0gxDDAKBgNVBAgTA1p1ZzEY
MBYGA1UEChMPUGVyZmVjdCBQcml2YWN5MSswKQYDVQQDFCJDbGllbnRfbmV3eW9y
ay5wZXJmZWN0LXByaXZhY3kuY29tMSgwJgYJKoZIhvcNAQkBFhlhZG1pbkBwZXJm
ZWN0LXByaXZhY3kuY29tMIICIjANBgkqhkiG9w0BAQEFAAOCAg8AMIICCgKCAgEA
ndwmVDLTYMYADSUToGHtWeBNwkTXWbODH7DI8B6xi31beBx5cV4vcaW7OCwBkdQu
R/GIKh1zDsMIetXkygvcO3LMt8dSr1xMyVFjCqz3gjr2mUv3PbEu/yBGGh3EB2ED
HxjJB76LVmCkDfcmrcGA68OVn/QIk9J8B6QwjESLGLlv7SDXC3gbp13RNPZI3/rt
h8hdmNAJFUL2KAnzbfGs/LCvsmZxffTpTte4Ro4s+PhKj0ivboPGJzlyKWhM+Dar
2xhsy8ZbD6r3znBkgMhk4XiE92bfWm/P5/gxrHkk9r2/4w+vkqZX+fkVlUtM4j6g
kpTAfDS7IuqMCy1ZUOO3uKeCC3FbJgRiPPmhwlQil8eOH/S0NIuXG42nRMiStQL0
LYabdXxj8En2ZwfSrYVCUMSqeod8ZYMc9qPZ1f0EdhTCp0Kq1hpznZ9uvSFSJ8m2
jKId7RPiXHYPuYQtVJTSnsrI1tgTimH0IQR3iMDdKaMnpRNFFbkqvx54P1/BHlDL
KH5sJjJ5/DEp2me15+tKNk0MZ8h/6A8uzx6OQ+JT3PGIUPAKn80Je4ZedmTBs9dc
z1YowA6xdJE2nGC45TdtN/SqZfIPVITGNuWl7SsevknZV8YzalLH0Ilx2Pt58jCO
NGOCVYwtKf2iAAUsU6lDvin8GEJNFBJYcU0ToRWPmjcCAwEAAaOCAUcwggFDMAkG
A1UdEwQCMAAwIwYJYIZIAYb4QgENBBYWFFZQTiBVc2VyIENlcnRpZmljYXRlMBEG
CWCGSAGG+EIBAQQEAwIHgDALBgNVHQ8EBAMCB4AwEwYDVR0lBAwwCgYIKwYBBQUH
AwIwHQYDVR0OBBYEFMZkVPfKDDWKXsVcB0hl3han13wNMIG8BgNVHSMEgbQwgbGA
FIZPuG0YKhs8jyc0KfCBn7puYQ7hoYGNpIGKMIGHMQswCQYDVQQGEwJDSDEMMAoG
A1UECBMDWnVnMQwwCgYDVQQHEwNadWcxGDAWBgNVBAoTD1BlcmZlY3QgUHJpdmFj
eTEYMBYGA1UEAxMPUGVyZmVjdCBQcml2YWN5MSgwJgYJKoZIhvcNAQkBFhlhZG1p
bkBwZXJmZWN0LXByaXZhY3kuY29tggkA+hG1xKppr2kwDQYJKoZIhvcNAQENBQAD
ggIBAC6Zu75kzdAUFaIAFoDfdpe4fN9Q1y6fhw4932Pj0BOrmxn6Q58q/RlfilaN
0pN4Oad/HF33ZRqOgrrd7T3QyMHIdNRnIkHqYoB/ZU/8lLVu8MTjKJseuTpeclWp
wRZXxc5wTzKE4+auJbOYioYAK/uBAmZQTjD4NKdbbBJTBC930bPBW6Z9BpVBurMw
2k7EjcOaaN198UFs+9mXwo+fFc4g8DIol+qIkbiRC7Lt6fQjtjUC6GniEYSX40RF
20S+x962BzaVWoCeW2yuGwbgkwUOFgdyH2FcdhkRrpnwajIS3Oo0LIHCbOfHBgff
/PDXnDhPnf++luS79NaQjmuaXr8S4/nOM8NfPVb5kBjtGZQ+Z6fLaif1jPOWYTLY
j61LOMbI+BqaWG6S/tlbUfa8aJgua8TIB+SqS/4zhKO6pu7yCT3Frr3WfQLcch4F
QfveAcswEWwzWRo/poBKkU9KOUvyMaoubJdBh8EpaxlDS5RnAiWWHd/ooXd7+zmk
6qMblFgTQHMhsmXIo49WFEN16NB5CD0rgAt7SJqDNp63U9/eVwVqqpMWu+Dpxqgf
5/WlUq9KVvxKWnPmCMuXAhvBy9LBFvAlI7UA9sF6RvQ5UYU55GJNxRtJHJBewtmk
J8QLaecuFZydXcekFu45QTubuXPZbeUSar2Mgodo6AXbHjgr
-----END CERTIFICATE-----
