Certificate:
    Data:
        Version: 3 (0x2)
        Serial Number:
            83:7a:00:87:dc:44:5c:7d
    Signature Algorithm: sha512WithRSAEncryption
        Issuer: C=CH, ST=Zug, L=Zug, O=Perfect Privacy, CN=Perfect Privacy/emailAddress=admin@perfect-privacy.com
        Validity
            Not Before: Jul 24 00:00:00 2023 GMT
            Not After : Mar 20 00:00:00 2025 GMT
        Subject: C=CH, ST=Zug, O=Perfect Privacy, CN=Client_nuremberg.perfect-privacy.com/emailAddress=admin@perfect-privacy.com
        Subject Public Key Info:
            Public Key Algorithm: rsaEncryption
                Public-Key: (4096 bit)
                Modulus:
                    00:fa:fb:ef:88:6d:ea:9b:a9:99:56:a8:e9:c6:90:
                    2b:03:b8:8e:98:22:3b:f8:9d:15:92:d5:28:6b:7b:
                    fe:1e:4d:5e:98:b3:2b:43:71:8a:0d:d4:8b:8f:13:
                    51:a6:3e:42:f4:e1:47:d7:6c:4e:f3:c6:fa:fd:ea:
                    6a:be:56:09:b1:76:e7:ad:a1:d9:24:9a:c0:92:77:
                    1b:ee:32:d3:ac:01:ef:c5:31:d0:c5:3c:e6:c8:42:
                    32:d8:ba:24:a6:54:fc:54:d4:20:80:cc:70:29:34:
                    be:a2:67:92:b5:78:45:c2:5a:0c:62:44:fe:69:ca:
                    c7:ed:9e:00:e6:2c:db:0a:f3:3a:54:07:90:3f:39:
                    c7:2e:7f:7b:41:b6:f3:a8:30:b9:54:97:68:b6:91:
                    bc:bf:23:91:89:bc:f3:6a:ab:0c:da:ff:9b:51:20:
                    32:a9:b1:60:fb:4b:7f:46:34:11:01:9d:91:4e:42:
                    00:56:44:22:2b:60:55:43:1f:32:81:5e:ff:df:d1:
                    82:16:d6:4f:26:a7:1a:78:57:d1:3c:2a:97:3b:8f:
                    c7:84:00:dc:91:47:0e:07:16:d6:65:e3:ea:ea:12:
                    76:df:07:c1:c7:c9:77:d6:15:41:ce:14:75:8a:90:
                    89:3d:5c:f8:4e:a3:45:e4:be:d1:e9:6b:64:5e:0d:
                    46:2a:bc:5e:40:8a:03:47:8b:79:5d:4a:1c:65:46:
                    06:92:7a:0d:6b:6d:df:19:43:70:5f:8b:6b:98:60:
                    ad:84:75:4e:26:8d:4b:58:9f:79:71:e7:7d:1d:84:
                    43:a7:d8:0d:04:bc:20:7e:d1:87:f4:20:d7:55:59:
                    e2:49:4f:f4:39:c7:b0:c0:7d:c8:0e:92:fc:5d:bc:
                    e1:94:8b:e4:14:1e:60:e6:dc:12:4e:03:5f:6a:5a:
                    aa:58:e1:1d:c7:33:5b:47:d5:bd:7e:19:12:5c:02:
                    ca:7f:2d:aa:7f:a4:e1:2e:24:af:8a:5d:b1:9c:8c:
                    f9:45:4a:84:1c:bf:33:36:eb:d4:45:14:07:d1:91:
                    75:23:9c:2a:45:f2:b7:ee:5d:49:5f:cd:6a:e4:fe:
                    ed:d8:3e:19:85:1c:08:32:c2:34:26:5d:21:a1:0a:
                    7c:f3:7e:6c:70:4e:45:b8:b7:8b:1c:9f:e0:f6:f6:
                    71:ff:60:8e:5a:32:53:df:c5:1e:12:bd:f6:af:51:
                    5e:f3:0c:06:e5:1c:21:6f:77:85:0a:d1:51:de:05:
                    74:ff:8a:13:8d:ca:12:82:53:21:4c:a3:31:c3:74:
                    86:5a:84:dd:73:3a:cc:cc:08:18:14:82:01:4d:2c:
                    c6:03:8e:56:a3:22:7c:93:c9:6c:23:69:77:2a:66:
                    84:09:e7
                Exponent: 65537 (0x10001)
        X509v3 extensions:
            X509v3 Basic Constraints: 
                CA:FALSE
            Netscape Comment: 
                VPN User Certificate
            Netscape Cert Type: 
                SSL Client
            X509v3 Key Usage: 
                Digital Signature
            X509v3 Extended Key Usage: 
                TLS Web Client Authentication
            X509v3 Subject Key Identifier: 
                41:30:AB:8B:E8:DB:47:A9:AD:49:D2:F5:89:63:0A:3C:02:5B:03:4B
            X509v3 Authority Key Identifier: 
                keyid:86:4F:B8:6D:18:2A:1B:3C:8F:27:34:29:F0:81:9F:BA:6E:61:0E:E1
                DirName:/C=CH/ST=Zug/L=Zug/O=Perfect Privacy/CN=Perfect Privacy/emailAddress=admin@perfect-privacy.com
                serial:FA:11:B5:C4:AA:69:AF:69

    Signature Algorithm: sha512WithRSAEncryption
         40:e8:a0:91:2c:47:69:11:7e:c8:a3:0a:0c:16:bc:1d:c5:ba:
         de:44:8c:f5:56:f0:38:74:b8:8e:69:3b:8c:67:2e:b0:01:b9:
         c6:a3:e4:15:e2:b9:fb:5a:a0:70:4a:05:60:9c:f0:63:f6:96:
         21:c5:09:82:dc:6b:c4:ec:57:b0:58:bf:61:99:0a:c9:0d:c6:
         01:bd:27:dd:4e:a5:6c:37:35:64:bf:d5:16:f8:1d:7f:19:9a:
         29:1b:aa:3e:76:d2:73:92:62:98:30:a4:48:02:64:ea:01:e0:
         d5:f7:33:18:3b:12:9e:68:b8:34:bc:f6:fa:e1:d8:fc:10:59:
         d6:97:5b:91:b6:0a:a8:14:b2:5f:72:ea:5e:0f:5c:8f:fb:15:
         b8:d9:8e:17:13:e7:a0:8a:aa:f6:ee:cc:5d:57:64:bd:b4:8a:
         3e:07:95:22:2c:e5:30:69:ea:d7:34:cc:cc:d1:3f:e7:2a:a4:
         b7:5c:4e:f7:03:23:60:00:ea:ec:9a:02:eb:44:a6:9d:65:bf:
         4d:65:55:f6:9c:bb:9c:ec:86:97:d8:3b:e7:81:12:8c:49:7e:
         5f:64:cd:04:f5:93:b4:79:aa:60:7e:90:71:40:95:9c:8e:c8:
         f2:ff:7f:4f:2e:62:7d:e9:60:54:19:46:85:98:21:6d:9f:e3:
         4a:87:30:ae:71:2c:07:7b:a9:1b:07:1e:c1:05:ed:b5:82:65:
         ea:a3:bf:da:2b:0e:f9:d5:cf:ce:5a:96:54:d6:2a:b0:a8:bf:
         6c:e9:ad:60:76:73:ab:cb:37:e5:d3:05:84:47:48:b8:ee:68:
         84:82:7b:46:cc:c6:b6:55:8c:4d:be:f0:c2:6a:a0:ae:9b:f2:
         56:ef:db:81:4e:c6:ac:f1:91:1b:1c:b7:98:6d:5a:d8:6b:1f:
         82:e5:3a:5c:81:9b:6a:fc:89:7e:e9:4f:c8:85:43:78:dc:46:
         73:12:a1:51:4b:96:bd:61:5d:84:fa:98:02:84:16:9e:a8:3c:
         17:1e:db:38:38:24:4c:5c:34:4a:b7:2c:53:f5:1b:8a:ff:fc:
         f2:ee:f2:9e:54:8b:13:00:94:f8:c7:d2:fc:70:e3:84:66:96:
         e5:8c:d2:29:8b:7a:dd:47:3b:92:97:b2:ed:ce:90:21:7a:f8:
         6a:51:f7:25:23:df:4e:fc:61:98:72:e8:26:23:35:0f:05:eb:
         a2:2c:da:2e:e5:f3:a3:b0:bf:79:a4:21:a8:95:f2:fc:5b:f6:
         e1:6e:e2:23:2a:5d:f0:89:42:01:ca:eb:66:96:8b:87:87:d9:
         a7:c1:26:35:52:63:fa:d5:b7:72:60:a3:4d:98:39:d4:52:ee:
         23:cc:1b:3b:15:49:97:5d
-----BEGIN CERTIFICATE-----
MIIG4zCCBMugAwIBAgIJAIN6AIfcRFx9MA0GCSqGSIb3DQEBDQUAMIGHMQswCQYD
VQQGEwJDSDEMMAoGA1UECBMDWnVnMQwwCgYDVQQHEwNadWcxGDAWBgNVBAoTD1Bl
cmZlY3QgUHJpdmFjeTEYMBYGA1UEAxMPUGVyZmVjdCBQcml2YWN5MSgwJgYJKoZI
hvcNAQkBFhlhZG1pbkBwZXJmZWN0LXByaXZhY3kuY29tMB4XDTIzMDcyNDAwMDAw
MFoXDTI1MDMyMDAwMDAwMFowgY4xCzAJBgNVBAYTAkNIMQwwCgYDVQQIEwNadWcx
GDAWBgNVBAoTD1BlcmZlY3QgUHJpdmFjeTEtMCsGA1UEAxQkQ2xpZW50X251cmVt
YmVyZy5wZXJmZWN0LXByaXZhY3kuY29tMSgwJgYJKoZIhvcNAQkBFhlhZG1pbkBw
ZXJmZWN0LXByaXZhY3kuY29tMIICIjANBgkqhkiG9w0BAQEFAAOCAg8AMIICCgKC
AgEA+vvviG3qm6mZVqjpxpArA7iOmCI7+J0VktUoa3v+Hk1emLMrQ3GKDdSLjxNR
pj5C9OFH12xO88b6/epqvlYJsXbnraHZJJrAkncb7jLTrAHvxTHQxTzmyEIy2Lok
plT8VNQggMxwKTS+omeStXhFwloMYkT+acrH7Z4A5izbCvM6VAeQPznHLn97Qbbz
qDC5VJdotpG8vyORibzzaqsM2v+bUSAyqbFg+0t/RjQRAZ2RTkIAVkQiK2BVQx8y
gV7/39GCFtZPJqcaeFfRPCqXO4/HhADckUcOBxbWZePq6hJ23wfBx8l31hVBzhR1
ipCJPVz4TqNF5L7R6WtkXg1GKrxeQIoDR4t5XUocZUYGknoNa23fGUNwX4trmGCt
hHVOJo1LWJ95ced9HYRDp9gNBLwgftGH9CDXVVniSU/0OcewwH3IDpL8XbzhlIvk
FB5g5twSTgNfalqqWOEdxzNbR9W9fhkSXALKfy2qf6ThLiSvil2xnIz5RUqEHL8z
NuvURRQH0ZF1I5wqRfK37l1JX81q5P7t2D4ZhRwIMsI0Jl0hoQp8835scE5FuLeL
HJ/g9vZx/2COWjJT38UeEr32r1Fe8wwG5Rwhb3eFCtFR3gV0/4oTjcoSglMhTKMx
w3SGWoTdczrMzAgYFIIBTSzGA45WoyJ8k8lsI2l3KmaECecCAwEAAaOCAUcwggFD
MAkGA1UdEwQCMAAwIwYJYIZIAYb4QgENBBYWFFZQTiBVc2VyIENlcnRpZmljYXRl
MBEGCWCGSAGG+EIBAQQEAwIHgDALBgNVHQ8EBAMCB4AwEwYDVR0lBAwwCgYIKwYB
BQUHAwIwHQYDVR0OBBYEFEEwq4vo20eprUnS9YljCjwCWwNLMIG8BgNVHSMEgbQw
gbGAFIZPuG0YKhs8jyc0KfCBn7puYQ7hoYGNpIGKMIGHMQswCQYDVQQGEwJDSDEM
MAoGA1UECBMDWnVnMQwwCgYDVQQHEwNadWcxGDAWBgNVBAoTD1BlcmZlY3QgUHJp
dmFjeTEYMBYGA1UEAxMPUGVyZmVjdCBQcml2YWN5MSgwJgYJKoZIhvcNAQkBFhlh
ZG1pbkBwZXJmZWN0LXByaXZhY3kuY29tggkA+hG1xKppr2kwDQYJKoZIhvcNAQEN
BQADggIBAEDooJEsR2kRfsijCgwWvB3Fut5EjPVW8Dh0uI5pO4xnLrABucaj5BXi
uftaoHBKBWCc8GP2liHFCYLca8TsV7BYv2GZCskNxgG9J91OpWw3NWS/1Rb4HX8Z
mikbqj520nOSYpgwpEgCZOoB4NX3Mxg7Ep5ouDS89vrh2PwQWdaXW5G2CqgUsl9y
6l4PXI/7FbjZjhcT56CKqvbuzF1XZL20ij4HlSIs5TBp6tc0zMzRP+cqpLdcTvcD
I2AA6uyaAutEpp1lv01lVfacu5zshpfYO+eBEoxJfl9kzQT1k7R5qmB+kHFAlZyO
yPL/f08uYn3pYFQZRoWYIW2f40qHMK5xLAd7qRsHHsEF7bWCZeqjv9orDvnVz85a
llTWKrCov2zprWB2c6vLN+XTBYRHSLjuaISCe0bMxrZVjE2+8MJqoK6b8lbv24FO
xqzxkRsct5htWthrH4LlOlyBm2r8iX7pT8iFQ3jcRnMSoVFLlr1hXYT6mAKEFp6o
PBce2zg4JExcNEq3LFP1G4r//PLu8p5UixMAlPjH0vxw44RmluWM0imLet1HO5KX
su3OkCF6+GpR9yUj3078YZhy6CYjNQ8F66Is2i7l86Owv3mkIaiV8vxb9uFu4iMq
XfCJQgHK62aWi4eH2afBJjVSY/rVt3Jgo02YOdRS7iPMGzsVSZdd
-----END CERTIFICATE-----
