Certificate:
    Data:
        Version: 3 (0x2)
        Serial Number:
            b6:73:a5:b9:67:cf:a4:98
    Signature Algorithm: sha512WithRSAEncryption
        Issuer: C=CH, ST=Zug, L=Zug, O=Perfect Privacy, CN=Perfect Privacy/emailAddress=admin@perfect-privacy.com
        Validity
            Not Before: Jun  6 00:00:00 2024 GMT
            Not After : Feb  1 00:00:00 2026 GMT
        Subject: C=CH, ST=Zug, O=Perfect Privacy, CN=Client_nuremberg.perfect-privacy.com/emailAddress=admin@perfect-privacy.com
        Subject Public Key Info:
            Public Key Algorithm: rsaEncryption
                Public-Key: (4096 bit)
                Modulus:
                    00:fd:32:46:da:92:d6:f3:d4:bb:14:0b:3b:c3:cd:
                    46:39:01:ed:fb:0d:19:c2:09:18:7c:f0:59:7b:48:
                    b2:b1:54:b7:4f:13:40:3e:e2:9c:ed:50:1b:2a:ec:
                    27:eb:9c:bc:53:9b:55:04:4a:14:cc:27:4a:63:b6:
                    2e:6b:1f:fe:30:cd:6b:86:fa:3e:78:22:79:6d:9c:
                    47:96:52:f8:d9:71:1c:64:ac:bb:af:38:f7:12:74:
                    d2:06:4e:f8:0e:95:eb:f0:34:ea:2f:9a:05:c0:90:
                    c4:15:81:16:65:af:4b:71:19:9d:08:e3:8f:0b:47:
                    b9:5a:94:bf:28:de:50:b7:01:2b:96:93:c5:5c:1f:
                    29:f0:8e:19:8d:38:83:07:38:86:36:32:89:68:42:
                    32:d0:07:df:95:f7:c6:2d:8f:8f:a1:1b:12:c9:52:
                    a6:a8:05:8c:b3:0a:7e:2b:1a:38:6a:fa:f1:16:41:
                    4e:dc:8a:49:34:18:1a:6f:e8:01:cc:92:a4:9d:cd:
                    a4:88:c5:8b:97:06:e0:6e:b9:63:b1:05:3e:9b:7b:
                    17:92:91:0e:03:82:74:81:83:cb:06:cb:83:dd:a8:
                    4e:e9:d9:ee:34:af:43:49:37:1f:64:d4:cf:cb:db:
                    23:6d:5e:30:c3:13:32:ce:fc:0d:db:e6:2d:e1:0c:
                    1e:16:78:d1:20:c8:c0:e9:ab:bc:21:a8:50:37:db:
                    5e:10:fa:6d:85:19:a3:cb:0c:2e:29:27:d8:d8:8a:
                    3e:8e:77:65:51:13:d1:d5:99:33:8c:a5:e6:27:2a:
                    d8:c6:6d:b4:ee:46:90:ef:1d:96:a3:d2:7c:f9:9e:
                    cb:dc:26:e5:e8:a7:ac:ad:1a:a5:7a:62:a8:09:66:
                    27:d5:76:33:93:a6:44:17:38:aa:b0:fb:7f:a6:21:
                    b1:15:f4:1d:35:d4:a3:78:56:c3:6a:2b:8b:27:9d:
                    97:02:93:20:78:01:0b:a6:d1:74:d7:14:eb:bf:54:
                    f0:f9:cb:b4:62:12:d3:f6:3b:d3:34:c4:ff:42:48:
                    62:ba:70:44:7a:4b:0b:11:01:bc:74:92:77:b9:1a:
                    14:5e:e7:08:4d:e4:64:a9:06:43:06:0f:11:cc:85:
                    52:32:cc:b7:43:c9:4b:02:b2:f5:3a:96:1e:b8:28:
                    d1:0c:30:b3:f5:63:b4:de:b0:14:00:6d:23:71:41:
                    43:20:13:83:16:e3:91:1c:b3:ae:8f:23:66:66:36:
                    a0:4c:5e:7b:5e:06:08:8b:d8:7a:66:a7:59:38:35:
                    9a:12:2e:f0:5d:ea:d6:08:ea:86:f9:41:da:03:ec:
                    60:f0:04:8f:21:2e:1a:da:d7:13:c8:71:89:3a:16:
                    40:5c:dd
                Exponent: 65537 (0x10001)
        X509v3 extensions:
            X509v3 Basic Constraints: 
                CA:FALSE
            Netscape Comment: 
                VPN User Certificate
            Netscape Cert Type: 
                SSL Client
            X509v3 Key Usage: 
                Digital Signature
            X509v3 Extended Key Usage: 
                TLS Web Client Authentication
            X509v3 Subject Key Identifier: 
                3B:18:32:C7:E4:D4:A3:B8:CD:1F:64:D3:8D:98:40:DD:AD:BE:B0:B8
            X509v3 Authority Key Identifier: 
                keyid:86:4F:B8:6D:18:2A:1B:3C:8F:27:34:29:F0:81:9F:BA:6E:61:0E:E1
                DirName:/C=CH/ST=Zug/L=Zug/O=Perfect Privacy/CN=Perfect Privacy/emailAddress=admin@perfect-privacy.com
                serial:FA:11:B5:C4:AA:69:AF:69

    Signature Algorithm: sha512WithRSAEncryption
         5e:89:c6:93:6f:22:d8:ee:20:e9:bb:7f:c1:3a:f4:10:bc:a6:
         e0:d7:b4:17:a0:f1:06:96:bc:0e:82:5e:ad:66:80:b7:7f:f7:
         87:9a:7a:3f:10:bb:6c:0a:43:59:8f:37:e6:e2:be:ab:8d:e8:
         19:6a:b7:46:09:0a:7e:18:1f:06:74:33:e0:ed:78:32:d0:61:
         84:7e:c8:fb:31:13:4c:d1:ae:3e:b6:da:da:4d:27:36:d0:c6:
         3f:1e:4c:65:03:50:e6:71:01:92:24:61:dd:34:1b:2c:e8:87:
         5d:e9:0e:0a:49:c7:bc:dd:39:1d:64:49:93:dc:7b:19:2e:07:
         e1:ba:6c:3b:bb:6e:3e:01:0c:20:84:68:29:0f:c0:d9:21:cf:
         e2:3f:62:fb:8d:60:3c:ab:df:e8:a8:75:b4:bd:2a:34:77:0f:
         30:df:3e:ff:a1:f0:67:e3:9e:30:fc:d1:b5:98:0b:48:8e:87:
         15:f0:a7:06:80:71:68:ec:41:65:80:b7:3c:10:55:25:57:58:
         e4:dd:ce:62:f5:7c:83:a2:36:d8:a5:d9:ea:8c:d3:e4:0b:91:
         b1:8c:a4:89:b6:09:6b:5a:6c:37:d6:fa:66:4c:40:24:4b:b0:
         a3:bd:c3:37:22:b9:ac:a2:fc:0c:8d:de:ec:f7:cb:74:78:ee:
         c6:29:8d:93:c2:10:76:d5:6c:da:64:c4:68:87:0f:a5:1e:67:
         ae:39:16:5b:52:e7:2e:4c:82:48:89:c9:31:a3:41:e4:a7:75:
         d0:29:6c:fd:8e:d7:a9:36:1b:30:4b:a7:9f:f8:4d:89:db:67:
         53:29:32:64:71:b6:8d:60:af:92:87:a4:23:fb:54:28:3c:88:
         db:52:e1:3f:7d:82:81:8c:1e:19:49:de:11:da:bd:93:62:7c:
         37:ee:8c:ab:51:98:08:33:29:f7:20:59:70:47:d4:fc:40:aa:
         56:96:3c:c2:1b:bd:e5:41:f2:2b:9b:66:61:39:db:fd:6d:d8:
         6d:29:ad:fc:3a:d3:96:88:ef:bb:fa:0f:33:d5:4d:33:d4:63:
         aa:95:89:77:8b:bc:4e:92:38:14:12:38:46:72:24:36:e1:39:
         e0:b2:9b:f1:c2:63:83:5f:ff:05:38:6c:ca:b2:dc:75:ec:24:
         14:a0:62:7e:22:3d:01:cd:5d:bd:15:3b:af:d5:8e:54:ef:d5:
         e0:18:63:c3:46:84:1c:55:1b:19:34:e1:83:84:78:2d:a7:17:
         bd:95:c5:95:e7:7f:8c:c2:76:7f:80:5f:41:db:4a:89:2c:a8:
         21:a1:51:ab:e5:99:d2:07:16:1e:f8:f0:d8:66:09:01:5b:16:
         20:f5:ef:de:3d:52:1f:7c
-----BEGIN CERTIFICATE-----
MIIG4zCCBMugAwIBAgIJALZzpblnz6SYMA0GCSqGSIb3DQEBDQUAMIGHMQswCQYD
VQQGEwJDSDEMMAoGA1UECBMDWnVnMQwwCgYDVQQHEwNadWcxGDAWBgNVBAoTD1Bl
cmZlY3QgUHJpdmFjeTEYMBYGA1UEAxMPUGVyZmVjdCBQcml2YWN5MSgwJgYJKoZI
hvcNAQkBFhlhZG1pbkBwZXJmZWN0LXByaXZhY3kuY29tMB4XDTI0MDYwNjAwMDAw
MFoXDTI2MDIwMTAwMDAwMFowgY4xCzAJBgNVBAYTAkNIMQwwCgYDVQQIEwNadWcx
GDAWBgNVBAoTD1BlcmZlY3QgUHJpdmFjeTEtMCsGA1UEAxQkQ2xpZW50X251cmVt
YmVyZy5wZXJmZWN0LXByaXZhY3kuY29tMSgwJgYJKoZIhvcNAQkBFhlhZG1pbkBw
ZXJmZWN0LXByaXZhY3kuY29tMIICIjANBgkqhkiG9w0BAQEFAAOCAg8AMIICCgKC
AgEA/TJG2pLW89S7FAs7w81GOQHt+w0ZwgkYfPBZe0iysVS3TxNAPuKc7VAbKuwn
65y8U5tVBEoUzCdKY7Yuax/+MM1rhvo+eCJ5bZxHllL42XEcZKy7rzj3EnTSBk74
DpXr8DTqL5oFwJDEFYEWZa9LcRmdCOOPC0e5WpS/KN5QtwErlpPFXB8p8I4ZjTiD
BziGNjKJaEIy0AfflffGLY+PoRsSyVKmqAWMswp+Kxo4avrxFkFO3IpJNBgab+gB
zJKknc2kiMWLlwbgbrljsQU+m3sXkpEOA4J0gYPLBsuD3ahO6dnuNK9DSTcfZNTP
y9sjbV4wwxMyzvwN2+Yt4QweFnjRIMjA6au8IahQN9teEPpthRmjywwuKSfY2Io+
jndlURPR1ZkzjKXmJyrYxm207kaQ7x2Wo9J8+Z7L3Cbl6KesrRqlemKoCWYn1XYz
k6ZEFziqsPt/piGxFfQdNdSjeFbDaiuLJ52XApMgeAELptF01xTrv1Tw+cu0YhLT
9jvTNMT/QkhiunBEeksLEQG8dJJ3uRoUXucITeRkqQZDBg8RzIVSMsy3Q8lLArL1
OpYeuCjRDDCz9WO03rAUAG0jcUFDIBODFuORHLOujyNmZjagTF57XgYIi9h6ZqdZ
ODWaEi7wXerWCOqG+UHaA+xg8ASPIS4a2tcTyHGJOhZAXN0CAwEAAaOCAUcwggFD
MAkGA1UdEwQCMAAwIwYJYIZIAYb4QgENBBYWFFZQTiBVc2VyIENlcnRpZmljYXRl
MBEGCWCGSAGG+EIBAQQEAwIHgDALBgNVHQ8EBAMCB4AwEwYDVR0lBAwwCgYIKwYB
BQUHAwIwHQYDVR0OBBYEFDsYMsfk1KO4zR9k042YQN2tvrC4MIG8BgNVHSMEgbQw
gbGAFIZPuG0YKhs8jyc0KfCBn7puYQ7hoYGNpIGKMIGHMQswCQYDVQQGEwJDSDEM
MAoGA1UECBMDWnVnMQwwCgYDVQQHEwNadWcxGDAWBgNVBAoTD1BlcmZlY3QgUHJp
dmFjeTEYMBYGA1UEAxMPUGVyZmVjdCBQcml2YWN5MSgwJgYJKoZIhvcNAQkBFhlh
ZG1pbkBwZXJmZWN0LXByaXZhY3kuY29tggkA+hG1xKppr2kwDQYJKoZIhvcNAQEN
BQADggIBAF6JxpNvItjuIOm7f8E69BC8puDXtBeg8QaWvA6CXq1mgLd/94eaej8Q
u2wKQ1mPN+bivquN6Blqt0YJCn4YHwZ0M+DteDLQYYR+yPsxE0zRrj622tpNJzbQ
xj8eTGUDUOZxAZIkYd00Gyzoh13pDgpJx7zdOR1kSZPcexkuB+G6bDu7bj4BDCCE
aCkPwNkhz+I/YvuNYDyr3+iodbS9KjR3DzDfPv+h8GfjnjD80bWYC0iOhxXwpwaA
cWjsQWWAtzwQVSVXWOTdzmL1fIOiNtil2eqM0+QLkbGMpIm2CWtabDfW+mZMQCRL
sKO9wzciuayi/AyN3uz3y3R47sYpjZPCEHbVbNpkxGiHD6UeZ645FltS5y5MgkiJ
yTGjQeSnddApbP2O16k2GzBLp5/4TYnbZ1MpMmRxto1gr5KHpCP7VCg8iNtS4T99
goGMHhlJ3hHavZNifDfujKtRmAgzKfcgWXBH1PxAqlaWPMIbveVB8iubZmE52/1t
2G0prfw605aI77v6DzPVTTPUY6qViXeLvE6SOBQSOEZyJDbhOeCym/HCY4Nf/wU4
bMqy3HXsJBSgYn4iPQHNXb0VO6/VjlTv1eAYY8NGhBxVGxk04YOEeC2nF72VxZXn
f4zCdn+AX0HbSoksqCGhUavlmdIHFh748NhmCQFbFiD17949Uh98
-----END CERTIFICATE-----
