Certificate:
    Data:
        Version: 3 (0x2)
        Serial Number: 3755013687904132804 (0x341c7d0de2415ec4)
    Signature Algorithm: sha512WithRSAEncryption
        Issuer: C=CH, ST=Zug, L=Zug, O=Perfect Privacy, CN=Perfect Privacy/emailAddress=admin@perfect-privacy.com
        Validity
            Not Before: Feb  3 00:00:00 2023 GMT
            Not After : Sep 30 00:00:00 2024 GMT
        Subject: C=CH, ST=Zug, O=Perfect Privacy, CN=Client_nuremberg.perfect-privacy.com/emailAddress=admin@perfect-privacy.com
        Subject Public Key Info:
            Public Key Algorithm: rsaEncryption
                Public-Key: (4096 bit)
                Modulus:
                    00:e0:fe:a3:4f:e6:a0:84:c2:41:89:a7:b9:07:da:
                    60:32:8b:f4:d4:23:c7:6e:99:e7:48:82:1f:14:d7:
                    09:bb:d2:f5:62:f7:fc:48:e4:cc:02:f1:79:22:58:
                    e7:63:4d:a7:54:58:ee:e8:50:17:fd:9b:d2:5c:54:
                    c6:46:0c:b4:b8:a2:45:bc:dd:05:23:f9:f0:f7:6e:
                    0f:d9:b2:4c:12:c3:2f:b8:38:fd:30:76:e9:fc:8c:
                    17:45:19:31:01:be:bc:2a:9e:fa:34:ae:c9:d5:5e:
                    4f:8a:fc:33:aa:86:0e:b7:5e:58:ab:27:ef:76:df:
                    44:85:33:d0:55:87:4b:6a:4e:cb:d0:ea:fe:14:79:
                    e4:a9:00:a5:83:a2:a7:9f:ea:54:0d:ce:1a:e2:0b:
                    b3:93:4a:65:24:d7:c9:e9:53:39:8e:85:8f:41:ab:
                    72:ff:2f:d1:b4:12:84:2b:8a:27:5b:b6:cd:a6:9c:
                    97:a7:f0:3e:68:75:72:43:a9:e9:a8:83:26:ff:6f:
                    a8:ec:b8:3e:2b:da:a5:13:24:08:dd:70:14:dc:03:
                    24:d2:7e:25:df:73:a3:0b:51:70:20:05:47:0c:f0:
                    32:5e:09:a3:dd:4d:c6:04:8e:ac:30:46:27:fc:17:
                    bd:71:6f:c9:5b:76:a6:99:b5:ca:3c:75:39:0c:d0:
                    a2:2a:05:94:f7:ca:b6:d7:2a:41:af:bb:d6:2f:c0:
                    77:3c:9c:fc:a6:f7:31:37:78:31:30:42:99:70:48:
                    f7:c8:50:4e:2c:e7:83:54:99:1c:82:3d:09:3f:a5:
                    e5:70:0a:f1:85:cb:02:49:75:f5:a2:53:ab:05:52:
                    69:8e:e9:e9:46:50:9e:c1:fe:4d:6c:22:c8:db:99:
                    94:e1:2c:62:c2:f1:48:dd:02:df:04:1a:43:29:be:
                    c2:d8:f3:ed:00:5e:bd:fd:50:04:22:f3:5c:7f:b5:
                    8b:ba:94:9b:8f:3f:32:60:0f:6f:49:4b:4f:60:30:
                    47:05:b1:21:fa:b5:94:59:8f:63:a3:c2:f6:50:31:
                    27:4d:e1:d6:fd:67:13:53:25:24:e8:4d:f0:d9:a9:
                    eb:14:19:d1:9c:4f:c9:fc:ee:03:9a:aa:0a:b4:7e:
                    02:d7:9f:20:d2:fa:0f:8a:ea:b9:5d:4d:64:ce:3a:
                    9b:92:78:b8:93:3d:e0:de:e1:b4:ce:ef:44:35:2d:
                    67:4b:77:c9:c0:cd:fd:74:02:5a:37:76:1a:73:54:
                    53:bb:53:80:2a:a5:83:27:14:bd:85:40:54:99:d7:
                    7d:c9:91:d8:0b:1e:e8:0d:a0:e5:5f:a4:1a:fe:96:
                    36:1c:97:f7:c9:6d:d0:0e:57:6e:7d:af:60:8c:d8:
                    da:2f:45
                Exponent: 65537 (0x10001)
        X509v3 extensions:
            X509v3 Basic Constraints: 
                CA:FALSE
            Netscape Comment: 
                VPN User Certificate
            Netscape Cert Type: 
                SSL Client
            X509v3 Key Usage: 
                Digital Signature
            X509v3 Extended Key Usage: 
                TLS Web Client Authentication
            X509v3 Subject Key Identifier: 
                E8:96:03:98:05:7D:ED:29:42:D0:30:B4:7F:B4:9C:3B:EF:8F:0F:71
            X509v3 Authority Key Identifier: 
                keyid:86:4F:B8:6D:18:2A:1B:3C:8F:27:34:29:F0:81:9F:BA:6E:61:0E:E1
                DirName:/C=CH/ST=Zug/L=Zug/O=Perfect Privacy/CN=Perfect Privacy/emailAddress=admin@perfect-privacy.com
                serial:FA:11:B5:C4:AA:69:AF:69

    Signature Algorithm: sha512WithRSAEncryption
         65:4a:e5:c6:58:11:91:f9:0d:f7:00:38:11:ea:d6:24:7b:a1:
         dd:59:d4:6f:ad:4b:53:25:79:0d:ab:2f:c9:3b:b1:ed:a1:5d:
         e2:66:c6:4d:c2:90:69:ae:c0:ed:e6:86:ca:7e:f9:9d:73:0a:
         ee:5c:53:af:a6:03:96:e2:05:e5:4d:bc:bb:63:bc:bf:0b:19:
         0e:ec:51:10:9b:3d:e8:85:45:a6:df:12:e8:fd:74:c2:c8:7b:
         8e:8b:83:b5:b8:75:0d:85:ea:dc:24:31:f6:0f:a5:bf:e0:48:
         0b:7e:c3:cd:37:b4:89:06:2e:79:8d:cf:6b:8d:bf:2d:ab:6e:
         7f:87:26:22:8d:6d:09:55:8d:33:c2:73:72:54:41:4f:59:ed:
         e0:e0:87:34:de:9f:9b:13:d3:1d:67:45:51:ad:64:f9:70:fa:
         23:a3:da:35:c7:04:2b:0a:27:3a:c2:f1:ff:aa:c2:28:f4:9e:
         b2:17:d3:42:e3:8f:ca:8a:6b:c4:ff:c2:e2:fd:96:0d:e7:68:
         59:30:6c:09:80:11:6c:f4:7b:df:35:35:8d:99:98:4c:24:5c:
         fe:7e:af:70:5d:36:db:a8:a5:1b:03:01:0a:b9:4f:40:4e:82:
         ab:80:0d:83:e7:e0:69:85:cb:6a:92:12:23:dc:c5:14:6d:35:
         1d:59:cd:b8:f0:84:23:77:fc:9a:28:18:04:a4:1a:75:6d:12:
         19:ca:ce:4e:60:ce:db:49:0c:84:a2:f1:78:5c:83:4c:0e:3e:
         e2:4d:73:cd:c4:62:95:e2:ff:42:d8:89:78:2a:af:c7:df:a1:
         b6:55:fe:fc:3d:d1:49:f0:ac:02:7d:0a:43:a2:e8:7c:77:50:
         32:a1:d8:5f:83:25:43:30:1e:3f:30:aa:99:76:92:02:b3:e2:
         98:97:d5:2b:0e:a8:c8:93:e9:48:38:b4:f9:fe:67:ba:c4:ab:
         d6:fb:a3:ca:1d:8c:7c:74:7a:30:6a:79:a7:f7:b7:72:69:fe:
         f9:e9:1f:c9:72:be:20:9e:99:21:28:9c:7f:0a:2d:ed:2d:93:
         cd:30:c1:08:a9:64:b0:77:dc:75:97:8d:ec:ea:7b:a9:ac:dc:
         51:25:b4:e1:f4:09:92:ea:9c:d1:5c:b0:5b:6a:85:44:07:7a:
         9c:79:a6:e5:ab:09:0d:c2:9e:96:7d:90:c6:8c:90:01:95:d1:
         7e:9a:ef:89:75:8a:95:5e:a3:f1:66:4e:22:85:d5:5b:21:87:
         cb:ba:6e:13:8e:05:e9:af:6f:d1:d6:b9:49:37:18:16:07:94:
         f8:f3:73:bc:3f:78:db:23:85:33:0a:d1:e7:ee:41:48:9e:6d:
         41:35:c2:38:fc:d3:cf:97
-----BEGIN CERTIFICATE-----
MIIG4jCCBMqgAwIBAgIINBx9DeJBXsQwDQYJKoZIhvcNAQENBQAwgYcxCzAJBgNV
BAYTAkNIMQwwCgYDVQQIEwNadWcxDDAKBgNVBAcTA1p1ZzEYMBYGA1UEChMPUGVy
ZmVjdCBQcml2YWN5MRgwFgYDVQQDEw9QZXJmZWN0IFByaXZhY3kxKDAmBgkqhkiG
9w0BCQEWGWFkbWluQHBlcmZlY3QtcHJpdmFjeS5jb20wHhcNMjMwMjAzMDAwMDAw
WhcNMjQwOTMwMDAwMDAwWjCBjjELMAkGA1UEBhMCQ0gxDDAKBgNVBAgTA1p1ZzEY
MBYGA1UEChMPUGVyZmVjdCBQcml2YWN5MS0wKwYDVQQDFCRDbGllbnRfbnVyZW1i
ZXJnLnBlcmZlY3QtcHJpdmFjeS5jb20xKDAmBgkqhkiG9w0BCQEWGWFkbWluQHBl
cmZlY3QtcHJpdmFjeS5jb20wggIiMA0GCSqGSIb3DQEBAQUAA4ICDwAwggIKAoIC
AQDg/qNP5qCEwkGJp7kH2mAyi/TUI8dumedIgh8U1wm70vVi9/xI5MwC8XkiWOdj
TadUWO7oUBf9m9JcVMZGDLS4okW83QUj+fD3bg/ZskwSwy+4OP0wdun8jBdFGTEB
vrwqnvo0rsnVXk+K/DOqhg63XlirJ+9230SFM9BVh0tqTsvQ6v4UeeSpAKWDoqef
6lQNzhriC7OTSmUk18npUzmOhY9Bq3L/L9G0EoQriidbts2mnJen8D5odXJDqemo
gyb/b6jsuD4r2qUTJAjdcBTcAyTSfiXfc6MLUXAgBUcM8DJeCaPdTcYEjqwwRif8
F71xb8lbdqaZtco8dTkM0KIqBZT3yrbXKkGvu9YvwHc8nPym9zE3eDEwQplwSPfI
UE4s54NUmRyCPQk/peVwCvGFywJJdfWiU6sFUmmO6elGUJ7B/k1sIsjbmZThLGLC
8UjdAt8EGkMpvsLY8+0AXr39UAQi81x/tYu6lJuPPzJgD29JS09gMEcFsSH6tZRZ
j2OjwvZQMSdN4db9ZxNTJSToTfDZqesUGdGcT8n87gOaqgq0fgLXnyDS+g+K6rld
TWTOOpuSeLiTPeDe4bTO70Q1LWdLd8nAzf10Alo3dhpzVFO7U4AqpYMnFL2FQFSZ
133JkdgLHugNoOVfpBr+ljYcl/fJbdAOV259r2CM2NovRQIDAQABo4IBRzCCAUMw
CQYDVR0TBAIwADAjBglghkgBhvhCAQ0EFhYUVlBOIFVzZXIgQ2VydGlmaWNhdGUw
EQYJYIZIAYb4QgEBBAQDAgeAMAsGA1UdDwQEAwIHgDATBgNVHSUEDDAKBggrBgEF
BQcDAjAdBgNVHQ4EFgQU6JYDmAV97SlC0DC0f7ScO++PD3EwgbwGA1UdIwSBtDCB
sYAUhk+4bRgqGzyPJzQp8IGfum5hDuGhgY2kgYowgYcxCzAJBgNVBAYTAkNIMQww
CgYDVQQIEwNadWcxDDAKBgNVBAcTA1p1ZzEYMBYGA1UEChMPUGVyZmVjdCBQcml2
YWN5MRgwFgYDVQQDEw9QZXJmZWN0IFByaXZhY3kxKDAmBgkqhkiG9w0BCQEWGWFk
bWluQHBlcmZlY3QtcHJpdmFjeS5jb22CCQD6EbXEqmmvaTANBgkqhkiG9w0BAQ0F
AAOCAgEAZUrlxlgRkfkN9wA4EerWJHuh3VnUb61LUyV5DasvyTux7aFd4mbGTcKQ
aa7A7eaGyn75nXMK7lxTr6YDluIF5U28u2O8vwsZDuxREJs96IVFpt8S6P10wsh7
jouDtbh1DYXq3CQx9g+lv+BIC37DzTe0iQYueY3Pa42/Latuf4cmIo1tCVWNM8Jz
clRBT1nt4OCHNN6fmxPTHWdFUa1k+XD6I6PaNccEKwonOsLx/6rCKPSeshfTQuOP
yoprxP/C4v2WDedoWTBsCYARbPR73zU1jZmYTCRc/n6vcF0226ilGwMBCrlPQE6C
q4ANg+fgaYXLapISI9zFFG01HVnNuPCEI3f8migYBKQadW0SGcrOTmDO20kMhKLx
eFyDTA4+4k1zzcRileL/QtiJeCqvx9+htlX+/D3RSfCsAn0KQ6LofHdQMqHYX4Ml
QzAePzCqmXaSArPimJfVKw6oyJPpSDi0+f5nusSr1vujyh2MfHR6MGp5p/e3cmn+
+ekfyXK+IJ6ZISicfwot7S2TzTDBCKlksHfcdZeN7Op7qazcUSW04fQJkuqc0Vyw
W2qFRAd6nHmm5asJDcKeln2QxoyQAZXRfprviXWKlV6j8WZOIoXVWyGHy7puE44F
6a9v0da5STcYFgeU+PNzvD942yOFMwrR5+5BSJ5tQTXCOPzTz5c=
-----END CERTIFICATE-----
