Certificate:
    Data:
        Version: 3 (0x2)
        Serial Number: 1760373652159668738 (0x186e1a8280ef2202)
    Signature Algorithm: sha512WithRSAEncryption
        Issuer: C=CH, ST=Zug, L=Zug, O=Perfect Privacy, CN=Perfect Privacy/emailAddress=admin@perfect-privacy.com
        Validity
            Not Before: Nov 26 00:00:00 2022 GMT
            Not After : Jul 23 00:00:00 2024 GMT
        Subject: C=CH, ST=Zug, O=Perfect Privacy, CN=Client_newyork.perfect-privacy.com/emailAddress=admin@perfect-privacy.com
        Subject Public Key Info:
            Public Key Algorithm: rsaEncryption
                Public-Key: (4096 bit)
                Modulus:
                    00:af:93:65:e4:77:28:a5:39:d5:e9:b7:ef:36:18:
                    8e:48:dd:82:b8:04:e2:7c:af:e8:5b:27:d5:4e:c3:
                    64:ae:bf:81:b6:cf:57:22:80:3c:f5:fb:b5:95:76:
                    a6:55:34:7b:8c:55:c9:d3:04:0b:3b:19:e3:5d:98:
                    70:18:ae:4d:b1:5e:2a:c6:8c:cd:10:5a:a1:b8:e6:
                    e8:d0:86:39:2c:02:1c:e1:bf:65:56:22:85:16:e0:
                    65:a5:1f:c2:63:35:98:33:50:df:47:fc:dd:22:4a:
                    16:32:8b:20:ed:25:4f:47:2d:f5:0a:e5:94:4f:bd:
                    15:7c:f4:10:94:ab:a2:d8:73:7d:61:b0:c1:81:da:
                    dc:9d:55:30:85:df:56:8b:14:e6:da:d2:cc:60:fb:
                    8f:c6:3a:19:87:79:b3:c0:da:2b:5a:19:39:2f:40:
                    dd:39:21:b9:50:a6:d1:c6:85:3b:57:c8:47:ed:db:
                    2d:26:99:40:59:7f:b7:91:ea:f8:ff:99:96:1e:ae:
                    9d:4d:bc:58:34:84:ca:da:68:a5:4a:7f:e9:91:65:
                    a2:ca:55:bc:ea:19:69:a5:f2:62:5d:b7:2b:f9:52:
                    1f:a5:ed:7f:aa:b9:a7:8a:f8:d6:82:b9:74:8c:e3:
                    f1:72:63:24:94:2c:2e:f6:74:ab:c0:a1:ca:51:1e:
                    07:89:74:ea:cc:bc:d3:63:c0:99:e9:fa:e1:fd:1e:
                    33:41:fc:e9:97:9f:46:16:3f:8a:45:dd:46:e3:df:
                    c8:30:bb:ba:68:fc:80:5d:a6:b8:ec:b2:d9:27:39:
                    e8:79:9b:b0:ac:2e:db:f5:74:eb:64:12:ac:9c:d2:
                    b9:f8:23:6a:24:a9:72:84:84:e8:dc:fd:45:74:c7:
                    e2:27:45:db:33:3c:6e:20:b0:dc:71:aa:bd:c9:7a:
                    de:15:35:ef:b7:a9:a0:13:f6:49:ec:14:80:bf:f4:
                    43:e4:89:28:73:db:bc:10:e3:7e:56:29:c3:8e:b4:
                    c9:7c:49:2d:67:17:bb:71:1d:67:d3:91:16:8e:cd:
                    94:2c:64:1c:bb:a9:18:7f:91:0e:55:4a:7f:55:df:
                    5f:b3:03:cb:7e:6b:74:15:ad:ff:c8:4e:3f:9d:05:
                    74:80:e7:96:8b:94:b3:44:aa:d7:f8:6e:3f:f9:61:
                    02:ca:ed:30:df:e9:aa:12:d7:41:28:c4:69:cf:f6:
                    18:00:0d:d8:f8:1d:27:6f:ee:fe:5b:11:24:ab:02:
                    00:44:37:01:f6:82:06:e8:73:07:00:ab:a9:e1:3a:
                    4c:9b:3c:cc:f7:9c:e7:06:da:bb:ce:e3:b7:76:1f:
                    5d:9d:6d:cd:19:83:65:2d:a1:9a:60:d7:1f:ac:55:
                    9c:28:dd
                Exponent: 65537 (0x10001)
        X509v3 extensions:
            X509v3 Basic Constraints: 
                CA:FALSE
            Netscape Comment: 
                VPN User Certificate
            Netscape Cert Type: 
                SSL Client
            X509v3 Key Usage: 
                Digital Signature
            X509v3 Extended Key Usage: 
                TLS Web Client Authentication
            X509v3 Subject Key Identifier: 
                92:7A:E6:78:0C:FC:66:44:15:73:35:75:4E:C2:42:F9:C8:1E:7A:91
            X509v3 Authority Key Identifier: 
                keyid:86:4F:B8:6D:18:2A:1B:3C:8F:27:34:29:F0:81:9F:BA:6E:61:0E:E1
                DirName:/C=CH/ST=Zug/L=Zug/O=Perfect Privacy/CN=Perfect Privacy/emailAddress=admin@perfect-privacy.com
                serial:FA:11:B5:C4:AA:69:AF:69

    Signature Algorithm: sha512WithRSAEncryption
         2d:d6:97:ab:ac:93:84:84:c3:aa:d5:c6:bc:6c:66:9f:81:88:
         19:b3:f5:87:0f:b8:24:5a:76:94:31:b9:f2:36:40:4b:bb:d9:
         97:5d:dd:a7:a2:40:8e:e5:43:3f:31:99:3e:9c:7f:1a:12:a5:
         73:ca:1f:03:16:ed:1a:aa:57:b9:dc:d0:42:93:58:b6:e9:f5:
         1c:c6:60:29:ca:0d:bf:5f:ae:54:a3:40:d9:48:b8:7f:1d:42:
         e5:ce:7f:0d:4c:ab:5e:9a:e8:44:16:d5:49:1a:86:bb:18:31:
         b8:56:09:56:62:2b:26:fe:80:ea:96:6e:48:4b:29:c8:40:0a:
         1a:09:03:16:ac:0c:49:5a:68:d4:92:01:1a:b7:fa:42:de:46:
         31:58:f1:d1:bc:b7:e2:18:61:77:8a:dc:f9:fd:5b:0b:bc:1a:
         9b:d9:22:5f:a3:5e:a7:30:28:53:24:69:c4:dc:8a:6e:ba:9d:
         b2:54:0c:35:6c:f5:34:a2:5e:9b:48:23:73:2b:9b:e6:d5:71:
         dd:fd:70:91:80:ee:6c:8d:96:be:4c:ba:46:bb:65:d2:22:e8:
         25:a9:36:e3:b3:d3:84:b1:76:09:0c:32:b3:a9:dc:79:5d:89:
         1c:9a:94:91:6b:38:9a:d0:b2:a0:5e:4d:fc:a5:4c:75:4f:55:
         4d:ed:28:c5:25:df:96:51:2a:58:fe:49:3c:a0:d9:6f:34:85:
         0e:5e:d4:d1:ef:4f:cc:28:44:52:2c:0f:86:6a:1b:24:b6:86:
         4e:07:83:3d:9f:c8:ce:bd:e1:ff:f3:80:7f:3c:b1:47:54:9e:
         ef:f0:1a:05:bf:99:3b:00:e4:1c:2e:f8:4c:f3:0d:32:b6:87:
         74:d6:0b:71:23:d2:be:26:a3:c5:3a:8f:06:0a:c5:dd:10:a9:
         5e:c1:ae:72:ba:de:03:92:65:45:88:f5:7c:c8:13:4e:a1:8a:
         f9:3e:45:7d:a0:60:09:dd:d4:48:49:75:ec:47:7b:32:a5:94:
         83:f2:3a:2f:11:1d:f7:ff:bf:fd:27:89:76:b6:8a:ec:75:23:
         de:ba:72:6c:2d:bc:bd:f2:e9:00:ba:33:ac:e3:3d:0e:ad:68:
         94:e2:46:f7:6a:c8:5f:47:fd:d8:23:03:65:01:cf:f6:3c:51:
         e8:ff:6a:54:e0:97:7b:d1:bc:b1:d5:cb:c0:0b:43:6b:32:b3:
         d3:19:bc:f0:bb:0e:e0:0d:42:d3:c8:28:46:e7:8b:05:0f:96:
         c1:02:4a:94:8b:f4:24:0b:8c:40:3a:fc:45:06:8d:b0:75:79:
         79:88:09:21:b8:49:75:81:5d:be:e0:32:e9:9d:6b:90:24:9e:
         d1:27:ba:21:dc:2f:b5:55
-----BEGIN CERTIFICATE-----
MIIG4DCCBMigAwIBAgIIGG4agoDvIgIwDQYJKoZIhvcNAQENBQAwgYcxCzAJBgNV
BAYTAkNIMQwwCgYDVQQIEwNadWcxDDAKBgNVBAcTA1p1ZzEYMBYGA1UEChMPUGVy
ZmVjdCBQcml2YWN5MRgwFgYDVQQDEw9QZXJmZWN0IFByaXZhY3kxKDAmBgkqhkiG
9w0BCQEWGWFkbWluQHBlcmZlY3QtcHJpdmFjeS5jb20wHhcNMjIxMTI2MDAwMDAw
WhcNMjQwNzIzMDAwMDAwWjCBjDELMAkGA1UEBhMCQ0gxDDAKBgNVBAgTA1p1ZzEY
MBYGA1UEChMPUGVyZmVjdCBQcml2YWN5MSswKQYDVQQDFCJDbGllbnRfbmV3eW9y
ay5wZXJmZWN0LXByaXZhY3kuY29tMSgwJgYJKoZIhvcNAQkBFhlhZG1pbkBwZXJm
ZWN0LXByaXZhY3kuY29tMIICIjANBgkqhkiG9w0BAQEFAAOCAg8AMIICCgKCAgEA
r5Nl5HcopTnV6bfvNhiOSN2CuATifK/oWyfVTsNkrr+Bts9XIoA89fu1lXamVTR7
jFXJ0wQLOxnjXZhwGK5NsV4qxozNEFqhuObo0IY5LAIc4b9lViKFFuBlpR/CYzWY
M1DfR/zdIkoWMosg7SVPRy31CuWUT70VfPQQlKui2HN9YbDBgdrcnVUwhd9WixTm
2tLMYPuPxjoZh3mzwNorWhk5L0DdOSG5UKbRxoU7V8hH7dstJplAWX+3ker4/5mW
Hq6dTbxYNITK2milSn/pkWWiylW86hlppfJiXbcr+VIfpe1/qrmnivjWgrl0jOPx
cmMklCwu9nSrwKHKUR4HiXTqzLzTY8CZ6frh/R4zQfzpl59GFj+KRd1G49/IMLu6
aPyAXaa47LLZJznoeZuwrC7b9XTrZBKsnNK5+CNqJKlyhITo3P1FdMfiJ0XbMzxu
ILDccaq9yXreFTXvt6mgE/ZJ7BSAv/RD5Ikoc9u8EON+VinDjrTJfEktZxe7cR1n
05EWjs2ULGQcu6kYf5EOVUp/Vd9fswPLfmt0Fa3/yE4/nQV0gOeWi5SzRKrX+G4/
+WECyu0w3+mqEtdBKMRpz/YYAA3Y+B0nb+7+WxEkqwIARDcB9oIG6HMHAKup4TpM
mzzM95znBtq7zuO3dh9dnW3NGYNlLaGaYNcfrFWcKN0CAwEAAaOCAUcwggFDMAkG
A1UdEwQCMAAwIwYJYIZIAYb4QgENBBYWFFZQTiBVc2VyIENlcnRpZmljYXRlMBEG
CWCGSAGG+EIBAQQEAwIHgDALBgNVHQ8EBAMCB4AwEwYDVR0lBAwwCgYIKwYBBQUH
AwIwHQYDVR0OBBYEFJJ65ngM/GZEFXM1dU7CQvnIHnqRMIG8BgNVHSMEgbQwgbGA
FIZPuG0YKhs8jyc0KfCBn7puYQ7hoYGNpIGKMIGHMQswCQYDVQQGEwJDSDEMMAoG
A1UECBMDWnVnMQwwCgYDVQQHEwNadWcxGDAWBgNVBAoTD1BlcmZlY3QgUHJpdmFj
eTEYMBYGA1UEAxMPUGVyZmVjdCBQcml2YWN5MSgwJgYJKoZIhvcNAQkBFhlhZG1p
bkBwZXJmZWN0LXByaXZhY3kuY29tggkA+hG1xKppr2kwDQYJKoZIhvcNAQENBQAD
ggIBAC3Wl6usk4SEw6rVxrxsZp+BiBmz9YcPuCRadpQxufI2QEu72Zdd3aeiQI7l
Qz8xmT6cfxoSpXPKHwMW7RqqV7nc0EKTWLbp9RzGYCnKDb9frlSjQNlIuH8dQuXO
fw1Mq16a6EQW1UkahrsYMbhWCVZiKyb+gOqWbkhLKchAChoJAxasDElaaNSSARq3
+kLeRjFY8dG8t+IYYXeK3Pn9Wwu8GpvZIl+jXqcwKFMkacTcim66nbJUDDVs9TSi
XptII3Mrm+bVcd39cJGA7myNlr5Muka7ZdIi6CWpNuOz04SxdgkMMrOp3HldiRya
lJFrOJrQsqBeTfylTHVPVU3tKMUl35ZRKlj+STyg2W80hQ5e1NHvT8woRFIsD4Zq
GyS2hk4Hgz2fyM694f/zgH88sUdUnu/wGgW/mTsA5Bwu+EzzDTK2h3TWC3Ej0r4m
o8U6jwYKxd0QqV7BrnK63gOSZUWI9XzIE06hivk+RX2gYAnd1EhJdexHezKllIPy
Oi8RHff/v/0niXa2iux1I966cmwtvL3y6QC6M6zjPQ6taJTiRvdqyF9H/dgjA2UB
z/Y8Uej/alTgl3vRvLHVy8ALQ2sys9MZvPC7DuANQtPIKEbniwUPlsECSpSL9CQL
jEA6/EUGjbB1eXmICSG4SXWBXb7gMumda5AkntEnuiHcL7VV
-----END CERTIFICATE-----
