Certificate:
    Data:
        Version: 3 (0x2)
        Serial Number: 8718513257457788208 (0x78fe619d704e2530)
    Signature Algorithm: sha512WithRSAEncryption
        Issuer: C=CH, ST=Zug, L=Zug, O=Perfect Privacy, CN=Perfect Privacy/emailAddress=admin@perfect-privacy.com
        Validity
            Not Before: Jan 23 00:00:00 2023 GMT
            Not After : Sep 19 00:00:00 2024 GMT
        Subject: C=CH, ST=Zug, O=Perfect Privacy, CN=Client_newyork.perfect-privacy.com/emailAddress=admin@perfect-privacy.com
        Subject Public Key Info:
            Public Key Algorithm: rsaEncryption
                Public-Key: (4096 bit)
                Modulus:
                    00:d5:43:95:dc:2c:5d:41:47:04:3b:c6:30:8c:d8:
                    a8:97:4d:6e:52:65:55:93:d8:75:35:c8:ca:11:e0:
                    ae:7c:97:17:f2:70:82:35:42:da:08:6b:5f:02:94:
                    9f:73:68:d9:25:17:dc:61:df:74:73:3d:73:e1:ad:
                    70:7f:82:de:78:d6:6b:13:f3:6e:b8:b4:66:47:65:
                    a0:1f:e1:cd:46:da:9b:a9:e3:48:b3:05:1d:58:53:
                    8c:e1:ec:6d:9d:45:d1:f7:ad:9c:ac:dd:f6:c2:ea:
                    e8:ff:d8:c2:8f:1e:47:64:c5:7d:17:d7:43:6c:b7:
                    69:f4:3a:fc:8a:87:57:fa:b5:35:d0:20:0e:45:1e:
                    03:f6:c7:22:3f:d9:30:98:4c:ff:bc:35:9f:18:c1:
                    37:53:94:77:13:2d:d1:47:04:5a:76:61:05:d6:dc:
                    e4:f8:18:19:5c:29:cf:55:e7:43:b3:29:53:64:99:
                    20:fc:24:7b:70:cd:65:5e:c7:0b:99:cf:64:69:d9:
                    dd:91:b7:b7:a9:f5:2d:92:f8:13:ad:22:11:3f:2a:
                    82:48:b6:73:c1:bf:5d:d2:af:00:5c:84:9b:40:68:
                    01:79:a6:c8:08:bc:bc:13:b6:1a:eb:b1:55:a9:1d:
                    ec:e9:8e:f6:59:72:27:80:fe:8c:03:71:55:f3:8d:
                    2a:8d:18:c6:25:0d:25:f8:79:73:cb:f6:7a:85:5a:
                    2d:eb:bd:44:ec:a3:85:e0:25:35:68:ac:09:82:d5:
                    43:ed:84:0d:f2:31:73:48:b6:fd:1f:b2:4b:cc:62:
                    94:b6:e1:34:f9:58:b0:63:f2:57:10:ca:cc:d2:3b:
                    6a:fc:3d:8b:f1:da:19:58:00:17:7a:80:7b:81:b6:
                    8d:ab:b8:8e:76:ea:9d:0d:03:41:8d:62:f1:db:4c:
                    f8:92:25:a4:fb:82:28:db:63:3a:3f:3e:b9:95:45:
                    ae:64:bc:44:03:6e:f1:45:39:89:00:f6:fe:36:39:
                    b2:bc:ed:55:0f:5f:66:af:34:bf:c4:48:b5:e3:3c:
                    67:d3:09:f1:66:80:18:39:0b:b7:ee:f0:e3:90:58:
                    b7:eb:8b:df:b5:3c:b4:c0:9a:c7:50:b4:88:94:97:
                    7b:87:42:48:86:cb:26:b0:03:cc:f3:30:66:e5:da:
                    9d:9f:9a:13:a4:34:9a:4b:fd:92:50:88:d3:1d:67:
                    53:92:36:8b:65:56:df:97:07:72:fa:c5:b9:68:ef:
                    09:fc:42:ab:fc:da:60:ff:24:6f:78:2a:83:08:4d:
                    d8:57:b0:63:bf:2d:c3:eb:d0:0e:3c:4e:e1:bc:85:
                    76:81:55:5d:12:32:1d:6c:a0:2d:f5:8f:c6:7d:19:
                    98:fd:23
                Exponent: 65537 (0x10001)
        X509v3 extensions:
            X509v3 Basic Constraints: 
                CA:FALSE
            Netscape Comment: 
                VPN User Certificate
            Netscape Cert Type: 
                SSL Client
            X509v3 Key Usage: 
                Digital Signature
            X509v3 Extended Key Usage: 
                TLS Web Client Authentication
            X509v3 Subject Key Identifier: 
                27:F3:82:6E:6E:9D:64:8A:E3:24:E9:3C:48:A1:F6:00:ED:0A:15:97
            X509v3 Authority Key Identifier: 
                keyid:86:4F:B8:6D:18:2A:1B:3C:8F:27:34:29:F0:81:9F:BA:6E:61:0E:E1
                DirName:/C=CH/ST=Zug/L=Zug/O=Perfect Privacy/CN=Perfect Privacy/emailAddress=admin@perfect-privacy.com
                serial:FA:11:B5:C4:AA:69:AF:69

    Signature Algorithm: sha512WithRSAEncryption
         38:6f:3f:09:d0:ff:e1:55:5a:d9:2c:74:2e:61:23:1a:a8:43:
         42:71:4d:5b:be:96:69:4c:3a:58:82:d2:17:71:ab:8d:1b:5b:
         08:97:1a:08:8c:01:4f:42:54:76:09:c9:1f:1e:0c:ed:09:68:
         43:2a:bc:6c:bd:a8:d1:86:6e:22:de:00:8f:44:ac:1e:e3:da:
         d6:c1:09:93:15:1e:65:1b:61:e7:66:82:21:72:5e:72:fc:41:
         df:67:86:e3:32:81:c2:83:b2:ae:c1:3d:c8:57:37:9a:67:9e:
         8a:91:a9:a6:62:6b:46:38:a4:28:70:20:3e:a6:1c:76:01:de:
         e3:fa:11:7c:07:69:ef:36:a1:cb:71:38:fc:e6:84:1d:21:6b:
         31:7b:ce:7f:f7:6d:bc:6d:d7:52:28:2f:6c:29:d9:11:3c:2b:
         38:60:4f:ed:b1:c7:c4:12:20:89:4d:7a:16:1d:37:3e:58:3b:
         89:23:48:9a:57:19:46:b4:b3:18:8f:b0:c3:5c:31:69:41:6b:
         2a:1d:da:de:c7:ae:58:60:2a:d9:3e:b9:e1:24:8b:a4:c1:39:
         61:d4:be:30:12:6c:60:af:b9:64:72:9d:46:91:31:19:15:28:
         82:41:ab:d7:9d:e1:9e:2e:b0:ad:24:e7:99:11:50:21:96:41:
         e9:d3:ec:00:3e:5d:ee:25:f0:f1:fe:f0:a4:36:12:aa:18:54:
         3f:a1:82:83:7e:6f:ba:4e:ac:51:ea:02:0d:ce:47:c1:ba:ed:
         10:1b:b2:a4:37:b6:2d:1d:f5:00:05:67:a5:4e:79:ca:aa:c4:
         bd:34:79:8c:46:73:8a:af:14:0c:92:f4:10:86:5b:ec:4e:b3:
         bb:d1:77:d0:5f:d5:fb:e8:d9:43:1b:02:fa:47:f0:c0:dd:bc:
         55:5b:1c:51:25:e6:6c:4c:0d:12:c8:f1:43:ca:ad:0d:71:f7:
         b3:d2:db:dd:70:dd:d0:dc:ab:24:f6:55:2b:e8:40:d8:a6:6d:
         df:e7:66:a8:c9:c5:31:3f:6d:5f:4d:15:23:de:08:09:f2:c7:
         10:0d:71:31:f9:2b:2f:5d:02:96:c4:ad:70:65:2a:d2:a7:59:
         7c:6f:69:6a:21:d3:2c:29:a2:48:76:5d:f0:1c:c4:7c:ae:6e:
         29:b5:92:21:2a:1d:91:f2:51:4a:2a:39:3c:52:57:09:e3:49:
         25:d1:cf:cb:1b:78:da:83:9a:ce:f8:8f:20:5e:d9:7a:a0:8b:
         3b:03:ab:51:8f:0f:84:8c:44:6d:97:e4:2a:76:f2:ae:17:2b:
         9a:65:cf:50:3b:9b:39:e3:05:1e:b9:27:3d:78:db:f1:3f:b8:
         17:3d:79:8a:11:4a:f0:56
-----BEGIN CERTIFICATE-----
MIIG4DCCBMigAwIBAgIIeP5hnXBOJTAwDQYJKoZIhvcNAQENBQAwgYcxCzAJBgNV
BAYTAkNIMQwwCgYDVQQIEwNadWcxDDAKBgNVBAcTA1p1ZzEYMBYGA1UEChMPUGVy
ZmVjdCBQcml2YWN5MRgwFgYDVQQDEw9QZXJmZWN0IFByaXZhY3kxKDAmBgkqhkiG
9w0BCQEWGWFkbWluQHBlcmZlY3QtcHJpdmFjeS5jb20wHhcNMjMwMTIzMDAwMDAw
WhcNMjQwOTE5MDAwMDAwWjCBjDELMAkGA1UEBhMCQ0gxDDAKBgNVBAgTA1p1ZzEY
MBYGA1UEChMPUGVyZmVjdCBQcml2YWN5MSswKQYDVQQDFCJDbGllbnRfbmV3eW9y
ay5wZXJmZWN0LXByaXZhY3kuY29tMSgwJgYJKoZIhvcNAQkBFhlhZG1pbkBwZXJm
ZWN0LXByaXZhY3kuY29tMIICIjANBgkqhkiG9w0BAQEFAAOCAg8AMIICCgKCAgEA
1UOV3CxdQUcEO8YwjNiol01uUmVVk9h1NcjKEeCufJcX8nCCNULaCGtfApSfc2jZ
JRfcYd90cz1z4a1wf4LeeNZrE/NuuLRmR2WgH+HNRtqbqeNIswUdWFOM4extnUXR
962crN32wuro/9jCjx5HZMV9F9dDbLdp9Dr8iodX+rU10CAORR4D9sciP9kwmEz/
vDWfGME3U5R3Ey3RRwRadmEF1tzk+BgZXCnPVedDsylTZJkg/CR7cM1lXscLmc9k
adndkbe3qfUtkvgTrSIRPyqCSLZzwb9d0q8AXISbQGgBeabICLy8E7Ya67FVqR3s
6Y72WXIngP6MA3FV840qjRjGJQ0l+Hlzy/Z6hVot671E7KOF4CU1aKwJgtVD7YQN
8jFzSLb9H7JLzGKUtuE0+ViwY/JXEMrM0jtq/D2L8doZWAAXeoB7gbaNq7iOduqd
DQNBjWLx20z4kiWk+4Io22M6Pz65lUWuZLxEA27xRTmJAPb+NjmyvO1VD19mrzS/
xEi14zxn0wnxZoAYOQu37vDjkFi364vftTy0wJrHULSIlJd7h0JIhssmsAPM8zBm
5dqdn5oTpDSaS/2SUIjTHWdTkjaLZVbflwdy+sW5aO8J/EKr/Npg/yRveCqDCE3Y
V7Bjvy3D69AOPE7hvIV2gVVdEjIdbKAt9Y/GfRmY/SMCAwEAAaOCAUcwggFDMAkG
A1UdEwQCMAAwIwYJYIZIAYb4QgENBBYWFFZQTiBVc2VyIENlcnRpZmljYXRlMBEG
CWCGSAGG+EIBAQQEAwIHgDALBgNVHQ8EBAMCB4AwEwYDVR0lBAwwCgYIKwYBBQUH
AwIwHQYDVR0OBBYEFCfzgm5unWSK4yTpPEih9gDtChWXMIG8BgNVHSMEgbQwgbGA
FIZPuG0YKhs8jyc0KfCBn7puYQ7hoYGNpIGKMIGHMQswCQYDVQQGEwJDSDEMMAoG
A1UECBMDWnVnMQwwCgYDVQQHEwNadWcxGDAWBgNVBAoTD1BlcmZlY3QgUHJpdmFj
eTEYMBYGA1UEAxMPUGVyZmVjdCBQcml2YWN5MSgwJgYJKoZIhvcNAQkBFhlhZG1p
bkBwZXJmZWN0LXByaXZhY3kuY29tggkA+hG1xKppr2kwDQYJKoZIhvcNAQENBQAD
ggIBADhvPwnQ/+FVWtksdC5hIxqoQ0JxTVu+lmlMOliC0hdxq40bWwiXGgiMAU9C
VHYJyR8eDO0JaEMqvGy9qNGGbiLeAI9ErB7j2tbBCZMVHmUbYedmgiFyXnL8Qd9n
huMygcKDsq7BPchXN5pnnoqRqaZia0Y4pChwID6mHHYB3uP6EXwHae82octxOPzm
hB0hazF7zn/3bbxt11IoL2wp2RE8KzhgT+2xx8QSIIlNehYdNz5YO4kjSJpXGUa0
sxiPsMNcMWlBayod2t7HrlhgKtk+ueEki6TBOWHUvjASbGCvuWRynUaRMRkVKIJB
q9ed4Z4usK0k55kRUCGWQenT7AA+Xe4l8PH+8KQ2EqoYVD+hgoN+b7pOrFHqAg3O
R8G67RAbsqQ3ti0d9QAFZ6VOecqqxL00eYxGc4qvFAyS9BCGW+xOs7vRd9Bf1fvo
2UMbAvpH8MDdvFVbHFEl5mxMDRLI8UPKrQ1x97PS291w3dDcqyT2VSvoQNimbd/n
ZqjJxTE/bV9NFSPeCAnyxxANcTH5Ky9dApbErXBlKtKnWXxvaWoh0ywpokh2XfAc
xHyubim1kiEqHZHyUUoqOTxSVwnjSSXRz8sbeNqDms74jyBe2XqgizsDq1GPD4SM
RG2X5Cp28q4XK5plz1A7mznjBR65Jz142/E/uBc9eYoRSvBW
-----END CERTIFICATE-----
