Certificate:
    Data:
        Version: 3 (0x2)
        Serial Number: 8337909635309679663 (0x73b634a31df0b42f)
    Signature Algorithm: sha512WithRSAEncryption
        Issuer: C=CH, ST=Zug, L=Zug, O=Perfect Privacy, CN=Perfect Privacy/emailAddress=admin@perfect-privacy.com
        Validity
            Not Before: Jan 22 00:00:00 2023 GMT
            Not After : Sep 18 00:00:00 2024 GMT
        Subject: C=CH, ST=Zug, O=Perfect Privacy, CN=Client_oslo.perfect-privacy.com/emailAddress=admin@perfect-privacy.com
        Subject Public Key Info:
            Public Key Algorithm: rsaEncryption
                Public-Key: (4096 bit)
                Modulus:
                    00:c7:e0:33:fa:8c:bf:80:f3:a7:88:eb:47:52:80:
                    23:dc:54:37:64:6c:ef:39:7d:02:50:83:84:c3:ad:
                    de:b2:f6:5c:58:f6:6b:b3:75:01:9e:bf:48:2e:e2:
                    d4:8b:c0:2d:5d:77:8d:03:c2:24:5c:51:dd:0a:2f:
                    83:4c:cd:50:9c:2a:12:f4:82:b3:50:b0:e0:00:c4:
                    6e:2f:9c:bc:13:07:20:56:b4:df:cb:e1:71:f7:56:
                    c7:ae:14:ee:ba:d7:40:73:75:14:42:80:45:13:b7:
                    a1:56:bf:eb:2d:e8:e0:21:b6:7d:6c:c5:aa:ff:c9:
                    a1:b6:47:77:87:65:d8:b7:fe:24:f1:17:76:d8:76:
                    f5:d2:db:ff:50:9b:a6:01:41:5a:43:31:5b:0c:97:
                    bb:bb:5b:b8:e7:11:1d:80:03:2d:0b:59:79:ef:20:
                    b6:ef:1f:21:16:87:b2:07:a5:98:be:e6:38:98:06:
                    c0:a8:75:cb:ce:95:e3:ed:62:85:1a:dd:4e:bd:41:
                    78:e3:76:9a:24:07:e3:5a:c7:af:65:2a:a0:3a:44:
                    17:93:c0:0c:f9:20:ad:6d:e8:a3:a2:05:46:ff:1d:
                    2d:ac:3f:cd:5c:a0:30:cd:f3:e1:90:d5:e6:e3:30:
                    60:93:46:f9:bc:21:2b:76:05:e2:27:bb:ac:fd:af:
                    b9:2f:78:5a:fc:97:76:34:61:8f:6f:8f:1d:f1:3e:
                    bd:a9:c6:73:45:30:d1:bb:de:e1:36:48:a4:eb:52:
                    92:4a:12:60:bc:1a:3b:42:a7:dd:12:2d:de:ea:8b:
                    2d:5e:a5:07:2e:7c:11:69:d8:41:bc:69:41:c8:00:
                    8b:20:52:e4:31:d4:cc:78:8c:da:f7:6d:e9:2c:eb:
                    5e:52:78:a2:37:a4:c7:d9:88:41:9a:4f:e0:56:1d:
                    51:df:11:28:af:c8:92:7a:3e:a2:66:fd:29:e8:ed:
                    67:0b:bf:ea:e8:c7:5b:ec:36:47:b8:cd:c3:46:94:
                    bf:64:15:00:50:58:b3:c9:82:dc:66:33:23:c1:57:
                    75:ed:2f:ef:d1:f3:04:7f:96:99:6f:fc:eb:57:4e:
                    8a:cb:94:f5:ba:29:4e:a9:90:31:18:0f:66:7f:7a:
                    87:2a:d6:fd:00:e4:06:4e:63:95:27:51:ff:19:76:
                    05:ba:e4:77:6f:e7:d4:ef:a2:76:a1:f1:f0:11:af:
                    44:3e:ef:42:15:9e:fe:3f:6f:26:b3:19:47:57:4f:
                    03:9e:3f:44:13:42:f5:db:11:41:0e:5a:10:89:b2:
                    ae:5f:c5:5a:3f:c4:8f:18:21:4b:a7:3a:06:e8:a2:
                    09:3e:80:b5:4e:ae:39:30:90:e5:c9:18:06:1e:85:
                    17:9e:3d
                Exponent: 65537 (0x10001)
        X509v3 extensions:
            X509v3 Basic Constraints: 
                CA:FALSE
            Netscape Comment: 
                VPN User Certificate
            Netscape Cert Type: 
                SSL Client
            X509v3 Key Usage: 
                Digital Signature
            X509v3 Extended Key Usage: 
                TLS Web Client Authentication
            X509v3 Subject Key Identifier: 
                D3:DD:DD:28:FF:6E:71:B1:D3:E0:85:05:45:AF:9B:CD:2A:F6:9A:22
            X509v3 Authority Key Identifier: 
                keyid:86:4F:B8:6D:18:2A:1B:3C:8F:27:34:29:F0:81:9F:BA:6E:61:0E:E1
                DirName:/C=CH/ST=Zug/L=Zug/O=Perfect Privacy/CN=Perfect Privacy/emailAddress=admin@perfect-privacy.com
                serial:FA:11:B5:C4:AA:69:AF:69

    Signature Algorithm: sha512WithRSAEncryption
         48:1b:59:90:52:49:6c:80:36:68:2f:70:2d:13:97:31:71:59:
         c2:7f:05:7f:23:b8:df:40:6f:ab:51:c7:f3:3c:42:72:f0:a2:
         2a:96:d7:99:b9:0a:81:cf:42:d3:e5:e5:f1:06:4c:de:ae:28:
         f1:75:81:e4:5c:51:7f:e0:c5:94:9f:26:2d:a4:1e:05:37:20:
         85:9a:a2:ba:86:8c:66:29:f1:c8:2c:af:ad:81:3b:11:ad:c9:
         e0:55:c5:a4:c4:0b:b8:4a:0e:85:89:f6:f3:d1:fc:db:1c:17:
         60:56:9b:0c:0f:3a:47:87:7c:5f:0f:51:76:9d:fd:19:b9:ee:
         43:31:16:35:bb:f5:09:4d:5e:05:a4:31:a7:f9:e5:d2:02:ff:
         53:3b:4d:a9:fd:71:bb:eb:cd:c5:98:13:e5:ff:07:37:6f:c0:
         06:ff:d7:9c:58:d3:2e:a7:49:ad:3e:38:9f:51:66:eb:ef:f2:
         e0:ef:5d:7f:ee:eb:7a:ad:94:ba:6a:ff:60:8d:d5:07:f1:d1:
         96:f3:37:e8:c4:36:13:1c:59:5a:c2:30:ed:88:f5:cd:29:2c:
         92:7f:58:74:33:24:65:af:05:44:81:dc:36:2d:d8:ee:ab:01:
         41:a9:b8:9a:9c:8b:be:c4:31:fb:c0:fe:d3:51:62:8a:83:90:
         4b:85:8e:e6:04:5f:c6:d3:74:29:fe:6b:cd:fc:32:b9:b9:e1:
         07:90:ba:3d:ca:31:e5:06:0f:aa:43:40:b0:6c:05:ed:24:85:
         9d:6b:87:37:ef:57:5c:c3:58:04:ea:d7:0e:44:52:40:d5:02:
         c0:a2:8e:c3:fc:23:9a:fa:ba:43:a4:e3:14:9e:ea:46:99:65:
         78:c1:37:1e:30:4e:6e:5e:b6:31:5e:52:9b:cc:78:86:99:11:
         5d:66:36:e7:b0:14:e9:dd:3b:0a:d5:f2:7b:15:f9:b9:6e:5c:
         df:35:4b:ed:39:d8:99:14:e3:c6:7e:8c:5c:26:c4:84:f5:32:
         1a:b3:3c:d3:64:ea:1c:16:89:5f:22:15:12:35:00:bf:32:20:
         d0:da:1e:29:2b:5c:c6:ce:30:4b:62:d1:ec:77:5f:44:64:77:
         07:0e:d3:5e:e6:c9:53:4e:a3:55:e9:42:e8:bc:ac:14:a7:04:
         f8:a1:fe:1b:53:d6:03:00:f7:68:18:c7:02:4e:86:ac:c9:55:
         3e:14:8c:04:19:ba:d0:5d:3d:db:e3:a7:f0:e9:f7:6a:03:9c:
         bd:f8:03:a6:b5:46:e6:cc:96:f0:f6:6a:65:e8:08:b4:d7:e4:
         7d:47:3b:8e:e4:eb:d2:80:75:a0:6d:89:57:ab:8a:57:a8:69:
         a7:d8:f3:e2:0b:60:c8:26
-----BEGIN CERTIFICATE-----
MIIG3TCCBMWgAwIBAgIIc7Y0ox3wtC8wDQYJKoZIhvcNAQENBQAwgYcxCzAJBgNV
BAYTAkNIMQwwCgYDVQQIEwNadWcxDDAKBgNVBAcTA1p1ZzEYMBYGA1UEChMPUGVy
ZmVjdCBQcml2YWN5MRgwFgYDVQQDEw9QZXJmZWN0IFByaXZhY3kxKDAmBgkqhkiG
9w0BCQEWGWFkbWluQHBlcmZlY3QtcHJpdmFjeS5jb20wHhcNMjMwMTIyMDAwMDAw
WhcNMjQwOTE4MDAwMDAwWjCBiTELMAkGA1UEBhMCQ0gxDDAKBgNVBAgTA1p1ZzEY
MBYGA1UEChMPUGVyZmVjdCBQcml2YWN5MSgwJgYDVQQDFB9DbGllbnRfb3Nsby5w
ZXJmZWN0LXByaXZhY3kuY29tMSgwJgYJKoZIhvcNAQkBFhlhZG1pbkBwZXJmZWN0
LXByaXZhY3kuY29tMIICIjANBgkqhkiG9w0BAQEFAAOCAg8AMIICCgKCAgEAx+Az
+oy/gPOniOtHUoAj3FQ3ZGzvOX0CUIOEw63esvZcWPZrs3UBnr9ILuLUi8AtXXeN
A8IkXFHdCi+DTM1QnCoS9IKzULDgAMRuL5y8EwcgVrTfy+Fx91bHrhTuutdAc3UU
QoBFE7ehVr/rLejgIbZ9bMWq/8mhtkd3h2XYt/4k8Rd22Hb10tv/UJumAUFaQzFb
DJe7u1u45xEdgAMtC1l57yC27x8hFoeyB6WYvuY4mAbAqHXLzpXj7WKFGt1OvUF4
43aaJAfjWsevZSqgOkQXk8AM+SCtbeijogVG/x0trD/NXKAwzfPhkNXm4zBgk0b5
vCErdgXiJ7us/a+5L3ha/Jd2NGGPb48d8T69qcZzRTDRu97hNkik61KSShJgvBo7
QqfdEi3e6ostXqUHLnwRadhBvGlByACLIFLkMdTMeIza923pLOteUniiN6TH2YhB
mk/gVh1R3xEor8iSej6iZv0p6O1nC7/q6Mdb7DZHuM3DRpS/ZBUAUFizyYLcZjMj
wVd17S/v0fMEf5aZb/zrV06Ky5T1uilOqZAxGA9mf3qHKtb9AOQGTmOVJ1H/GXYF
uuR3b+fU76J2ofHwEa9EPu9CFZ7+P28msxlHV08Dnj9EE0L12xFBDloQibKuX8Va
P8SPGCFLpzoG6KIJPoC1Tq45MJDlyRgGHoUXnj0CAwEAAaOCAUcwggFDMAkGA1Ud
EwQCMAAwIwYJYIZIAYb4QgENBBYWFFZQTiBVc2VyIENlcnRpZmljYXRlMBEGCWCG
SAGG+EIBAQQEAwIHgDALBgNVHQ8EBAMCB4AwEwYDVR0lBAwwCgYIKwYBBQUHAwIw
HQYDVR0OBBYEFNPd3Sj/bnGx0+CFBUWvm80q9poiMIG8BgNVHSMEgbQwgbGAFIZP
uG0YKhs8jyc0KfCBn7puYQ7hoYGNpIGKMIGHMQswCQYDVQQGEwJDSDEMMAoGA1UE
CBMDWnVnMQwwCgYDVQQHEwNadWcxGDAWBgNVBAoTD1BlcmZlY3QgUHJpdmFjeTEY
MBYGA1UEAxMPUGVyZmVjdCBQcml2YWN5MSgwJgYJKoZIhvcNAQkBFhlhZG1pbkBw
ZXJmZWN0LXByaXZhY3kuY29tggkA+hG1xKppr2kwDQYJKoZIhvcNAQENBQADggIB
AEgbWZBSSWyANmgvcC0TlzFxWcJ/BX8juN9Ab6tRx/M8QnLwoiqW15m5CoHPQtPl
5fEGTN6uKPF1geRcUX/gxZSfJi2kHgU3IIWaorqGjGYp8cgsr62BOxGtyeBVxaTE
C7hKDoWJ9vPR/NscF2BWmwwPOkeHfF8PUXad/Rm57kMxFjW79QlNXgWkMaf55dIC
/1M7Tan9cbvrzcWYE+X/BzdvwAb/15xY0y6nSa0+OJ9RZuvv8uDvXX/u63qtlLpq
/2CN1Qfx0ZbzN+jENhMcWVrCMO2I9c0pLJJ/WHQzJGWvBUSB3DYt2O6rAUGpuJqc
i77EMfvA/tNRYoqDkEuFjuYEX8bTdCn+a838Mrm54QeQuj3KMeUGD6pDQLBsBe0k
hZ1rhzfvV1zDWATq1w5EUkDVAsCijsP8I5r6ukOk4xSe6kaZZXjBNx4wTm5etjFe
UpvMeIaZEV1mNuewFOndOwrV8nsV+bluXN81S+052JkU48Z+jFwmxIT1MhqzPNNk
6hwWiV8iFRI1AL8yINDaHikrXMbOMEti0ex3X0RkdwcO017myVNOo1XpQui8rBSn
BPih/htT1gMA92gYxwJOhqzJVT4UjAQZutBdPdvjp/Dp92oDnL34A6a1RubMlvD2
amXoCLTX5H1HO47k69KAdaBtiVerileoaafY8+ILYMgm
-----END CERTIFICATE-----
