Certificate:
    Data:
        Version: 3 (0x2)
        Serial Number: 6141740811050456273 (0x553bd8ba312e94d1)
    Signature Algorithm: sha512WithRSAEncryption
        Issuer: C=CH, ST=Zug, L=Zug, O=Perfect Privacy, CN=Perfect Privacy/emailAddress=admin@perfect-privacy.com
        Validity
            Not Before: Jun  6 00:00:00 2024 GMT
            Not After : Feb  1 00:00:00 2026 GMT
        Subject: C=CH, ST=Zug, O=Perfect Privacy, CN=Client_oslo.perfect-privacy.com/emailAddress=admin@perfect-privacy.com
        Subject Public Key Info:
            Public Key Algorithm: rsaEncryption
                Public-Key: (4096 bit)
                Modulus:
                    00:b7:25:d1:f4:8c:4c:3e:ca:48:03:16:59:1a:c3:
                    30:1f:22:d0:26:c7:fb:a4:34:fd:0a:1a:e2:c9:13:
                    dc:f1:45:c4:54:c5:83:42:88:4d:7b:38:4c:03:3f:
                    3d:06:43:68:1a:c4:4c:25:2c:29:43:a0:3f:fd:24:
                    af:db:a0:15:18:48:dd:55:2a:14:f3:af:eb:99:d6:
                    28:12:e1:43:f5:3d:bc:6a:a5:49:6e:73:99:b0:f4:
                    86:bd:58:2b:b5:8e:b9:8c:bc:ed:de:e9:f4:9e:80:
                    3c:5f:35:15:dd:3a:4d:74:c0:9c:e8:ca:c0:e6:5e:
                    c1:0f:88:03:e3:be:2e:c9:22:c2:a3:4e:0d:ac:c0:
                    77:43:34:24:b4:6b:94:a3:3f:1e:2e:c1:3c:96:65:
                    e6:59:1c:66:19:38:36:2f:fb:62:9d:77:8c:d4:04:
                    52:2b:41:6c:88:f7:90:87:26:83:41:c0:27:31:19:
                    c4:1b:91:31:ee:a9:ee:97:6e:7d:b5:cb:24:71:86:
                    97:aa:5e:f4:fe:3c:e5:77:31:12:10:3a:a2:45:0b:
                    ec:12:74:a7:2d:5f:25:06:09:6e:f7:8e:a4:bc:de:
                    1b:68:90:a6:bb:e5:58:29:69:d6:09:c1:5b:24:5a:
                    f1:b3:df:f2:f8:6c:ef:15:fd:01:40:b3:b2:a0:f7:
                    41:2d:be:d1:4a:23:89:6c:aa:ae:4e:18:04:60:da:
                    0c:e3:76:ed:95:33:e6:fd:ae:6f:a1:8a:9d:8e:d2:
                    5c:ef:9d:48:b5:53:80:c1:64:ac:e6:b8:fe:4e:89:
                    71:9e:ba:e2:41:8e:8a:d0:77:20:6d:15:37:6c:79:
                    6b:e9:96:e9:7c:82:54:1c:fc:2e:b6:79:fc:dc:71:
                    5e:13:25:62:f5:84:0a:a9:12:a1:da:fc:ec:a4:af:
                    ec:75:38:ba:7f:b6:cd:a4:53:98:f5:b3:13:d5:3f:
                    e9:e3:c0:11:8c:fa:83:a3:86:b8:ce:57:3c:ec:c6:
                    1b:c9:05:27:9d:1f:47:2b:c9:3b:3b:50:c8:55:1b:
                    22:b2:93:21:7e:ba:8f:c2:4c:1f:42:22:d5:a0:ab:
                    2d:51:d7:68:63:3b:63:cd:68:10:c4:46:dc:ff:3b:
                    f3:e0:af:65:b2:4c:89:c5:1e:d6:a3:36:cb:2d:59:
                    fb:07:6b:46:97:50:74:13:a9:07:92:68:74:5e:f6:
                    ef:11:5a:3e:6b:60:0a:fc:52:89:cd:35:41:5e:1e:
                    11:af:f7:5a:7e:f9:7e:b2:65:02:aa:24:2c:ab:f8:
                    ed:d0:9a:76:1f:39:53:f2:48:e4:2e:a6:bd:93:7c:
                    f7:e0:da:8a:87:9d:5b:02:d6:26:87:80:a6:f0:cd:
                    b4:cd:d7
                Exponent: 65537 (0x10001)
        X509v3 extensions:
            X509v3 Basic Constraints: 
                CA:FALSE
            Netscape Comment: 
                VPN User Certificate
            Netscape Cert Type: 
                SSL Client
            X509v3 Key Usage: 
                Digital Signature
            X509v3 Extended Key Usage: 
                TLS Web Client Authentication
            X509v3 Subject Key Identifier: 
                74:20:A6:C1:54:F4:49:CE:0F:5E:D3:40:43:B1:29:8D:EA:E4:B3:08
            X509v3 Authority Key Identifier: 
                keyid:86:4F:B8:6D:18:2A:1B:3C:8F:27:34:29:F0:81:9F:BA:6E:61:0E:E1
                DirName:/C=CH/ST=Zug/L=Zug/O=Perfect Privacy/CN=Perfect Privacy/emailAddress=admin@perfect-privacy.com
                serial:FA:11:B5:C4:AA:69:AF:69

    Signature Algorithm: sha512WithRSAEncryption
         95:54:0c:26:18:ff:e9:b5:f1:cd:e7:4a:92:06:41:87:40:ba:
         b7:83:d0:91:b8:c5:fa:29:3a:7a:e9:51:e2:b3:d9:d2:02:ce:
         fb:9f:b8:ac:f6:61:c4:e4:60:bc:0f:44:73:95:9a:fd:f6:01:
         a2:6d:83:81:d7:26:73:11:a9:fa:b3:49:95:38:77:a0:ea:a2:
         53:e1:14:02:a8:67:7b:4e:f8:f5:d9:e5:c5:49:ea:9e:cb:bc:
         eb:d1:d9:26:d4:7c:8a:95:f3:80:7c:31:04:b8:b1:0f:d4:b5:
         db:d1:f3:f9:bf:f2:e2:ce:f2:ba:58:58:26:7a:e6:cc:41:e3:
         d6:b0:8d:38:0e:31:5c:1c:79:c9:ae:e0:c3:d9:10:c2:e0:a9:
         1c:63:25:2e:42:19:c1:01:5c:b0:8d:11:37:b0:c1:a5:56:ab:
         1a:69:af:34:1f:5b:fe:c5:c8:30:b4:fb:47:b9:1d:da:51:30:
         41:7a:84:97:d9:00:3a:b1:32:87:ee:0d:b8:bc:d1:76:fb:a8:
         98:23:5d:11:5f:4d:a9:09:f1:e6:4a:97:cc:c1:29:97:22:3f:
         1b:43:ad:67:ba:a9:b0:90:27:f6:c6:48:eb:9d:32:dc:30:6e:
         04:26:9f:f3:c4:52:f6:4f:79:2c:59:18:00:b6:5e:7b:46:3f:
         d1:e7:8a:8a:95:58:5f:d9:6b:a3:2c:30:a6:9b:ac:a1:91:36:
         69:ba:a6:01:e0:b7:f8:65:2b:07:53:6f:fe:6e:f3:52:ec:30:
         e1:78:f7:13:ae:84:b6:58:bc:4c:14:a8:f4:61:d1:02:f7:ce:
         48:aa:11:de:81:4b:46:53:1d:4f:a2:2f:7e:67:cf:99:e6:c6:
         cc:13:7a:5d:c0:53:3c:ba:ff:12:e1:68:53:fe:1e:30:33:23:
         e5:f0:02:c3:51:e5:7d:97:7c:3a:f1:33:9a:49:db:34:a8:03:
         b9:80:c3:13:1d:83:4d:4a:84:6a:f8:d8:d6:d3:28:0b:cc:0d:
         08:cf:0e:0b:dc:bb:ba:ce:4f:91:45:08:92:46:37:66:ce:53:
         e5:c6:a4:cf:2d:99:45:db:dc:85:56:f5:fc:90:59:a0:86:1b:
         6d:c9:14:9c:fb:09:dc:f8:43:be:56:7e:ec:94:85:ea:a3:ed:
         b4:b7:b7:f8:81:67:6d:10:3e:ed:4f:61:a0:ec:74:1b:9e:44:
         67:b8:1f:f6:20:c7:44:d8:2a:63:50:93:40:7b:ca:99:d0:f0:
         59:2f:56:48:ec:94:53:1a:6f:ef:6b:32:4e:35:20:6c:f9:bc:
         10:31:d6:f8:04:20:5c:00:5d:92:bc:2e:5f:da:3e:67:a9:d3:
         8c:65:c8:80:f5:91:e5:13
-----BEGIN CERTIFICATE-----
MIIG3TCCBMWgAwIBAgIIVTvYujEulNEwDQYJKoZIhvcNAQENBQAwgYcxCzAJBgNV
BAYTAkNIMQwwCgYDVQQIEwNadWcxDDAKBgNVBAcTA1p1ZzEYMBYGA1UEChMPUGVy
ZmVjdCBQcml2YWN5MRgwFgYDVQQDEw9QZXJmZWN0IFByaXZhY3kxKDAmBgkqhkiG
9w0BCQEWGWFkbWluQHBlcmZlY3QtcHJpdmFjeS5jb20wHhcNMjQwNjA2MDAwMDAw
WhcNMjYwMjAxMDAwMDAwWjCBiTELMAkGA1UEBhMCQ0gxDDAKBgNVBAgTA1p1ZzEY
MBYGA1UEChMPUGVyZmVjdCBQcml2YWN5MSgwJgYDVQQDFB9DbGllbnRfb3Nsby5w
ZXJmZWN0LXByaXZhY3kuY29tMSgwJgYJKoZIhvcNAQkBFhlhZG1pbkBwZXJmZWN0
LXByaXZhY3kuY29tMIICIjANBgkqhkiG9w0BAQEFAAOCAg8AMIICCgKCAgEAtyXR
9IxMPspIAxZZGsMwHyLQJsf7pDT9ChriyRPc8UXEVMWDQohNezhMAz89BkNoGsRM
JSwpQ6A//SSv26AVGEjdVSoU86/rmdYoEuFD9T28aqVJbnOZsPSGvVgrtY65jLzt
3un0noA8XzUV3TpNdMCc6MrA5l7BD4gD474uySLCo04NrMB3QzQktGuUoz8eLsE8
lmXmWRxmGTg2L/tinXeM1ARSK0FsiPeQhyaDQcAnMRnEG5Ex7qnul259tcskcYaX
ql70/jzldzESEDqiRQvsEnSnLV8lBglu946kvN4baJCmu+VYKWnWCcFbJFrxs9/y
+GzvFf0BQLOyoPdBLb7RSiOJbKquThgEYNoM43btlTPm/a5voYqdjtJc751ItVOA
wWSs5rj+TolxnrriQY6K0HcgbRU3bHlr6ZbpfIJUHPwutnn83HFeEyVi9YQKqRKh
2vzspK/sdTi6f7bNpFOY9bMT1T/p48ARjPqDo4a4zlc87MYbyQUnnR9HK8k7O1DI
VRsispMhfrqPwkwfQiLVoKstUddoYztjzWgQxEbc/zvz4K9lskyJxR7WozbLLVn7
B2tGl1B0E6kHkmh0XvbvEVo+a2AK/FKJzTVBXh4Rr/dafvl+smUCqiQsq/jt0Jp2
HzlT8kjkLqa9k3z34NqKh51bAtYmh4Cm8M20zdcCAwEAAaOCAUcwggFDMAkGA1Ud
EwQCMAAwIwYJYIZIAYb4QgENBBYWFFZQTiBVc2VyIENlcnRpZmljYXRlMBEGCWCG
SAGG+EIBAQQEAwIHgDALBgNVHQ8EBAMCB4AwEwYDVR0lBAwwCgYIKwYBBQUHAwIw
HQYDVR0OBBYEFHQgpsFU9EnOD17TQEOxKY3q5LMIMIG8BgNVHSMEgbQwgbGAFIZP
uG0YKhs8jyc0KfCBn7puYQ7hoYGNpIGKMIGHMQswCQYDVQQGEwJDSDEMMAoGA1UE
CBMDWnVnMQwwCgYDVQQHEwNadWcxGDAWBgNVBAoTD1BlcmZlY3QgUHJpdmFjeTEY
MBYGA1UEAxMPUGVyZmVjdCBQcml2YWN5MSgwJgYJKoZIhvcNAQkBFhlhZG1pbkBw
ZXJmZWN0LXByaXZhY3kuY29tggkA+hG1xKppr2kwDQYJKoZIhvcNAQENBQADggIB
AJVUDCYY/+m18c3nSpIGQYdAureD0JG4xfopOnrpUeKz2dICzvufuKz2YcTkYLwP
RHOVmv32AaJtg4HXJnMRqfqzSZU4d6DqolPhFAKoZ3tO+PXZ5cVJ6p7LvOvR2SbU
fIqV84B8MQS4sQ/UtdvR8/m/8uLO8rpYWCZ65sxB49awjTgOMVwcecmu4MPZEMLg
qRxjJS5CGcEBXLCNETewwaVWqxpprzQfW/7FyDC0+0e5HdpRMEF6hJfZADqxMofu
Dbi80Xb7qJgjXRFfTakJ8eZKl8zBKZciPxtDrWe6qbCQJ/bGSOudMtwwbgQmn/PE
UvZPeSxZGAC2XntGP9HnioqVWF/Za6MsMKabrKGRNmm6pgHgt/hlKwdTb/5u81Ls
MOF49xOuhLZYvEwUqPRh0QL3zkiqEd6BS0ZTHU+iL35nz5nmxswTel3AUzy6/xLh
aFP+HjAzI+XwAsNR5X2XfDrxM5pJ2zSoA7mAwxMdg01KhGr42NbTKAvMDQjPDgvc
u7rOT5FFCJJGN2bOU+XGpM8tmUXb3IVW9fyQWaCGG23JFJz7Cdz4Q75WfuyUheqj
7bS3t/iBZ20QPu1PYaDsdBueRGe4H/Ygx0TYKmNQk0B7ypnQ8FkvVkjslFMab+9r
Mk41IGz5vBAx1vgEIFwAXZK8Ll/aPmep04xlyID1keUT
-----END CERTIFICATE-----
