Certificate:
    Data:
        Version: 3 (0x2)
        Serial Number: 7560213722883074874 (0x68eb4653427aab3a)
    Signature Algorithm: sha512WithRSAEncryption
        Issuer: C=CH, ST=Zug, L=Zug, O=Perfect Privacy, CN=Perfect Privacy/emailAddress=admin@perfect-privacy.com
        Validity
            Not Before: Jul 29 00:00:00 2023 GMT
            Not After : Mar 25 00:00:00 2025 GMT
        Subject: C=CH, ST=Zug, O=Perfect Privacy, CN=Client_oslo.perfect-privacy.com/emailAddress=admin@perfect-privacy.com
        Subject Public Key Info:
            Public Key Algorithm: rsaEncryption
                Public-Key: (4096 bit)
                Modulus:
                    00:b7:52:a1:4b:75:4f:75:58:6d:64:c1:02:79:fd:
                    23:b6:d4:f7:3e:71:49:27:6a:51:82:c9:5f:e2:93:
                    50:d3:c6:af:66:75:c4:cf:44:3d:bc:17:3f:6b:80:
                    9b:74:e1:5c:94:e8:8e:4f:56:ed:8a:b7:e0:ad:03:
                    bd:ff:36:59:47:ea:12:21:20:39:b0:86:51:c5:db:
                    7c:1e:ae:6e:75:77:b4:f6:75:ea:47:c8:7b:08:fe:
                    cf:79:0a:02:42:4b:48:5c:bf:29:7b:bf:92:7e:3c:
                    20:39:06:3d:44:97:40:45:a4:74:79:16:1f:bf:ad:
                    14:c8:b6:8c:7a:05:a9:13:3a:af:7d:71:f1:b0:f3:
                    70:7c:1d:67:d3:dc:1b:6f:35:42:6b:7f:2a:4f:8b:
                    44:89:93:3b:06:61:4f:6d:72:98:d9:b6:30:90:8f:
                    75:b4:3f:25:ed:f7:ce:4e:7c:e5:c5:f4:af:41:a6:
                    2b:36:6f:fa:b0:ee:bb:c1:1d:87:ce:ca:59:73:95:
                    17:1d:06:3b:71:ba:48:4c:95:80:98:15:2a:7a:91:
                    09:78:aa:b8:89:c0:2d:cb:d8:b1:05:9b:e4:f0:70:
                    4c:b5:a6:57:ae:0f:bc:f8:5c:92:39:40:77:0a:a1:
                    18:2a:fa:81:3d:94:1e:42:a4:30:5a:a2:22:07:2a:
                    99:4c:77:72:2d:f5:d7:3a:0f:24:b5:1d:7b:f3:dd:
                    b8:ed:5c:32:15:b0:0f:e2:b0:e5:96:00:16:51:0b:
                    f1:6d:e3:f1:13:b8:cc:4f:51:d7:f6:46:88:59:ce:
                    aa:96:32:4f:47:82:83:9c:30:55:07:61:f9:8b:ed:
                    06:32:a2:a4:68:0d:b5:45:b7:e7:96:0f:28:b5:f2:
                    66:39:df:b5:18:32:9e:03:51:18:12:3e:e1:b3:f7:
                    5f:6f:3b:e1:ab:11:85:26:0c:37:ec:0f:3c:1d:20:
                    74:d5:5a:5f:20:42:26:36:15:c0:d5:0e:61:85:b5:
                    8c:81:0b:54:d9:2a:ce:dc:80:98:4c:10:4a:77:8a:
                    fa:9f:9d:1e:6d:3f:9f:0b:bf:89:73:34:3c:b0:04:
                    40:c1:3d:47:11:10:09:07:11:44:c5:d0:a9:67:5c:
                    01:c2:6f:c2:66:89:dd:2f:46:ab:69:1c:b4:09:09:
                    3c:77:62:9c:2d:3f:5d:e8:e0:48:7d:53:5f:00:01:
                    40:8d:5f:6b:12:33:87:d7:2f:eb:e6:63:1a:88:f3:
                    f5:ee:22:78:dc:89:94:77:8b:ba:13:7f:3f:ac:70:
                    fa:b4:89:46:f6:07:f5:2f:f0:4b:ab:5c:ef:69:4d:
                    42:a5:e2:b1:bd:da:ea:98:f5:0a:c1:2a:2c:21:93:
                    9f:d5:f3
                Exponent: 65537 (0x10001)
        X509v3 extensions:
            X509v3 Basic Constraints: 
                CA:FALSE
            Netscape Comment: 
                VPN User Certificate
            Netscape Cert Type: 
                SSL Client
            X509v3 Key Usage: 
                Digital Signature
            X509v3 Extended Key Usage: 
                TLS Web Client Authentication
            X509v3 Subject Key Identifier: 
                D6:FC:96:80:9A:2E:EE:D5:66:C7:63:7A:10:B4:BE:56:C5:7D:D8:E7
            X509v3 Authority Key Identifier: 
                keyid:86:4F:B8:6D:18:2A:1B:3C:8F:27:34:29:F0:81:9F:BA:6E:61:0E:E1
                DirName:/C=CH/ST=Zug/L=Zug/O=Perfect Privacy/CN=Perfect Privacy/emailAddress=admin@perfect-privacy.com
                serial:FA:11:B5:C4:AA:69:AF:69

    Signature Algorithm: sha512WithRSAEncryption
         99:27:7f:77:b9:f8:c6:60:53:c1:80:fa:e8:6a:86:26:18:37:
         c9:49:79:1b:fd:8c:e9:fe:b4:7f:a5:bc:7b:e2:e8:be:48:d1:
         3d:aa:7d:aa:24:87:8e:63:58:b2:45:c6:23:1c:05:aa:5e:ba:
         ae:3f:02:de:6e:c0:43:4f:6a:0a:34:e5:b5:a7:9f:f7:f0:b8:
         da:06:f4:18:4c:ba:2c:d9:96:c5:cb:47:bb:bc:c0:45:4d:0c:
         97:2a:7f:bf:bc:f0:f4:34:17:74:da:91:88:c0:cf:34:0c:af:
         a7:1d:45:2a:93:e5:f4:14:6f:91:3b:ee:8b:00:17:1c:47:87:
         0a:1b:eb:16:96:05:d7:0e:73:9d:c3:14:cf:cd:9e:0d:8f:f0:
         5e:30:2a:9e:0b:94:68:da:1e:51:b7:66:34:59:86:fe:e1:43:
         2b:80:00:1a:a1:32:ac:8b:1e:00:4f:e3:ad:72:05:dc:e6:91:
         49:29:54:db:95:6f:c8:23:2c:b3:a5:90:b7:fb:3c:3c:b7:e9:
         2e:6c:26:24:67:85:3e:d1:f7:fc:61:49:35:1f:2d:9c:6c:9d:
         bc:0c:69:67:82:c5:19:31:9b:5e:6c:91:51:50:db:d7:e6:dd:
         0c:49:15:8b:53:b2:ef:d8:9d:d5:2d:f9:2f:21:f0:01:3c:b3:
         6a:bb:96:9b:e6:c0:d6:09:40:8c:77:c4:cf:d8:c2:2e:05:d2:
         db:3a:09:c4:f7:c0:39:8f:de:ce:99:47:a4:da:b4:1e:c9:da:
         53:36:df:2b:99:75:95:2e:fe:59:68:29:3a:a9:42:dc:a5:06:
         2b:d1:b0:38:66:d3:28:00:34:91:52:be:eb:ed:0a:72:9a:d6:
         91:45:6b:86:58:02:68:10:60:a7:e8:e6:3e:0f:24:07:23:b1:
         d1:fe:9d:5e:3b:f0:e6:f2:1d:3e:23:44:1c:15:23:75:f8:60:
         ad:9e:e4:b0:ae:f9:9b:37:9c:9b:39:30:59:ce:c8:33:35:16:
         df:da:9b:f9:eb:08:c9:63:ab:7d:de:18:81:67:b1:8d:82:7a:
         6f:c9:a7:55:e5:a9:79:13:54:e7:57:18:3c:17:31:15:7b:03:
         d9:00:e6:aa:90:ed:eb:7a:1c:c8:02:5f:87:c1:30:4b:0f:78:
         9e:9f:a7:2c:5e:78:2a:73:62:cf:00:8a:2c:90:fc:f0:7c:51:
         66:94:61:45:a9:9f:07:d3:5e:2a:31:28:ba:f9:cb:82:2c:19:
         db:6c:2a:6c:73:5e:10:ba:7a:51:3e:0b:1b:c0:4b:4a:5f:3a:
         9d:c7:ee:68:90:5e:c1:aa:6f:b2:05:67:49:f3:fd:a4:45:ac:
         83:10:4e:a0:82:23:2d:d4
-----BEGIN CERTIFICATE-----
MIIG3TCCBMWgAwIBAgIIaOtGU0J6qzowDQYJKoZIhvcNAQENBQAwgYcxCzAJBgNV
BAYTAkNIMQwwCgYDVQQIEwNadWcxDDAKBgNVBAcTA1p1ZzEYMBYGA1UEChMPUGVy
ZmVjdCBQcml2YWN5MRgwFgYDVQQDEw9QZXJmZWN0IFByaXZhY3kxKDAmBgkqhkiG
9w0BCQEWGWFkbWluQHBlcmZlY3QtcHJpdmFjeS5jb20wHhcNMjMwNzI5MDAwMDAw
WhcNMjUwMzI1MDAwMDAwWjCBiTELMAkGA1UEBhMCQ0gxDDAKBgNVBAgTA1p1ZzEY
MBYGA1UEChMPUGVyZmVjdCBQcml2YWN5MSgwJgYDVQQDFB9DbGllbnRfb3Nsby5w
ZXJmZWN0LXByaXZhY3kuY29tMSgwJgYJKoZIhvcNAQkBFhlhZG1pbkBwZXJmZWN0
LXByaXZhY3kuY29tMIICIjANBgkqhkiG9w0BAQEFAAOCAg8AMIICCgKCAgEAt1Kh
S3VPdVhtZMECef0jttT3PnFJJ2pRgslf4pNQ08avZnXEz0Q9vBc/a4CbdOFclOiO
T1btirfgrQO9/zZZR+oSISA5sIZRxdt8Hq5udXe09nXqR8h7CP7PeQoCQktIXL8p
e7+SfjwgOQY9RJdARaR0eRYfv60UyLaMegWpEzqvfXHxsPNwfB1n09wbbzVCa38q
T4tEiZM7BmFPbXKY2bYwkI91tD8l7ffOTnzlxfSvQaYrNm/6sO67wR2HzspZc5UX
HQY7cbpITJWAmBUqepEJeKq4icAty9ixBZvk8HBMtaZXrg+8+FySOUB3CqEYKvqB
PZQeQqQwWqIiByqZTHdyLfXXOg8ktR1789247VwyFbAP4rDllgAWUQvxbePxE7jM
T1HX9kaIWc6qljJPR4KDnDBVB2H5i+0GMqKkaA21Rbfnlg8otfJmOd+1GDKeA1EY
Ej7hs/dfbzvhqxGFJgw37A88HSB01VpfIEImNhXA1Q5hhbWMgQtU2SrO3ICYTBBK
d4r6n50ebT+fC7+JczQ8sARAwT1HERAJBxFExdCpZ1wBwm/CZondL0araRy0CQk8
d2KcLT9d6OBIfVNfAAFAjV9rEjOH1y/r5mMaiPP17iJ43ImUd4u6E38/rHD6tIlG
9gf1L/BLq1zvaU1CpeKxvdrqmPUKwSosIZOf1fMCAwEAAaOCAUcwggFDMAkGA1Ud
EwQCMAAwIwYJYIZIAYb4QgENBBYWFFZQTiBVc2VyIENlcnRpZmljYXRlMBEGCWCG
SAGG+EIBAQQEAwIHgDALBgNVHQ8EBAMCB4AwEwYDVR0lBAwwCgYIKwYBBQUHAwIw
HQYDVR0OBBYEFNb8loCaLu7VZsdjehC0vlbFfdjnMIG8BgNVHSMEgbQwgbGAFIZP
uG0YKhs8jyc0KfCBn7puYQ7hoYGNpIGKMIGHMQswCQYDVQQGEwJDSDEMMAoGA1UE
CBMDWnVnMQwwCgYDVQQHEwNadWcxGDAWBgNVBAoTD1BlcmZlY3QgUHJpdmFjeTEY
MBYGA1UEAxMPUGVyZmVjdCBQcml2YWN5MSgwJgYJKoZIhvcNAQkBFhlhZG1pbkBw
ZXJmZWN0LXByaXZhY3kuY29tggkA+hG1xKppr2kwDQYJKoZIhvcNAQENBQADggIB
AJknf3e5+MZgU8GA+uhqhiYYN8lJeRv9jOn+tH+lvHvi6L5I0T2qfaokh45jWLJF
xiMcBapeuq4/At5uwENPago05bWnn/fwuNoG9BhMuizZlsXLR7u8wEVNDJcqf7+8
8PQ0F3TakYjAzzQMr6cdRSqT5fQUb5E77osAFxxHhwob6xaWBdcOc53DFM/Nng2P
8F4wKp4LlGjaHlG3ZjRZhv7hQyuAABqhMqyLHgBP461yBdzmkUkpVNuVb8gjLLOl
kLf7PDy36S5sJiRnhT7R9/xhSTUfLZxsnbwMaWeCxRkxm15skVFQ29fm3QxJFYtT
su/YndUt+S8h8AE8s2q7lpvmwNYJQIx3xM/Ywi4F0ts6CcT3wDmP3s6ZR6TatB7J
2lM23yuZdZUu/lloKTqpQtylBivRsDhm0ygANJFSvuvtCnKa1pFFa4ZYAmgQYKfo
5j4PJAcjsdH+nV478ObyHT4jRBwVI3X4YK2e5LCu+Zs3nJs5MFnOyDM1Ft/am/nr
CMljq33eGIFnsY2Cem/Jp1XlqXkTVOdXGDwXMRV7A9kA5qqQ7et6HMgCX4fBMEsP
eJ6fpyxeeCpzYs8AiiyQ/PB8UWaUYUWpnwfTXioxKLr5y4IsGdtsKmxzXhC6elE+
CxvAS0pfOp3H7miQXsGqb7IFZ0nz/aRFrIMQTqCCIy3U
-----END CERTIFICATE-----
