Certificate:
    Data:
        Version: 3 (0x2)
        Serial Number: 2342999284578818473 (0x2084016f825099a9)
    Signature Algorithm: sha512WithRSAEncryption
        Issuer: C=CH, ST=Zug, L=Zug, O=Perfect Privacy, CN=Perfect Privacy/emailAddress=admin@perfect-privacy.com
        Validity
            Not Before: Jun 25 00:00:00 2023 GMT
            Not After : Feb 19 00:00:00 2025 GMT
        Subject: C=CH, ST=Zug, O=Perfect Privacy, CN=Client_paris.perfect-privacy.com/emailAddress=admin@perfect-privacy.com
        Subject Public Key Info:
            Public Key Algorithm: rsaEncryption
                Public-Key: (4096 bit)
                Modulus:
                    00:a7:19:30:5d:99:f0:10:fe:d1:cb:22:6a:67:4d:
                    f8:5f:f0:93:4b:f2:ab:f6:e9:71:4c:cf:b7:85:2b:
                    b0:d2:07:ea:e0:93:e8:ef:54:a0:d8:b6:6e:09:f7:
                    3a:06:08:28:16:51:92:5d:14:0c:29:6a:c2:f9:f4:
                    72:c5:5a:e5:ae:3a:91:94:8e:9e:7d:4b:6c:16:c5:
                    22:6c:f3:9d:8c:09:fc:d4:db:8a:61:91:99:0f:3e:
                    12:5c:13:24:02:b9:22:56:76:70:c8:37:fc:13:92:
                    29:f7:37:54:08:c7:4a:15:52:de:f0:00:52:ca:bc:
                    64:bd:d9:5d:28:10:e2:34:12:23:ac:7a:02:4e:98:
                    ce:b2:78:ad:0c:29:56:96:95:6c:21:5d:a6:ca:1e:
                    b6:d8:88:f8:fb:c3:2b:4e:c7:9a:c7:bd:6c:8c:41:
                    6f:4a:9c:15:36:5f:65:a1:c9:7c:64:b5:d8:fb:43:
                    4a:a4:24:21:5b:fe:ac:1e:6e:72:4f:28:3c:13:f0:
                    bf:35:13:8b:e5:72:0c:0a:01:7e:4e:a6:8d:1c:26:
                    55:67:94:a1:5e:23:f9:65:b5:c6:68:9f:76:26:0c:
                    7d:10:08:02:8b:cc:c9:af:b3:62:8a:8d:d8:70:48:
                    5c:e1:53:6e:d8:1e:a2:f3:2e:77:bc:6d:c7:06:03:
                    08:93:a8:8c:03:38:d7:20:2f:c6:62:f2:8e:fa:b4:
                    01:60:37:82:b4:26:7e:f3:26:d4:0d:57:7c:95:64:
                    c5:bb:60:41:37:34:b0:ef:16:13:69:3a:9f:5a:c4:
                    d0:31:0f:22:d1:f2:75:23:20:ce:47:eb:63:4a:84:
                    46:9f:84:c7:87:f8:4d:db:cb:2b:b5:48:15:98:e4:
                    53:69:7b:4c:d4:78:73:fd:f7:34:e4:ce:99:ab:40:
                    71:2c:be:46:b6:55:63:1c:67:81:2d:f9:3e:23:12:
                    4c:ae:d3:3b:9b:dd:00:09:6d:05:9b:0f:f6:e9:ec:
                    3c:dc:2d:d6:4e:78:fd:39:d8:85:43:79:47:0a:5d:
                    e7:bb:01:55:1d:bc:45:25:19:61:12:c2:ee:53:70:
                    69:f1:f5:82:0e:43:e4:17:0e:6d:b3:82:4e:ad:4b:
                    06:fa:4f:c2:7c:d7:0b:af:bf:16:e6:27:59:69:64:
                    3b:fe:93:be:d6:21:8d:7f:91:fc:e3:ff:1a:b3:b6:
                    88:9e:7c:d7:89:38:2e:8e:ad:50:d6:a5:5a:18:3f:
                    3d:5f:e2:ee:00:af:f4:87:a8:9a:86:c7:99:f7:5e:
                    dd:e3:93:28:60:63:ee:31:51:c6:7f:6c:53:9c:35:
                    b1:3e:10:63:5c:f5:63:d4:4e:a9:4f:2c:8b:38:0e:
                    f6:21:ff
                Exponent: 65537 (0x10001)
        X509v3 extensions:
            X509v3 Basic Constraints: 
                CA:FALSE
            Netscape Comment: 
                VPN User Certificate
            Netscape Cert Type: 
                SSL Client
            X509v3 Key Usage: 
                Digital Signature
            X509v3 Extended Key Usage: 
                TLS Web Client Authentication
            X509v3 Subject Key Identifier: 
                D3:B4:97:A8:FE:1E:B6:F5:EC:B9:9E:AE:66:24:76:58:AA:A6:24:22
            X509v3 Authority Key Identifier: 
                keyid:86:4F:B8:6D:18:2A:1B:3C:8F:27:34:29:F0:81:9F:BA:6E:61:0E:E1
                DirName:/C=CH/ST=Zug/L=Zug/O=Perfect Privacy/CN=Perfect Privacy/emailAddress=admin@perfect-privacy.com
                serial:FA:11:B5:C4:AA:69:AF:69

    Signature Algorithm: sha512WithRSAEncryption
         25:64:52:22:9a:a3:6e:aa:cb:f2:20:1b:71:8f:45:55:e5:2b:
         a2:d9:2e:bf:00:a7:d2:d0:78:5b:0e:83:b1:76:55:32:ae:79:
         1f:7d:82:b8:c0:a9:ba:96:06:26:35:13:8e:c4:cb:08:14:0c:
         c3:24:5c:36:75:f8:b5:28:4e:e2:47:bd:5a:34:df:55:b8:0c:
         74:b6:4b:2b:52:71:fd:03:46:99:5d:97:21:f5:ba:b4:98:d5:
         9f:de:81:38:6a:4d:f2:01:a2:48:90:81:6e:70:29:05:e3:e7:
         b6:78:50:33:7f:59:63:27:16:12:41:61:8d:83:b9:87:af:b1:
         7d:35:12:80:28:e6:e7:a0:00:b7:99:af:0a:b9:0e:da:50:bc:
         42:1f:37:63:d8:b6:c1:8f:a1:fe:cd:cb:aa:dc:5b:c5:08:01:
         a2:42:bb:12:b7:fb:32:e0:60:f5:d6:cd:24:52:5b:85:ba:12:
         df:dd:73:11:a3:35:38:7a:cf:ab:99:f7:4d:36:85:de:ee:ea:
         3a:d6:c8:bd:1c:99:a3:72:f6:bd:25:55:46:68:1d:24:0e:72:
         2d:fe:0b:69:86:5d:86:03:a3:e6:cc:a8:4a:a7:49:ce:4a:13:
         65:e5:87:f3:39:bd:f4:9d:c6:41:a4:e9:18:bb:2b:99:45:7d:
         1a:54:0b:40:c8:09:bd:0e:6a:47:10:c6:5f:2c:5f:ab:78:b2:
         19:a2:d7:15:7d:c5:a3:17:d7:22:d9:17:a5:61:2e:8d:4e:6e:
         a2:4f:27:f5:41:8d:32:de:d9:d8:ba:ce:0a:52:50:0f:3d:e2:
         bf:70:88:fa:77:4a:cf:3f:2a:b4:f4:84:e0:0e:72:2a:eb:2f:
         e8:e6:02:63:67:f2:98:08:94:3b:40:b2:7d:3d:93:f1:49:19:
         a2:fc:6a:98:ed:6a:2e:b2:01:46:8f:72:71:dc:b8:25:c3:66:
         1b:55:31:fe:7e:ef:ea:93:4e:80:ed:06:50:66:6c:50:13:61:
         36:de:8a:b4:52:5c:ad:72:d6:1b:c8:17:db:4a:4c:96:df:c5:
         06:b3:ad:28:40:55:10:ed:74:77:49:a8:ce:d7:6c:b1:c4:d0:
         d3:6b:ec:45:ba:53:06:31:8a:58:31:41:34:82:87:fd:a8:46:
         2a:67:25:5b:93:10:9c:f5:3a:75:e1:8b:98:6e:4b:2e:ca:bd:
         e9:44:48:04:1b:d0:63:e3:e3:80:1b:e8:48:d0:79:4d:0f:0f:
         2c:ca:f5:c8:55:e1:8e:21:54:a5:3d:4a:53:91:89:91:03:38:
         ea:04:f0:83:60:68:f9:17:32:42:9c:b3:ce:60:57:28:f9:ea:
         de:8d:ce:ac:b2:69:44:27
-----BEGIN CERTIFICATE-----
MIIG3jCCBMagAwIBAgIIIIQBb4JQmakwDQYJKoZIhvcNAQENBQAwgYcxCzAJBgNV
BAYTAkNIMQwwCgYDVQQIEwNadWcxDDAKBgNVBAcTA1p1ZzEYMBYGA1UEChMPUGVy
ZmVjdCBQcml2YWN5MRgwFgYDVQQDEw9QZXJmZWN0IFByaXZhY3kxKDAmBgkqhkiG
9w0BCQEWGWFkbWluQHBlcmZlY3QtcHJpdmFjeS5jb20wHhcNMjMwNjI1MDAwMDAw
WhcNMjUwMjE5MDAwMDAwWjCBijELMAkGA1UEBhMCQ0gxDDAKBgNVBAgTA1p1ZzEY
MBYGA1UEChMPUGVyZmVjdCBQcml2YWN5MSkwJwYDVQQDFCBDbGllbnRfcGFyaXMu
cGVyZmVjdC1wcml2YWN5LmNvbTEoMCYGCSqGSIb3DQEJARYZYWRtaW5AcGVyZmVj
dC1wcml2YWN5LmNvbTCCAiIwDQYJKoZIhvcNAQEBBQADggIPADCCAgoCggIBAKcZ
MF2Z8BD+0csiamdN+F/wk0vyq/bpcUzPt4UrsNIH6uCT6O9UoNi2bgn3OgYIKBZR
kl0UDClqwvn0csVa5a46kZSOnn1LbBbFImzznYwJ/NTbimGRmQ8+ElwTJAK5IlZ2
cMg3/BOSKfc3VAjHShVS3vAAUsq8ZL3ZXSgQ4jQSI6x6Ak6YzrJ4rQwpVpaVbCFd
psoettiI+PvDK07Hmse9bIxBb0qcFTZfZaHJfGS12PtDSqQkIVv+rB5uck8oPBPw
vzUTi+VyDAoBfk6mjRwmVWeUoV4j+WW1xmifdiYMfRAIAovMya+zYoqN2HBIXOFT
btgeovMud7xtxwYDCJOojAM41yAvxmLyjvq0AWA3grQmfvMm1A1XfJVkxbtgQTc0
sO8WE2k6n1rE0DEPItHydSMgzkfrY0qERp+Ex4f4TdvLK7VIFZjkU2l7TNR4c/33
NOTOmatAcSy+RrZVYxxngS35PiMSTK7TO5vdAAltBZsP9unsPNwt1k54/TnYhUN5
Rwpd57sBVR28RSUZYRLC7lNwafH1gg5D5BcObbOCTq1LBvpPwnzXC6+/FuYnWWlk
O/6TvtYhjX+R/OP/GrO2iJ5814k4Lo6tUNalWhg/PV/i7gCv9IeomobHmfde3eOT
KGBj7jFRxn9sU5w1sT4QY1z1Y9ROqU8sizgO9iH/AgMBAAGjggFHMIIBQzAJBgNV
HRMEAjAAMCMGCWCGSAGG+EIBDQQWFhRWUE4gVXNlciBDZXJ0aWZpY2F0ZTARBglg
hkgBhvhCAQEEBAMCB4AwCwYDVR0PBAQDAgeAMBMGA1UdJQQMMAoGCCsGAQUFBwMC
MB0GA1UdDgQWBBTTtJeo/h629ey5nq5mJHZYqqYkIjCBvAYDVR0jBIG0MIGxgBSG
T7htGCobPI8nNCnwgZ+6bmEO4aGBjaSBijCBhzELMAkGA1UEBhMCQ0gxDDAKBgNV
BAgTA1p1ZzEMMAoGA1UEBxMDWnVnMRgwFgYDVQQKEw9QZXJmZWN0IFByaXZhY3kx
GDAWBgNVBAMTD1BlcmZlY3QgUHJpdmFjeTEoMCYGCSqGSIb3DQEJARYZYWRtaW5A
cGVyZmVjdC1wcml2YWN5LmNvbYIJAPoRtcSqaa9pMA0GCSqGSIb3DQEBDQUAA4IC
AQAlZFIimqNuqsvyIBtxj0VV5Sui2S6/AKfS0HhbDoOxdlUyrnkffYK4wKm6lgYm
NROOxMsIFAzDJFw2dfi1KE7iR71aNN9VuAx0tksrUnH9A0aZXZch9bq0mNWf3oE4
ak3yAaJIkIFucCkF4+e2eFAzf1ljJxYSQWGNg7mHr7F9NRKAKObnoAC3ma8KuQ7a
ULxCHzdj2LbBj6H+zcuq3FvFCAGiQrsSt/sy4GD11s0kUluFuhLf3XMRozU4es+r
mfdNNoXe7uo61si9HJmjcva9JVVGaB0kDnIt/gtphl2GA6PmzKhKp0nOShNl5Yfz
Ob30ncZBpOkYuyuZRX0aVAtAyAm9DmpHEMZfLF+reLIZotcVfcWjF9ci2RelYS6N
Tm6iTyf1QY0y3tnYus4KUlAPPeK/cIj6d0rPPyq09ITgDnIq6y/o5gJjZ/KYCJQ7
QLJ9PZPxSRmi/GqY7WousgFGj3Jx3Lglw2YbVTH+fu/qk06A7QZQZmxQE2E23oq0
UlytctYbyBfbSkyW38UGs60oQFUQ7XR3SajO12yxxNDTa+xFulMGMYpYMUE0gof9
qEYqZyVbkxCc9Tp14YuYbksuyr3pREgEG9Bj4+OAG+hI0HlNDw8syvXIVeGOIVSl
PUpTkYmRAzjqBPCDYGj5FzJCnLPOYFco+erejc6ssmlEJw==
-----END CERTIFICATE-----
