Certificate:
    Data:
        Version: 3 (0x2)
        Serial Number: 2953229618085201474 (0x28fbfab0d6218642)
    Signature Algorithm: sha512WithRSAEncryption
        Issuer: C=CH, ST=Zug, L=Zug, O=Perfect Privacy, CN=Perfect Privacy/emailAddress=admin@perfect-privacy.com
        Validity
            Not Before: Jun 21 00:00:00 2024 GMT
            Not After : Feb 16 00:00:00 2026 GMT
        Subject: C=CH, ST=Zug, O=Perfect Privacy, CN=Client_prague.perfect-privacy.com/emailAddress=admin@perfect-privacy.com
        Subject Public Key Info:
            Public Key Algorithm: rsaEncryption
                Public-Key: (4096 bit)
                Modulus:
                    00:f2:4c:83:0a:92:68:59:a1:0f:61:ae:c3:f0:54:
                    f6:e4:7c:8d:03:a2:dd:02:7d:d9:ea:4c:b8:b5:92:
                    69:c8:ea:d5:cf:a3:6a:8a:c1:e8:7f:1e:f3:f4:a5:
                    ee:a0:90:ce:60:76:dd:00:ba:4f:50:cc:e8:4a:16:
                    6c:a9:a0:d4:c3:b5:5d:5f:d5:5e:6f:0c:c8:ae:20:
                    43:bf:3a:f3:a6:86:a0:41:ba:48:00:8b:42:16:5f:
                    55:5c:7e:37:64:73:a0:ee:5f:e6:02:68:a1:a9:24:
                    cc:79:fa:90:1c:e8:6c:90:65:6e:eb:55:95:88:29:
                    02:cc:30:4a:ca:ef:eb:7f:e9:42:49:e7:ce:48:19:
                    f3:2e:36:c0:11:aa:f4:46:65:57:ef:80:ce:e7:f1:
                    81:51:3b:02:96:e7:1d:28:c8:b0:0f:3f:30:40:3d:
                    35:33:6a:ea:c6:29:e3:b4:7b:4a:81:91:9a:ba:89:
                    99:34:b3:a8:d2:42:aa:4e:8e:69:b4:61:a4:f2:9f:
                    74:6a:05:0f:1d:8a:04:d3:75:d1:b8:cb:aa:a8:df:
                    60:b9:9a:6f:d9:4f:90:8d:e6:87:84:b4:e1:74:f8:
                    ef:fb:7e:d6:d5:0e:35:ad:c1:a0:e7:eb:24:44:23:
                    2a:27:f2:ad:75:39:f4:d4:03:20:a7:7c:32:3d:9d:
                    b5:2b:e0:3c:70:a4:76:25:4e:43:48:3f:48:ec:98:
                    8f:ae:c7:b3:6f:73:9b:25:3a:93:b2:f1:82:28:68:
                    86:a2:33:d1:39:ee:dc:33:86:da:04:dc:4f:f4:11:
                    60:cd:61:83:ba:ca:f6:08:fe:3c:97:ef:0f:41:84:
                    19:43:4c:74:8b:8f:58:ca:36:f8:0f:e4:0b:5f:bb:
                    9c:92:75:e6:b9:89:e4:30:39:e0:4e:2d:d5:78:a3:
                    53:3b:43:72:49:29:c2:b9:57:97:49:3c:fd:cb:00:
                    5a:7f:c9:45:bf:e1:9b:a1:b7:c2:aa:95:8b:c8:31:
                    f7:85:cb:de:04:b6:c3:e5:1d:fd:8c:61:f2:70:8a:
                    93:fc:ff:48:03:1d:e5:59:c5:b0:a1:1d:eb:79:28:
                    61:b4:04:c0:96:29:32:bf:45:95:45:bc:78:14:f2:
                    ad:b2:67:fa:37:3d:5b:43:f3:75:e5:c2:f8:13:d5:
                    18:b1:93:9a:3f:54:b5:82:c8:f1:dc:9a:b2:25:ab:
                    c3:5e:b3:df:38:ab:7b:25:12:13:56:e7:10:66:9a:
                    50:69:71:da:48:08:99:e0:a6:87:fd:f5:6e:59:34:
                    a9:0e:6e:70:dd:a6:cf:3b:4b:e0:41:bb:53:21:ec:
                    13:45:08:75:3a:8f:7f:8c:16:99:12:0c:5e:25:79:
                    b8:db:af
                Exponent: 65537 (0x10001)
        X509v3 extensions:
            X509v3 Basic Constraints: 
                CA:FALSE
            Netscape Comment: 
                VPN User Certificate
            Netscape Cert Type: 
                SSL Client
            X509v3 Key Usage: 
                Digital Signature
            X509v3 Extended Key Usage: 
                TLS Web Client Authentication
            X509v3 Subject Key Identifier: 
                37:94:B4:DB:18:D4:D3:78:0C:BE:8B:9C:9B:AF:07:8E:BB:09:02:01
            X509v3 Authority Key Identifier: 
                keyid:86:4F:B8:6D:18:2A:1B:3C:8F:27:34:29:F0:81:9F:BA:6E:61:0E:E1
                DirName:/C=CH/ST=Zug/L=Zug/O=Perfect Privacy/CN=Perfect Privacy/emailAddress=admin@perfect-privacy.com
                serial:FA:11:B5:C4:AA:69:AF:69

    Signature Algorithm: sha512WithRSAEncryption
         19:ae:7f:92:88:f3:9f:f4:62:2b:fe:fa:e4:53:1a:29:da:0b:
         c1:fb:00:cf:39:7b:17:ac:e2:cb:8e:ec:2e:c3:90:b8:61:3c:
         af:8a:0f:3a:b9:d9:54:59:30:e7:b8:39:38:75:3f:46:6c:5a:
         95:6e:3b:69:c9:69:de:5b:11:b9:5a:aa:41:fd:4e:3f:39:18:
         d8:52:a0:53:50:d9:0a:48:4a:2e:91:fc:3e:6e:bc:27:ca:d1:
         0e:ce:a8:5d:44:3e:66:c6:bc:0c:17:81:e2:67:e5:3d:77:86:
         2c:98:c5:58:26:02:0e:c2:e0:40:01:4d:66:ae:5e:f6:16:63:
         19:01:43:d9:7d:ee:76:33:bf:85:c1:e0:e8:d0:1a:e6:4f:36:
         7e:dd:fc:81:88:a0:6f:3e:f6:f9:1c:69:ae:ab:b2:d8:4b:90:
         42:00:21:29:6c:02:d3:d3:d5:8d:a0:df:b1:94:29:70:08:6a:
         68:69:fb:53:44:1a:02:12:d7:e0:b1:fa:a3:97:95:0b:24:30:
         c1:7d:26:a0:18:14:67:6d:ac:ab:d8:71:a7:e2:86:4b:13:7d:
         41:b2:e3:ed:97:4e:4e:22:06:12:ba:77:80:3c:f6:87:73:61:
         25:d6:71:8d:01:a0:6d:86:15:2e:18:7a:49:f6:a7:97:b1:b8:
         0c:8b:b4:e2:33:26:53:16:f5:bf:19:88:80:9f:ab:e4:48:bf:
         18:e4:d3:af:f6:a6:2f:92:d1:34:ee:40:8a:98:d9:5f:9d:72:
         bb:7f:26:c5:10:ee:e9:28:b1:11:05:c4:7a:3e:36:b6:bf:95:
         2a:25:dc:58:71:57:1e:c1:0e:00:29:93:bb:cf:98:6c:37:0e:
         cf:2b:60:a1:3d:e4:4a:8e:9b:03:ae:94:dd:d4:58:fd:b3:12:
         9f:f5:1c:86:fe:79:3c:48:6c:3f:d0:0b:5f:35:f3:21:c6:e5:
         e7:9f:d9:51:7c:b1:0b:5e:fa:60:b0:fe:58:7e:39:dc:3c:ed:
         4d:4a:20:49:00:bb:3b:5e:8d:fe:8d:53:78:b7:04:6e:b7:d0:
         75:a3:a5:d9:77:d6:fc:18:af:9c:a4:79:21:0e:81:c0:05:41:
         51:46:eb:1c:9c:aa:03:9f:93:bf:9d:15:3c:e6:7b:92:ff:1e:
         e4:54:60:71:75:d9:a9:44:96:bd:d3:2e:c0:db:0a:c1:ae:e8:
         7b:3f:90:ec:36:dc:7a:ca:3c:1e:d1:f3:39:22:1f:cb:25:2d:
         1f:39:68:54:93:63:b2:90:f1:ee:03:48:03:8c:1b:7c:92:d5:
         d0:8a:65:2e:b3:2f:ef:ca:7b:d2:ce:38:e0:22:e4:90:0b:92:
         e0:a8:bb:45:0a:d5:0c:7d
-----BEGIN CERTIFICATE-----
MIIG3zCCBMegAwIBAgIIKPv6sNYhhkIwDQYJKoZIhvcNAQENBQAwgYcxCzAJBgNV
BAYTAkNIMQwwCgYDVQQIEwNadWcxDDAKBgNVBAcTA1p1ZzEYMBYGA1UEChMPUGVy
ZmVjdCBQcml2YWN5MRgwFgYDVQQDEw9QZXJmZWN0IFByaXZhY3kxKDAmBgkqhkiG
9w0BCQEWGWFkbWluQHBlcmZlY3QtcHJpdmFjeS5jb20wHhcNMjQwNjIxMDAwMDAw
WhcNMjYwMjE2MDAwMDAwWjCBizELMAkGA1UEBhMCQ0gxDDAKBgNVBAgTA1p1ZzEY
MBYGA1UEChMPUGVyZmVjdCBQcml2YWN5MSowKAYDVQQDFCFDbGllbnRfcHJhZ3Vl
LnBlcmZlY3QtcHJpdmFjeS5jb20xKDAmBgkqhkiG9w0BCQEWGWFkbWluQHBlcmZl
Y3QtcHJpdmFjeS5jb20wggIiMA0GCSqGSIb3DQEBAQUAA4ICDwAwggIKAoICAQDy
TIMKkmhZoQ9hrsPwVPbkfI0Dot0CfdnqTLi1kmnI6tXPo2qKweh/HvP0pe6gkM5g
dt0Auk9QzOhKFmypoNTDtV1f1V5vDMiuIEO/OvOmhqBBukgAi0IWX1Vcfjdkc6Du
X+YCaKGpJMx5+pAc6GyQZW7rVZWIKQLMMErK7+t/6UJJ585IGfMuNsARqvRGZVfv
gM7n8YFROwKW5x0oyLAPPzBAPTUzaurGKeO0e0qBkZq6iZk0s6jSQqpOjmm0YaTy
n3RqBQ8digTTddG4y6qo32C5mm/ZT5CN5oeEtOF0+O/7ftbVDjWtwaDn6yREIyon
8q11OfTUAyCnfDI9nbUr4DxwpHYlTkNIP0jsmI+ux7Nvc5slOpOy8YIoaIaiM9E5
7twzhtoE3E/0EWDNYYO6yvYI/jyX7w9BhBlDTHSLj1jKNvgP5Atfu5ySdea5ieQw
OeBOLdV4o1M7Q3JJKcK5V5dJPP3LAFp/yUW/4Zuht8KqlYvIMfeFy94EtsPlHf2M
YfJwipP8/0gDHeVZxbChHet5KGG0BMCWKTK/RZVFvHgU8q2yZ/o3PVtD83XlwvgT
1Rixk5o/VLWCyPHcmrIlq8Nes984q3slEhNW5xBmmlBpcdpICJngpof99W5ZNKkO
bnDdps87S+BBu1Mh7BNFCHU6j3+MFpkSDF4lebjbrwIDAQABo4IBRzCCAUMwCQYD
VR0TBAIwADAjBglghkgBhvhCAQ0EFhYUVlBOIFVzZXIgQ2VydGlmaWNhdGUwEQYJ
YIZIAYb4QgEBBAQDAgeAMAsGA1UdDwQEAwIHgDATBgNVHSUEDDAKBggrBgEFBQcD
AjAdBgNVHQ4EFgQUN5S02xjU03gMvoucm68HjrsJAgEwgbwGA1UdIwSBtDCBsYAU
hk+4bRgqGzyPJzQp8IGfum5hDuGhgY2kgYowgYcxCzAJBgNVBAYTAkNIMQwwCgYD
VQQIEwNadWcxDDAKBgNVBAcTA1p1ZzEYMBYGA1UEChMPUGVyZmVjdCBQcml2YWN5
MRgwFgYDVQQDEw9QZXJmZWN0IFByaXZhY3kxKDAmBgkqhkiG9w0BCQEWGWFkbWlu
QHBlcmZlY3QtcHJpdmFjeS5jb22CCQD6EbXEqmmvaTANBgkqhkiG9w0BAQ0FAAOC
AgEAGa5/kojzn/RiK/765FMaKdoLwfsAzzl7F6ziy47sLsOQuGE8r4oPOrnZVFkw
57g5OHU/RmxalW47aclp3lsRuVqqQf1OPzkY2FKgU1DZCkhKLpH8Pm68J8rRDs6o
XUQ+Zsa8DBeB4mflPXeGLJjFWCYCDsLgQAFNZq5e9hZjGQFD2X3udjO/hcHg6NAa
5k82ft38gYigbz72+Rxprquy2EuQQgAhKWwC09PVjaDfsZQpcAhqaGn7U0QaAhLX
4LH6o5eVCyQwwX0moBgUZ22sq9hxp+KGSxN9QbLj7ZdOTiIGErp3gDz2h3NhJdZx
jQGgbYYVLhh6Sfanl7G4DIu04jMmUxb1vxmIgJ+r5Ei/GOTTr/amL5LRNO5AipjZ
X51yu38mxRDu6SixEQXEej42tr+VKiXcWHFXHsEOACmTu8+YbDcOzytgoT3kSo6b
A66U3dRY/bMSn/Uchv55PEhsP9ALXzXzIcbl55/ZUXyxC176YLD+WH453DztTUog
SQC7O16N/o1TeLcEbrfQdaOl2XfW/BivnKR5IQ6BwAVBUUbrHJyqA5+Tv50VPOZ7
kv8e5FRgcXXZqUSWvdMuwNsKwa7oez+Q7Dbceso8HtHzOSIfyyUtHzloVJNjspDx
7gNIA4wbfJLV0IplLrMv78p70s444CLkkAuS4Ki7RQrVDH0=
-----END CERTIFICATE-----
