Certificate:
    Data:
        Version: 3 (0x2)
        Serial Number:
            c4:7e:a2:b2:ef:54:0a:9c
    Signature Algorithm: sha512WithRSAEncryption
        Issuer: C=CH, ST=Zug, L=Zug, O=Perfect Privacy, CN=Perfect Privacy/emailAddress=admin@perfect-privacy.com
        Validity
            Not Before: Mar  1 00:00:00 2023 GMT
            Not After : Oct 26 00:00:00 2024 GMT
        Subject: C=CH, ST=Zug, O=Perfect Privacy, CN=Client_paris.perfect-privacy.com/emailAddress=admin@perfect-privacy.com
        Subject Public Key Info:
            Public Key Algorithm: rsaEncryption
                Public-Key: (4096 bit)
                Modulus:
                    00:ce:e7:4c:7f:4a:be:95:f1:52:a0:b8:07:57:b3:
                    f7:bc:56:27:71:4c:59:6f:2f:a6:e0:58:c8:c8:b6:
                    85:40:f7:12:f4:e0:95:2f:13:0b:67:a6:b4:5c:fb:
                    a7:6e:ca:e9:57:d7:ab:b6:51:09:74:30:0b:00:35:
                    7b:5c:7d:a0:fe:77:a6:0f:01:7b:40:2d:9b:b6:a6:
                    e2:28:c8:5e:b9:c0:71:60:d7:30:ec:41:8b:e5:b9:
                    70:5f:bd:c9:68:c7:30:60:8a:2e:62:23:61:3f:87:
                    b1:c4:f4:fe:a0:21:48:b5:b3:81:74:61:bb:35:be:
                    5a:d3:8f:d4:9e:00:13:24:ef:8d:fd:2d:5b:c6:59:
                    a0:28:82:93:8e:21:4f:94:91:e9:3f:d5:0c:f2:45:
                    af:ef:f7:23:37:73:d1:38:c2:d0:b0:46:43:80:4a:
                    07:03:bd:32:b5:bf:9d:ef:99:20:c3:b7:1b:d1:53:
                    56:ae:5e:5b:2b:84:fc:64:b0:40:52:6c:6c:a6:33:
                    f7:9d:d6:f2:b6:97:f8:6f:7f:79:9a:a2:e5:42:5e:
                    7b:81:b1:c9:2f:41:6e:6a:2d:96:96:3a:42:28:72:
                    84:8f:b9:7e:08:de:87:88:6c:ac:28:d1:82:ae:fd:
                    4d:bc:fb:b5:e7:3e:26:97:3d:ba:56:c3:fa:0a:2a:
                    a3:0d:e0:6b:22:ae:4c:53:26:58:c0:05:33:18:ee:
                    ba:7d:a7:4f:02:68:25:1c:1d:1f:0f:61:13:24:e3:
                    13:59:88:b3:42:de:95:30:6a:99:81:60:e8:d4:b3:
                    a7:81:d3:f6:29:fc:3d:cc:8f:1d:7a:62:68:e6:4d:
                    ec:7c:8e:5a:64:2b:0d:9b:e1:fe:ab:81:3b:16:bd:
                    43:33:bb:38:c7:63:71:5c:38:6a:7e:4d:1c:bc:57:
                    1c:0b:11:00:2b:bd:7a:78:be:55:13:4e:dc:e5:93:
                    20:22:48:26:05:0c:2e:a0:5c:f6:bb:f7:09:cd:ad:
                    ee:28:1a:8b:63:b1:c3:9e:2b:a7:f6:86:73:88:6b:
                    e1:a2:0b:3a:5d:de:1a:5c:8a:e0:4d:43:3c:23:19:
                    61:f4:18:aa:b1:6d:11:fa:60:07:23:6e:59:d3:6c:
                    c5:21:76:c9:4b:ed:50:32:b6:8e:3c:f1:d5:7d:28:
                    05:96:6e:d3:d1:8e:ad:89:5e:5a:a1:fa:71:43:93:
                    ae:dd:0c:bb:90:9b:17:b0:81:02:df:01:d9:d6:54:
                    39:d3:a2:9e:29:30:d9:5e:ab:8e:ad:81:61:61:15:
                    4a:bc:b8:50:e1:a5:86:43:de:a7:1e:3b:eb:34:e5:
                    b6:df:89:a0:6d:d2:2a:54:8b:d1:69:be:a6:b8:ac:
                    a2:0b:23
                Exponent: 65537 (0x10001)
        X509v3 extensions:
            X509v3 Basic Constraints: 
                CA:FALSE
            Netscape Comment: 
                VPN User Certificate
            Netscape Cert Type: 
                SSL Client
            X509v3 Key Usage: 
                Digital Signature
            X509v3 Extended Key Usage: 
                TLS Web Client Authentication
            X509v3 Subject Key Identifier: 
                35:B4:AB:A0:51:18:8C:75:A5:60:CD:F8:BF:B6:42:39:A4:48:45:48
            X509v3 Authority Key Identifier: 
                keyid:86:4F:B8:6D:18:2A:1B:3C:8F:27:34:29:F0:81:9F:BA:6E:61:0E:E1
                DirName:/C=CH/ST=Zug/L=Zug/O=Perfect Privacy/CN=Perfect Privacy/emailAddress=admin@perfect-privacy.com
                serial:FA:11:B5:C4:AA:69:AF:69

    Signature Algorithm: sha512WithRSAEncryption
         36:3c:b1:14:fe:36:d6:28:9b:e2:17:cc:26:21:1f:4a:27:06:
         eb:9c:50:ce:ea:29:2f:c1:43:4d:12:76:f2:36:8f:6d:6b:dc:
         21:7c:52:22:94:27:0a:74:5a:5e:be:03:29:36:dd:8c:11:f0:
         eb:0d:a8:b4:00:9a:fb:51:e8:82:0a:28:40:87:a2:71:ed:03:
         c7:93:f6:ea:2a:dd:7a:03:0e:7f:0d:5b:52:4b:49:4a:e4:c7:
         d8:1b:c5:e4:65:e7:9b:2c:ef:9a:cb:8c:69:9a:72:31:45:60:
         c7:02:2a:05:e0:47:9a:dc:b3:ea:b4:c1:7a:03:e9:6d:7a:26:
         10:de:05:df:ff:cf:7b:00:11:62:81:26:c4:3a:19:2e:bf:1b:
         7b:55:37:4f:3f:33:42:41:01:09:95:58:3c:1a:9c:a9:64:81:
         f8:bb:e9:ca:67:c4:ed:da:46:4b:1c:0b:27:0e:c5:1e:27:bd:
         f0:92:3b:db:30:0e:6d:50:d4:09:ae:e3:1a:80:a7:cf:3f:1c:
         4a:71:00:3f:2f:31:a0:34:f2:47:68:58:98:8f:4b:44:8c:96:
         36:e3:9f:32:44:45:ec:91:3a:b6:3a:8b:0d:dc:a7:76:fa:7d:
         fb:bf:30:e0:7b:ae:dc:0d:9e:95:76:85:69:06:48:e0:b4:de:
         b7:9b:cb:58:7f:a5:64:97:56:7d:16:56:00:f1:6d:3b:6d:00:
         74:ae:2b:eb:0c:82:54:31:7d:8a:a4:d8:46:fa:ad:8f:6a:8c:
         2a:f5:c3:7f:8d:a2:4d:ea:fb:b9:05:e4:a9:da:41:5e:4c:67:
         a6:fe:2e:a9:4c:65:76:d7:01:e3:dd:54:62:02:38:e0:59:87:
         0f:1e:27:5c:ec:e9:a7:7d:0f:f6:6c:5a:f8:38:3b:c5:98:56:
         95:f4:09:bf:4d:75:6e:14:fe:5f:e7:50:a8:83:6b:0a:99:c8:
         7f:6e:1e:77:a3:8b:dc:24:78:4d:3f:a0:ee:8d:95:b4:21:e0:
         0c:26:5e:99:87:f9:6d:1a:40:6c:a5:dc:f9:0a:83:fd:12:a2:
         f4:5a:57:f6:e1:81:01:dd:8a:82:eb:08:4a:0b:e5:f4:2b:f1:
         7e:4f:0c:f3:5b:f2:cc:50:69:cd:4b:a9:6f:ca:c8:ba:2c:9a:
         60:b8:92:4c:29:34:1d:b8:27:ea:88:eb:60:23:d0:07:93:0e:
         a6:68:11:ab:48:01:93:d9:51:9a:27:45:3b:29:9e:0b:5a:4b:
         1e:81:07:12:73:ce:18:75:79:67:4e:4f:25:a7:6b:46:a6:f2:
         a4:13:c6:68:76:26:46:64:ef:75:56:23:49:f3:e3:80:0b:99:
         9b:00:b1:59:63:3a:6e:1f
-----BEGIN CERTIFICATE-----
MIIG3zCCBMegAwIBAgIJAMR+orLvVAqcMA0GCSqGSIb3DQEBDQUAMIGHMQswCQYD
VQQGEwJDSDEMMAoGA1UECBMDWnVnMQwwCgYDVQQHEwNadWcxGDAWBgNVBAoTD1Bl
cmZlY3QgUHJpdmFjeTEYMBYGA1UEAxMPUGVyZmVjdCBQcml2YWN5MSgwJgYJKoZI
hvcNAQkBFhlhZG1pbkBwZXJmZWN0LXByaXZhY3kuY29tMB4XDTIzMDMwMTAwMDAw
MFoXDTI0MTAyNjAwMDAwMFowgYoxCzAJBgNVBAYTAkNIMQwwCgYDVQQIEwNadWcx
GDAWBgNVBAoTD1BlcmZlY3QgUHJpdmFjeTEpMCcGA1UEAxQgQ2xpZW50X3Bhcmlz
LnBlcmZlY3QtcHJpdmFjeS5jb20xKDAmBgkqhkiG9w0BCQEWGWFkbWluQHBlcmZl
Y3QtcHJpdmFjeS5jb20wggIiMA0GCSqGSIb3DQEBAQUAA4ICDwAwggIKAoICAQDO
50x/Sr6V8VKguAdXs/e8VidxTFlvL6bgWMjItoVA9xL04JUvEwtnprRc+6duyulX
16u2UQl0MAsANXtcfaD+d6YPAXtALZu2puIoyF65wHFg1zDsQYvluXBfvcloxzBg
ii5iI2E/h7HE9P6gIUi1s4F0Ybs1vlrTj9SeABMk7439LVvGWaAogpOOIU+Ukek/
1QzyRa/v9yM3c9E4wtCwRkOASgcDvTK1v53vmSDDtxvRU1auXlsrhPxksEBSbGym
M/ed1vK2l/hvf3maouVCXnuBsckvQW5qLZaWOkIocoSPuX4I3oeIbKwo0YKu/U28
+7XnPiaXPbpWw/oKKqMN4GsirkxTJljABTMY7rp9p08CaCUcHR8PYRMk4xNZiLNC
3pUwapmBYOjUs6eB0/Yp/D3Mjx16YmjmTex8jlpkKw2b4f6rgTsWvUMzuzjHY3Fc
OGp+TRy8VxwLEQArvXp4vlUTTtzlkyAiSCYFDC6gXPa79wnNre4oGotjscOeK6f2
hnOIa+GiCzpd3hpciuBNQzwjGWH0GKqxbRH6YAcjblnTbMUhdslL7VAyto488dV9
KAWWbtPRjq2JXlqh+nFDk67dDLuQmxewgQLfAdnWVDnTop4pMNleq46tgWFhFUq8
uFDhpYZD3qceO+s05bbfiaBt0ipUi9Fpvqa4rKILIwIDAQABo4IBRzCCAUMwCQYD
VR0TBAIwADAjBglghkgBhvhCAQ0EFhYUVlBOIFVzZXIgQ2VydGlmaWNhdGUwEQYJ
YIZIAYb4QgEBBAQDAgeAMAsGA1UdDwQEAwIHgDATBgNVHSUEDDAKBggrBgEFBQcD
AjAdBgNVHQ4EFgQUNbSroFEYjHWlYM34v7ZCOaRIRUgwgbwGA1UdIwSBtDCBsYAU
hk+4bRgqGzyPJzQp8IGfum5hDuGhgY2kgYowgYcxCzAJBgNVBAYTAkNIMQwwCgYD
VQQIEwNadWcxDDAKBgNVBAcTA1p1ZzEYMBYGA1UEChMPUGVyZmVjdCBQcml2YWN5
MRgwFgYDVQQDEw9QZXJmZWN0IFByaXZhY3kxKDAmBgkqhkiG9w0BCQEWGWFkbWlu
QHBlcmZlY3QtcHJpdmFjeS5jb22CCQD6EbXEqmmvaTANBgkqhkiG9w0BAQ0FAAOC
AgEANjyxFP421iib4hfMJiEfSicG65xQzuopL8FDTRJ28jaPbWvcIXxSIpQnCnRa
Xr4DKTbdjBHw6w2otACa+1HoggooQIeice0Dx5P26irdegMOfw1bUktJSuTH2BvF
5GXnmyzvmsuMaZpyMUVgxwIqBeBHmtyz6rTBegPpbXomEN4F3//PewARYoEmxDoZ
Lr8be1U3Tz8zQkEBCZVYPBqcqWSB+LvpymfE7dpGSxwLJw7FHie98JI72zAObVDU
Ca7jGoCnzz8cSnEAPy8xoDTyR2hYmI9LRIyWNuOfMkRF7JE6tjqLDdyndvp9+78w
4Huu3A2elXaFaQZI4LTet5vLWH+lZJdWfRZWAPFtO20AdK4r6wyCVDF9iqTYRvqt
j2qMKvXDf42iTer7uQXkqdpBXkxnpv4uqUxldtcB491UYgI44FmHDx4nXOzpp30P
9mxa+Dg7xZhWlfQJv011bhT+X+dQqINrCpnIf24ed6OL3CR4TT+g7o2VtCHgDCZe
mYf5bRpAbKXc+QqD/RKi9FpX9uGBAd2KgusISgvl9Cvxfk8M81vyzFBpzUupb8rI
uiyaYLiSTCk0Hbgn6ojrYCPQB5MOpmgRq0gBk9lRmidFOymeC1pLHoEHEnPOGHV5
Z05PJadrRqbypBPGaHYmRmTvdVYjSfPjgAuZmwCxWWM6bh8=
-----END CERTIFICATE-----
