Certificate:
    Data:
        Version: 3 (0x2)
        Serial Number: 7856441741852273465 (0x6d07b02395a7eb39)
    Signature Algorithm: sha512WithRSAEncryption
        Issuer: C=CH, ST=Zug, L=Zug, O=Perfect Privacy, CN=Perfect Privacy/emailAddress=admin@perfect-privacy.com
        Validity
            Not Before: May 20 00:00:00 2024 GMT
            Not After : Jan 15 00:00:00 2026 GMT
        Subject: C=CH, ST=Zug, O=Perfect Privacy, CN=Client_paris.perfect-privacy.com/emailAddress=admin@perfect-privacy.com
        Subject Public Key Info:
            Public Key Algorithm: rsaEncryption
                Public-Key: (4096 bit)
                Modulus:
                    00:f3:82:af:fa:98:ee:4d:ed:6e:fd:e0:95:36:ce:
                    95:6b:92:36:01:18:86:64:d6:f0:22:e4:f5:0b:97:
                    0c:95:b2:07:ad:dd:e3:a0:29:15:2f:bf:1d:11:99:
                    d5:e7:ae:df:15:c9:20:f7:52:2c:78:96:cf:01:af:
                    56:e1:80:59:02:05:c7:17:1d:a2:25:18:b2:33:2d:
                    6d:a2:d2:38:f0:f7:cc:71:c3:29:12:b4:cc:76:28:
                    a9:19:99:1f:a7:fb:84:76:c6:1b:8b:88:1b:0e:43:
                    75:06:e0:3b:db:71:ec:47:f0:cf:d1:9a:70:95:f2:
                    c9:fb:7b:17:4f:a0:17:d9:f3:f1:e0:5a:0c:26:97:
                    b6:29:f5:5b:e5:75:f8:8c:c5:0d:b3:7c:92:91:3b:
                    21:b0:22:ee:80:1c:01:56:78:04:46:99:df:3c:b5:
                    52:93:b4:4d:ae:93:22:5d:b5:32:0f:7e:1a:59:8e:
                    47:a0:5b:93:db:48:9a:14:e4:8f:0e:86:07:93:77:
                    a2:62:98:96:61:de:ea:ea:4d:70:d8:c8:e9:2d:31:
                    db:00:7a:44:ca:a9:6a:54:2f:19:53:ac:8d:8f:0c:
                    f4:3a:da:30:43:ad:d7:47:b1:0d:9f:51:d1:2a:9f:
                    0e:ce:a5:b4:8b:95:0f:70:8f:54:67:3e:35:0e:5e:
                    69:18:c6:8e:b1:87:b5:a0:80:12:98:47:c6:95:4a:
                    07:b2:59:cb:79:b1:86:d2:9d:45:66:d2:2b:5f:e4:
                    ab:69:5f:92:88:11:ab:5e:bc:ca:c5:ca:f5:9a:7d:
                    3d:42:66:67:dc:90:bd:6c:92:e4:7b:35:5d:dc:b1:
                    85:e7:5a:1f:65:b6:66:db:8e:8e:b6:a5:d6:d6:f3:
                    8f:47:f7:53:a5:e4:d2:cc:3b:89:fb:c6:65:8c:e2:
                    8c:9f:17:10:b5:9f:ec:4a:b4:1e:cb:75:ec:e0:24:
                    ac:29:12:9e:7c:05:ad:e9:e7:09:fa:01:83:f3:c0:
                    59:8a:e2:df:e4:a5:9c:9b:9a:a6:87:d7:27:20:cc:
                    5a:6e:40:c4:89:e3:a4:26:cf:c7:8d:00:50:ae:09:
                    8f:bc:9f:bf:f6:0a:cd:3b:dd:3a:cc:a7:98:2c:8a:
                    fe:76:77:ce:21:31:6e:ba:24:52:8e:78:35:26:96:
                    46:be:3e:0d:d5:06:7f:7a:3a:4b:19:97:09:79:ea:
                    70:91:41:44:ee:e0:43:01:a7:2c:20:ec:cf:bf:d8:
                    b7:e6:7f:5a:ec:b2:30:c8:e4:aa:58:b5:ec:3f:2b:
                    f7:89:a1:56:62:66:f8:b0:3a:cf:aa:c7:34:23:fd:
                    e7:a9:7d:c5:37:1b:0e:f3:39:7c:7f:c7:c3:dc:7f:
                    9c:dc:e5
                Exponent: 65537 (0x10001)
        X509v3 extensions:
            X509v3 Basic Constraints: 
                CA:FALSE
            Netscape Comment: 
                VPN User Certificate
            Netscape Cert Type: 
                SSL Client
            X509v3 Key Usage: 
                Digital Signature
            X509v3 Extended Key Usage: 
                TLS Web Client Authentication
            X509v3 Subject Key Identifier: 
                6D:17:A7:7E:CC:F5:B1:69:40:DB:03:5A:2B:92:69:0E:74:2A:CC:CF
            X509v3 Authority Key Identifier: 
                keyid:86:4F:B8:6D:18:2A:1B:3C:8F:27:34:29:F0:81:9F:BA:6E:61:0E:E1
                DirName:/C=CH/ST=Zug/L=Zug/O=Perfect Privacy/CN=Perfect Privacy/emailAddress=admin@perfect-privacy.com
                serial:FA:11:B5:C4:AA:69:AF:69

    Signature Algorithm: sha512WithRSAEncryption
         89:2b:0b:0b:2f:e4:6f:52:8f:b6:19:58:dd:55:65:7c:7d:6e:
         ee:2c:7d:a7:b1:d7:e1:e1:96:f6:61:aa:1f:95:13:16:a0:2e:
         40:e3:5c:4e:fb:7e:2d:fb:a7:8a:f3:3d:d1:df:99:8f:eb:28:
         11:4d:4e:12:a2:94:e9:c1:c7:42:3f:45:d7:f3:f1:b6:cb:26:
         c4:fa:a1:85:68:e4:79:48:ca:74:51:02:c4:22:5a:4d:de:62:
         0a:eb:67:66:13:92:53:50:8d:67:1b:6a:38:a7:b2:58:23:f2:
         c7:74:5a:a4:25:c7:3b:46:ce:a1:3f:f1:36:5c:63:80:33:d3:
         65:2b:c9:ee:dc:79:35:bf:68:57:30:2f:88:7b:8c:cc:cd:a6:
         53:de:8c:50:62:2a:9e:72:10:bc:c5:4e:15:b9:5c:46:67:97:
         fc:87:03:82:da:02:1b:74:af:3d:a2:55:79:80:d9:fd:f3:6b:
         bd:27:6e:67:66:66:99:9e:45:d3:29:d2:f0:e0:d2:d5:cd:96:
         5a:3e:3f:ef:d4:f4:78:20:73:93:38:a7:3a:01:c3:45:c9:7b:
         6d:c0:00:f7:e2:ec:5a:66:cc:f6:31:df:67:64:14:d8:43:4b:
         0f:9b:1a:17:0f:3b:f6:9f:64:1c:25:20:9b:40:2b:15:18:5c:
         22:6a:44:b8:49:3b:4b:8f:0c:d1:c7:64:2e:b4:2f:01:43:e6:
         d5:3c:19:b4:55:7e:66:5e:07:c9:f9:03:34:0e:51:bd:9b:c0:
         47:e7:66:ad:ce:4b:d3:1f:5b:21:40:64:ae:38:04:22:30:a1:
         6a:b9:6e:95:1a:04:b4:05:32:3e:fe:8d:fa:cc:28:1e:bb:49:
         81:02:bf:ed:e1:7f:ea:a8:46:d1:db:82:c2:b5:97:7b:16:c1:
         10:e2:98:c9:2f:2c:6f:06:2d:26:b6:94:a7:f9:a3:b6:53:cf:
         2c:de:61:3f:f7:68:be:b2:58:6e:a4:0d:de:be:ea:9e:08:3b:
         16:f1:e7:7e:54:8d:d6:35:c4:41:22:db:e4:54:b0:99:63:31:
         6e:45:d4:19:65:0d:c7:92:f5:50:fb:8d:f8:bd:a3:92:82:e8:
         d0:f0:9d:4f:d9:d0:cb:e5:25:e0:d4:07:d6:51:a5:99:8d:17:
         9c:62:23:05:60:f6:f5:c9:c4:a4:bd:4f:e7:72:ca:20:d9:4c:
         30:d5:c4:f8:c7:f9:2c:66:ed:b9:05:44:35:24:da:40:0f:6b:
         40:51:eb:1b:43:58:a7:c6:56:53:30:af:79:e0:32:c5:81:c2:
         f3:41:d3:6a:2f:e1:a2:23:50:24:f2:eb:30:f4:4f:1f:2b:71:
         1d:5c:6d:0e:70:6e:0c:74
-----BEGIN CERTIFICATE-----
MIIG3jCCBMagAwIBAgIIbQewI5Wn6zkwDQYJKoZIhvcNAQENBQAwgYcxCzAJBgNV
BAYTAkNIMQwwCgYDVQQIEwNadWcxDDAKBgNVBAcTA1p1ZzEYMBYGA1UEChMPUGVy
ZmVjdCBQcml2YWN5MRgwFgYDVQQDEw9QZXJmZWN0IFByaXZhY3kxKDAmBgkqhkiG
9w0BCQEWGWFkbWluQHBlcmZlY3QtcHJpdmFjeS5jb20wHhcNMjQwNTIwMDAwMDAw
WhcNMjYwMTE1MDAwMDAwWjCBijELMAkGA1UEBhMCQ0gxDDAKBgNVBAgTA1p1ZzEY
MBYGA1UEChMPUGVyZmVjdCBQcml2YWN5MSkwJwYDVQQDFCBDbGllbnRfcGFyaXMu
cGVyZmVjdC1wcml2YWN5LmNvbTEoMCYGCSqGSIb3DQEJARYZYWRtaW5AcGVyZmVj
dC1wcml2YWN5LmNvbTCCAiIwDQYJKoZIhvcNAQEBBQADggIPADCCAgoCggIBAPOC
r/qY7k3tbv3glTbOlWuSNgEYhmTW8CLk9QuXDJWyB63d46ApFS+/HRGZ1eeu3xXJ
IPdSLHiWzwGvVuGAWQIFxxcdoiUYsjMtbaLSOPD3zHHDKRK0zHYoqRmZH6f7hHbG
G4uIGw5DdQbgO9tx7Efwz9GacJXyyft7F0+gF9nz8eBaDCaXtin1W+V1+IzFDbN8
kpE7IbAi7oAcAVZ4BEaZ3zy1UpO0Ta6TIl21Mg9+GlmOR6Bbk9tImhTkjw6GB5N3
omKYlmHe6upNcNjI6S0x2wB6RMqpalQvGVOsjY8M9DraMEOt10exDZ9R0SqfDs6l
tIuVD3CPVGc+NQ5eaRjGjrGHtaCAEphHxpVKB7JZy3mxhtKdRWbSK1/kq2lfkogR
q168ysXK9Zp9PUJmZ9yQvWyS5Hs1XdyxhedaH2W2ZtuOjral1tbzj0f3U6Xk0sw7
ifvGZYzijJ8XELWf7Eq0Hst17OAkrCkSnnwFrennCfoBg/PAWYri3+SlnJuapofX
JyDMWm5AxInjpCbPx40AUK4Jj7yfv/YKzTvdOsynmCyK/nZ3ziExbrokUo54NSaW
Rr4+DdUGf3o6SxmXCXnqcJFBRO7gQwGnLCDsz7/Yt+Z/WuyyMMjkqli17D8r94mh
VmJm+LA6z6rHNCP956l9xTcbDvM5fH/Hw9x/nNzlAgMBAAGjggFHMIIBQzAJBgNV
HRMEAjAAMCMGCWCGSAGG+EIBDQQWFhRWUE4gVXNlciBDZXJ0aWZpY2F0ZTARBglg
hkgBhvhCAQEEBAMCB4AwCwYDVR0PBAQDAgeAMBMGA1UdJQQMMAoGCCsGAQUFBwMC
MB0GA1UdDgQWBBRtF6d+zPWxaUDbA1orkmkOdCrMzzCBvAYDVR0jBIG0MIGxgBSG
T7htGCobPI8nNCnwgZ+6bmEO4aGBjaSBijCBhzELMAkGA1UEBhMCQ0gxDDAKBgNV
BAgTA1p1ZzEMMAoGA1UEBxMDWnVnMRgwFgYDVQQKEw9QZXJmZWN0IFByaXZhY3kx
GDAWBgNVBAMTD1BlcmZlY3QgUHJpdmFjeTEoMCYGCSqGSIb3DQEJARYZYWRtaW5A
cGVyZmVjdC1wcml2YWN5LmNvbYIJAPoRtcSqaa9pMA0GCSqGSIb3DQEBDQUAA4IC
AQCJKwsLL+RvUo+2GVjdVWV8fW7uLH2nsdfh4Zb2YaoflRMWoC5A41xO+34t+6eK
8z3R35mP6ygRTU4SopTpwcdCP0XX8/G2yybE+qGFaOR5SMp0UQLEIlpN3mIK62dm
E5JTUI1nG2o4p7JYI/LHdFqkJcc7Rs6hP/E2XGOAM9NlK8nu3Hk1v2hXMC+Ie4zM
zaZT3oxQYiqechC8xU4VuVxGZ5f8hwOC2gIbdK89olV5gNn982u9J25nZmaZnkXT
KdLw4NLVzZZaPj/v1PR4IHOTOKc6AcNFyXttwAD34uxaZsz2Md9nZBTYQ0sPmxoX
Dzv2n2QcJSCbQCsVGFwiakS4STtLjwzRx2QutC8BQ+bVPBm0VX5mXgfJ+QM0DlG9
m8BH52atzkvTH1shQGSuOAQiMKFquW6VGgS0BTI+/o36zCgeu0mBAr/t4X/qqEbR
24LCtZd7FsEQ4pjJLyxvBi0mtpSn+aO2U88s3mE/92i+slhupA3evuqeCDsW8ed+
VI3WNcRBItvkVLCZYzFuRdQZZQ3HkvVQ+434vaOSgujQ8J1P2dDL5SXg1AfWUaWZ
jRecYiMFYPb1ycSkvU/ncsog2Uww1cT4x/ksZu25BUQ1JNpAD2tAUesbQ1inxlZT
MK954DLFgcLzQdNqL+GiI1Ak8usw9E8fK3EdXG0OcG4MdA==
-----END CERTIFICATE-----
