Certificate:
    Data:
        Version: 3 (0x2)
        Serial Number: 7155827906617597068 (0x634e9b915fc4dc8c)
    Signature Algorithm: sha512WithRSAEncryption
        Issuer: C=CH, ST=Zug, L=Zug, O=Perfect Privacy, CN=Perfect Privacy/emailAddress=admin@perfect-privacy.com
        Validity
            Not Before: Feb 11 00:00:00 2023 GMT
            Not After : Oct  8 00:00:00 2024 GMT
        Subject: C=CH, ST=Zug, O=Perfect Privacy, CN=Client_prague.perfect-privacy.com/emailAddress=admin@perfect-privacy.com
        Subject Public Key Info:
            Public Key Algorithm: rsaEncryption
                Public-Key: (4096 bit)
                Modulus:
                    00:b4:01:00:87:7d:46:22:fc:68:6d:f6:1f:16:17:
                    41:ab:d1:d6:e9:ac:85:30:42:62:16:8f:e2:b6:14:
                    78:f1:5c:68:0a:b6:7c:4d:c6:83:a7:e2:ba:0f:ff:
                    0a:84:b9:8d:ac:55:47:32:7e:a1:91:cc:66:08:64:
                    1f:2e:94:9a:21:39:e0:0c:25:02:bb:b4:a7:3f:9b:
                    86:28:99:af:f3:2c:cb:1f:12:1b:24:1b:14:9f:00:
                    33:c6:3d:78:d0:cd:9a:d5:fc:f8:8b:84:de:2a:3b:
                    df:93:9e:9d:0f:99:f3:7d:c3:d9:32:21:66:7c:fd:
                    de:72:25:94:54:d1:83:8b:b9:a0:7f:84:23:08:0b:
                    77:88:06:51:d7:d7:46:78:00:18:6e:4e:62:f4:c0:
                    2a:70:31:98:86:49:0e:0b:9b:6a:d9:54:d6:c0:60:
                    ee:94:1b:70:39:52:94:52:71:87:ba:08:18:f6:c8:
                    3c:3b:7b:42:3e:a4:6a:88:d1:9e:80:ce:69:57:42:
                    20:62:9c:f1:13:11:17:a9:37:fa:4c:55:02:88:da:
                    4a:52:30:53:7d:50:70:d0:47:ff:0a:a3:89:b8:e6:
                    a7:53:88:fa:e4:2c:a4:d5:a8:fd:bd:ad:f2:92:41:
                    31:86:87:e9:6c:34:e7:95:37:53:43:37:72:39:44:
                    7d:ac:29:04:aa:fc:c0:40:62:89:e2:8d:82:9e:68:
                    ff:33:fd:7d:7b:8a:29:6b:71:71:b6:08:b2:51:91:
                    34:94:2b:75:ad:4e:ea:a0:62:2b:47:b6:73:9f:6e:
                    f0:3b:63:ce:1e:12:a9:fd:19:46:b3:5d:db:fd:ae:
                    67:f4:11:90:14:25:54:c1:e2:23:19:76:27:27:a8:
                    90:5e:68:9a:9e:9d:27:ea:87:d4:f7:84:f6:f6:e9:
                    a2:1f:ab:b9:d0:12:87:cd:52:d9:b5:11:9e:7d:12:
                    18:2f:86:20:f6:6e:39:be:6e:9c:15:69:e8:12:4f:
                    b1:7a:f9:02:f0:7a:17:b7:8a:10:ab:15:ea:45:28:
                    e6:b2:07:56:4f:07:ec:e1:4c:b0:da:b0:e8:19:9b:
                    25:94:6f:c7:ce:12:1e:03:e3:20:11:e5:31:ef:0e:
                    8c:73:ae:4d:fe:04:ee:c9:09:71:42:dd:aa:8b:47:
                    c6:16:36:08:1e:63:ba:4c:82:5e:ae:21:bd:0d:0c:
                    9d:c8:3c:ea:4b:07:56:5f:cd:08:ac:71:78:42:c2:
                    29:59:24:33:87:c2:7f:77:a5:23:09:7a:d3:b3:06:
                    f3:f5:e8:40:86:ee:31:14:e4:0e:f3:b9:1e:8c:2d:
                    fb:73:2e:04:e7:c5:ee:04:81:26:9d:24:27:43:f5:
                    fd:03:d9
                Exponent: 65537 (0x10001)
        X509v3 extensions:
            X509v3 Basic Constraints: 
                CA:FALSE
            Netscape Comment: 
                VPN User Certificate
            Netscape Cert Type: 
                SSL Client
            X509v3 Key Usage: 
                Digital Signature
            X509v3 Extended Key Usage: 
                TLS Web Client Authentication
            X509v3 Subject Key Identifier: 
                2D:9E:21:08:99:A3:62:35:15:F1:B9:95:61:0E:91:BE:85:BF:44:A8
            X509v3 Authority Key Identifier: 
                keyid:86:4F:B8:6D:18:2A:1B:3C:8F:27:34:29:F0:81:9F:BA:6E:61:0E:E1
                DirName:/C=CH/ST=Zug/L=Zug/O=Perfect Privacy/CN=Perfect Privacy/emailAddress=admin@perfect-privacy.com
                serial:FA:11:B5:C4:AA:69:AF:69

    Signature Algorithm: sha512WithRSAEncryption
         6c:78:5f:08:b5:24:0c:90:9b:76:6f:a6:c3:26:81:2f:8c:5e:
         40:0b:85:63:f7:69:16:fb:69:2b:7b:9f:7e:e3:61:41:8b:47:
         b9:1a:9d:30:73:6f:8c:51:0f:c3:de:b1:97:2f:2f:96:89:b4:
         58:76:19:30:f1:8d:31:cb:ca:b3:c1:7c:fc:c3:df:ea:1f:43:
         12:0c:b5:f9:47:7c:ab:6b:aa:5d:44:b6:1a:7c:76:af:03:5c:
         3e:38:c4:26:4b:ea:d1:70:82:f1:ca:51:b5:1f:e0:61:a2:43:
         2b:8b:8a:ba:6d:33:81:e4:1c:02:53:6a:2e:58:3c:9e:40:1c:
         b0:d9:f7:15:cb:66:60:ab:54:2f:ad:9c:9a:91:d5:f8:1a:bd:
         74:26:a5:0a:e0:5e:0e:a3:1f:55:b7:bf:50:7b:84:27:63:7b:
         0a:b1:92:af:8a:9b:e4:ae:44:c4:cc:05:1d:25:be:d2:9f:53:
         ab:40:99:1d:67:d4:57:89:bd:af:6d:96:3f:a3:cd:0c:cc:eb:
         e4:58:5b:af:48:15:a3:a8:99:4c:40:23:b9:4c:47:fd:12:c8:
         9a:99:69:99:9a:3c:04:16:e8:75:01:08:3b:15:df:e3:e3:70:
         3b:7a:bc:6a:30:76:a8:96:45:bf:b2:62:5d:8e:ec:c5:7f:8d:
         ac:9c:3b:10:a9:0e:64:79:eb:60:aa:db:20:97:c0:5b:06:bd:
         83:3a:be:2e:f5:fe:d1:18:f7:9d:57:b9:29:fd:d7:b3:21:34:
         2b:0c:a9:4b:3a:07:0f:cb:0f:34:be:64:4d:ff:44:90:05:3b:
         ba:4c:df:7b:2e:62:f5:79:23:29:d1:07:ff:53:af:ca:5f:c8:
         16:0c:0e:69:2f:7a:32:a2:a0:4f:e9:3b:99:c5:e9:92:64:3d:
         56:4c:f1:67:16:d7:45:75:23:14:70:68:b6:2b:84:bf:95:fb:
         78:4d:d0:e2:6e:48:25:c9:32:3a:3c:38:64:48:9a:90:27:5a:
         51:0e:19:7a:27:44:f7:d8:a6:d1:bf:69:af:05:50:2b:01:a4:
         65:94:48:aa:b0:98:95:8d:bd:26:25:9e:d3:e4:9f:ac:bd:2e:
         f6:e7:93:a8:c5:ff:4a:00:62:d0:91:a1:ae:55:7b:1a:1c:30:
         71:bf:fc:79:ca:92:e6:2e:e2:4d:7f:5a:7f:80:b1:b9:5c:1c:
         98:85:0f:d4:aa:ee:cb:0f:a7:5e:d2:f7:ea:bd:42:95:ec:cd:
         2e:c5:d9:69:df:5d:95:f1:6d:28:a1:5d:b2:b5:c7:95:43:17:
         b2:02:fd:04:b7:e9:bd:1e:91:45:1a:df:8a:b8:f8:45:0c:e5:
         5f:2e:c9:70:d6:da:03:7d
-----BEGIN CERTIFICATE-----
MIIG3zCCBMegAwIBAgIIY06bkV/E3IwwDQYJKoZIhvcNAQENBQAwgYcxCzAJBgNV
BAYTAkNIMQwwCgYDVQQIEwNadWcxDDAKBgNVBAcTA1p1ZzEYMBYGA1UEChMPUGVy
ZmVjdCBQcml2YWN5MRgwFgYDVQQDEw9QZXJmZWN0IFByaXZhY3kxKDAmBgkqhkiG
9w0BCQEWGWFkbWluQHBlcmZlY3QtcHJpdmFjeS5jb20wHhcNMjMwMjExMDAwMDAw
WhcNMjQxMDA4MDAwMDAwWjCBizELMAkGA1UEBhMCQ0gxDDAKBgNVBAgTA1p1ZzEY
MBYGA1UEChMPUGVyZmVjdCBQcml2YWN5MSowKAYDVQQDFCFDbGllbnRfcHJhZ3Vl
LnBlcmZlY3QtcHJpdmFjeS5jb20xKDAmBgkqhkiG9w0BCQEWGWFkbWluQHBlcmZl
Y3QtcHJpdmFjeS5jb20wggIiMA0GCSqGSIb3DQEBAQUAA4ICDwAwggIKAoICAQC0
AQCHfUYi/Ght9h8WF0Gr0dbprIUwQmIWj+K2FHjxXGgKtnxNxoOn4roP/wqEuY2s
VUcyfqGRzGYIZB8ulJohOeAMJQK7tKc/m4Yoma/zLMsfEhskGxSfADPGPXjQzZrV
/PiLhN4qO9+Tnp0PmfN9w9kyIWZ8/d5yJZRU0YOLuaB/hCMIC3eIBlHX10Z4ABhu
TmL0wCpwMZiGSQ4Lm2rZVNbAYO6UG3A5UpRScYe6CBj2yDw7e0I+pGqI0Z6AzmlX
QiBinPETERepN/pMVQKI2kpSMFN9UHDQR/8Ko4m45qdTiPrkLKTVqP29rfKSQTGG
h+lsNOeVN1NDN3I5RH2sKQSq/MBAYonijYKeaP8z/X17iilrcXG2CLJRkTSUK3Wt
TuqgYitHtnOfbvA7Y84eEqn9GUazXdv9rmf0EZAUJVTB4iMZdicnqJBeaJqenSfq
h9T3hPb26aIfq7nQEofNUtm1EZ59EhgvhiD2bjm+bpwVaegST7F6+QLwehe3ihCr
FepFKOayB1ZPB+zhTLDasOgZmyWUb8fOEh4D4yAR5THvDoxzrk3+BO7JCXFC3aqL
R8YWNggeY7pMgl6uIb0NDJ3IPOpLB1ZfzQiscXhCwilZJDOHwn93pSMJetOzBvP1
6ECG7jEU5A7zuR6MLftzLgTnxe4EgSadJCdD9f0D2QIDAQABo4IBRzCCAUMwCQYD
VR0TBAIwADAjBglghkgBhvhCAQ0EFhYUVlBOIFVzZXIgQ2VydGlmaWNhdGUwEQYJ
YIZIAYb4QgEBBAQDAgeAMAsGA1UdDwQEAwIHgDATBgNVHSUEDDAKBggrBgEFBQcD
AjAdBgNVHQ4EFgQULZ4hCJmjYjUV8bmVYQ6RvoW/RKgwgbwGA1UdIwSBtDCBsYAU
hk+4bRgqGzyPJzQp8IGfum5hDuGhgY2kgYowgYcxCzAJBgNVBAYTAkNIMQwwCgYD
VQQIEwNadWcxDDAKBgNVBAcTA1p1ZzEYMBYGA1UEChMPUGVyZmVjdCBQcml2YWN5
MRgwFgYDVQQDEw9QZXJmZWN0IFByaXZhY3kxKDAmBgkqhkiG9w0BCQEWGWFkbWlu
QHBlcmZlY3QtcHJpdmFjeS5jb22CCQD6EbXEqmmvaTANBgkqhkiG9w0BAQ0FAAOC
AgEAbHhfCLUkDJCbdm+mwyaBL4xeQAuFY/dpFvtpK3uffuNhQYtHuRqdMHNvjFEP
w96xly8vlom0WHYZMPGNMcvKs8F8/MPf6h9DEgy1+Ud8q2uqXUS2Gnx2rwNcPjjE
Jkvq0XCC8cpRtR/gYaJDK4uKum0zgeQcAlNqLlg8nkAcsNn3FctmYKtUL62cmpHV
+Bq9dCalCuBeDqMfVbe/UHuEJ2N7CrGSr4qb5K5ExMwFHSW+0p9Tq0CZHWfUV4m9
r22WP6PNDMzr5Fhbr0gVo6iZTEAjuUxH/RLImplpmZo8BBbodQEIOxXf4+NwO3q8
ajB2qJZFv7JiXY7sxX+NrJw7EKkOZHnrYKrbIJfAWwa9gzq+LvX+0Rj3nVe5Kf3X
syE0KwypSzoHD8sPNL5kTf9EkAU7ukzfey5i9XkjKdEH/1Ovyl/IFgwOaS96MqKg
T+k7mcXpkmQ9VkzxZxbXRXUjFHBotiuEv5X7eE3Q4m5IJckyOjw4ZEiakCdaUQ4Z
eidE99im0b9prwVQKwGkZZRIqrCYlY29JiWe0+SfrL0u9ueTqMX/SgBi0JGhrlV7
Ghwwcb/8ecqS5i7iTX9af4CxuVwcmIUP1Kruyw+nXtL36r1ClezNLsXZad9dlfFt
KKFdsrXHlUMXsgL9BLfpvR6RRRrfirj4RQzlXy7JcNbaA30=
-----END CERTIFICATE-----
