Certificate:
    Data:
        Version: 3 (0x2)
        Serial Number:
            9e:4e:40:62:0c:6f:24:c9
    Signature Algorithm: sha512WithRSAEncryption
        Issuer: C=CH, ST=Zug, L=Zug, O=Perfect Privacy, CN=Perfect Privacy/emailAddress=admin@perfect-privacy.com
        Validity
            Not Before: Jun  8 00:00:00 2023 GMT
            Not After : Feb  2 00:00:00 2025 GMT
        Subject: C=CH, ST=Zug, O=Perfect Privacy, CN=Client_prague.perfect-privacy.com/emailAddress=admin@perfect-privacy.com
        Subject Public Key Info:
            Public Key Algorithm: rsaEncryption
                Public-Key: (4096 bit)
                Modulus:
                    00:92:47:bf:6a:e7:a3:d7:7f:bb:f5:2e:1f:f7:9d:
                    f9:86:bf:1a:6d:16:24:c9:15:fb:64:d0:da:53:4e:
                    83:8e:c0:39:89:ae:b9:8d:e2:71:8c:07:cf:a6:e4:
                    dc:43:27:83:ea:d7:98:7a:db:22:a5:ae:81:3c:09:
                    0d:c1:db:5c:7d:8d:c0:5b:ca:a6:77:da:70:b2:62:
                    0d:15:67:7e:b8:6f:38:58:08:63:69:8c:8a:ed:95:
                    27:8b:f2:fc:fe:a2:e2:68:f5:5e:85:bd:a1:c1:35:
                    7a:ad:b9:17:57:aa:b3:ae:b0:fa:36:87:6d:2c:76:
                    17:4d:5b:49:99:9c:1f:4c:83:4c:4d:cf:0c:be:e5:
                    97:89:eb:5f:cc:af:79:57:cf:de:96:c5:d3:a9:e7:
                    90:4d:7f:ed:dd:18:27:c3:db:30:c5:e4:5a:5b:e6:
                    3a:54:0f:31:5c:e6:da:f5:70:79:70:d6:e3:79:03:
                    46:ac:79:91:4f:c6:31:ea:8b:d3:ca:31:8d:e6:85:
                    21:4f:e7:5d:50:ab:f0:cc:e3:f6:98:37:7f:e7:6b:
                    a1:e1:54:65:97:0d:ef:19:6a:fe:07:85:24:00:fb:
                    b1:72:fa:19:bb:c6:12:5b:72:45:ba:18:37:66:f5:
                    48:36:02:45:7f:40:88:4f:ca:c8:aa:a2:3e:1b:6d:
                    62:bb:89:3b:59:1a:67:f1:86:b9:81:b9:00:41:45:
                    3f:77:39:18:ba:d3:42:66:42:e6:c4:89:4c:53:ec:
                    bf:19:cd:37:0f:87:b5:3c:25:29:b2:59:5f:4f:ea:
                    f8:c5:87:15:c2:84:b7:7a:2f:3f:9a:ac:9b:e1:a9:
                    4a:38:a9:cb:03:c5:20:30:41:ed:2f:d7:c2:a1:f7:
                    bf:eb:ec:2e:2f:30:fc:b7:19:32:c0:a1:ba:31:59:
                    59:0b:c1:dd:8a:c4:b0:0c:44:2e:1b:b2:e8:57:7b:
                    0d:5e:f5:3b:ed:bc:d1:71:15:22:e2:aa:33:0d:7d:
                    e4:fd:1a:79:5b:6b:24:be:5c:7b:5f:c1:fd:0f:16:
                    c6:45:24:bb:db:c3:bf:42:5c:ce:26:99:e6:ab:8e:
                    8f:b7:92:7c:a0:62:b0:be:ee:67:2b:12:81:1d:d2:
                    21:74:6f:7d:35:31:70:0c:35:bd:98:cb:3d:e7:fa:
                    bf:73:45:1b:6d:a5:fe:b6:fa:c9:e2:ab:93:ee:73:
                    32:68:d3:39:87:2a:f2:5a:aa:e3:19:b7:3b:de:e3:
                    29:33:4a:64:8c:06:64:46:76:97:a6:f2:7c:5a:1b:
                    53:56:f2:0b:18:c3:7b:32:a8:02:64:eb:8a:56:1e:
                    3a:e4:82:9a:c9:a9:4d:2a:9b:48:38:ce:3e:0f:98:
                    95:bd:0f
                Exponent: 65537 (0x10001)
        X509v3 extensions:
            X509v3 Basic Constraints: 
                CA:FALSE
            Netscape Comment: 
                VPN User Certificate
            Netscape Cert Type: 
                SSL Client
            X509v3 Key Usage: 
                Digital Signature
            X509v3 Extended Key Usage: 
                TLS Web Client Authentication
            X509v3 Subject Key Identifier: 
                00:77:95:19:E2:FD:3D:15:59:7C:CA:9E:76:F4:D1:DA:7D:24:21:88
            X509v3 Authority Key Identifier: 
                keyid:86:4F:B8:6D:18:2A:1B:3C:8F:27:34:29:F0:81:9F:BA:6E:61:0E:E1
                DirName:/C=CH/ST=Zug/L=Zug/O=Perfect Privacy/CN=Perfect Privacy/emailAddress=admin@perfect-privacy.com
                serial:FA:11:B5:C4:AA:69:AF:69

    Signature Algorithm: sha512WithRSAEncryption
         5d:b2:1f:db:44:18:b4:5d:36:17:dc:09:9d:25:47:93:a0:93:
         69:64:4e:80:c6:d8:11:1e:88:21:3e:e1:0b:95:ff:97:54:5b:
         a0:fb:27:0a:3f:8a:ce:94:a7:fc:7b:d4:e2:e7:a1:14:ff:64:
         65:e5:f9:86:74:d5:a7:0d:9a:14:e6:8f:87:08:cf:43:5e:6f:
         ff:27:02:e8:71:23:5f:68:b0:1d:84:a6:e5:76:44:98:86:92:
         49:c7:9a:af:06:1c:d8:72:be:d0:c1:8c:42:5b:3f:ac:1d:4e:
         50:0c:39:55:18:fd:12:c4:31:6f:0d:7c:02:83:8e:fe:01:84:
         e9:bb:5d:01:b6:0b:2f:b1:ef:78:59:34:19:d1:5d:ac:33:b9:
         4a:92:77:75:67:1b:b3:a6:9e:9b:0e:07:af:9f:35:73:78:51:
         8d:33:8a:61:2d:8b:ab:97:1c:3c:39:7a:47:11:3a:10:c7:d0:
         df:ee:24:12:58:1b:f2:e7:3c:6e:32:bf:11:06:91:65:e2:71:
         f9:f8:e8:b3:e4:2c:98:ce:99:cb:f7:70:94:d9:77:c3:76:d3:
         da:0f:5c:b8:56:86:24:f7:59:2e:7b:97:af:67:7f:a6:bf:f3:
         91:23:67:b9:39:c3:fc:71:52:5c:ad:97:8a:51:39:ea:93:49:
         b9:a7:84:81:d4:ae:31:e2:1c:01:7d:40:d0:16:91:78:29:f3:
         c8:56:d4:cf:c4:5c:b3:5c:3e:73:63:ad:e3:1e:36:37:90:8b:
         cb:de:44:91:f8:a9:d7:56:34:f2:6d:d2:8e:f3:27:25:3c:5a:
         12:4f:fd:2d:70:93:3d:2d:15:81:55:36:b6:3e:ab:99:a9:af:
         2e:39:af:1a:37:9c:f0:28:23:13:e0:4e:b6:b9:ff:ee:02:89:
         9f:8b:3e:ba:f7:94:33:49:bc:86:d8:12:33:63:af:b8:d6:d7:
         51:5b:67:ca:c5:04:c3:ab:11:c6:e2:3e:88:83:81:00:03:98:
         81:dd:55:66:0f:b1:88:82:d0:5b:21:ea:f7:b9:d1:bb:4f:da:
         5b:7a:f2:74:9d:a2:91:3e:bf:f8:ef:b0:5d:6f:63:d9:b8:58:
         6d:3f:8e:5e:9c:52:82:26:dd:de:85:52:67:7b:67:2e:66:0e:
         ec:0d:75:7e:c0:07:89:c0:45:b0:d3:e2:d5:66:8d:17:d9:31:
         12:33:23:23:63:65:51:38:c0:66:d6:36:03:61:8d:cc:02:95:
         2f:58:70:42:68:e8:20:53:d1:ba:78:49:45:e3:94:8c:e2:c0:
         5c:d6:c8:99:e9:4e:e4:87:5b:ab:27:ac:5d:9d:26:6e:47:36:
         7f:a4:d5:f4:88:62:f7:88
-----BEGIN CERTIFICATE-----
MIIG4DCCBMigAwIBAgIJAJ5OQGIMbyTJMA0GCSqGSIb3DQEBDQUAMIGHMQswCQYD
VQQGEwJDSDEMMAoGA1UECBMDWnVnMQwwCgYDVQQHEwNadWcxGDAWBgNVBAoTD1Bl
cmZlY3QgUHJpdmFjeTEYMBYGA1UEAxMPUGVyZmVjdCBQcml2YWN5MSgwJgYJKoZI
hvcNAQkBFhlhZG1pbkBwZXJmZWN0LXByaXZhY3kuY29tMB4XDTIzMDYwODAwMDAw
MFoXDTI1MDIwMjAwMDAwMFowgYsxCzAJBgNVBAYTAkNIMQwwCgYDVQQIEwNadWcx
GDAWBgNVBAoTD1BlcmZlY3QgUHJpdmFjeTEqMCgGA1UEAxQhQ2xpZW50X3ByYWd1
ZS5wZXJmZWN0LXByaXZhY3kuY29tMSgwJgYJKoZIhvcNAQkBFhlhZG1pbkBwZXJm
ZWN0LXByaXZhY3kuY29tMIICIjANBgkqhkiG9w0BAQEFAAOCAg8AMIICCgKCAgEA
kke/auej13+79S4f9535hr8abRYkyRX7ZNDaU06DjsA5ia65jeJxjAfPpuTcQyeD
6teYetsipa6BPAkNwdtcfY3AW8qmd9pwsmINFWd+uG84WAhjaYyK7ZUni/L8/qLi
aPVehb2hwTV6rbkXV6qzrrD6NodtLHYXTVtJmZwfTINMTc8MvuWXietfzK95V8/e
lsXTqeeQTX/t3Rgnw9swxeRaW+Y6VA8xXOba9XB5cNbjeQNGrHmRT8Yx6ovTyjGN
5oUhT+ddUKvwzOP2mDd/52uh4VRllw3vGWr+B4UkAPuxcvoZu8YSW3JFuhg3ZvVI
NgJFf0CIT8rIqqI+G21iu4k7WRpn8Ya5gbkAQUU/dzkYutNCZkLmxIlMU+y/Gc03
D4e1PCUpsllfT+r4xYcVwoS3ei8/mqyb4alKOKnLA8UgMEHtL9fCofe/6+wuLzD8
txkywKG6MVlZC8HdisSwDEQuG7LoV3sNXvU77bzRcRUi4qozDX3k/Rp5W2skvlx7
X8H9DxbGRSS728O/QlzOJpnmq46Pt5J8oGKwvu5nKxKBHdIhdG99NTFwDDW9mMs9
5/q/c0UbbaX+tvrJ4quT7nMyaNM5hyryWqrjGbc73uMpM0pkjAZkRnaXpvJ8WhtT
VvILGMN7MqgCZOuKVh465IKayalNKptIOM4+D5iVvQ8CAwEAAaOCAUcwggFDMAkG
A1UdEwQCMAAwIwYJYIZIAYb4QgENBBYWFFZQTiBVc2VyIENlcnRpZmljYXRlMBEG
CWCGSAGG+EIBAQQEAwIHgDALBgNVHQ8EBAMCB4AwEwYDVR0lBAwwCgYIKwYBBQUH
AwIwHQYDVR0OBBYEFAB3lRni/T0VWXzKnnb00dp9JCGIMIG8BgNVHSMEgbQwgbGA
FIZPuG0YKhs8jyc0KfCBn7puYQ7hoYGNpIGKMIGHMQswCQYDVQQGEwJDSDEMMAoG
A1UECBMDWnVnMQwwCgYDVQQHEwNadWcxGDAWBgNVBAoTD1BlcmZlY3QgUHJpdmFj
eTEYMBYGA1UEAxMPUGVyZmVjdCBQcml2YWN5MSgwJgYJKoZIhvcNAQkBFhlhZG1p
bkBwZXJmZWN0LXByaXZhY3kuY29tggkA+hG1xKppr2kwDQYJKoZIhvcNAQENBQAD
ggIBAF2yH9tEGLRdNhfcCZ0lR5Ogk2lkToDG2BEeiCE+4QuV/5dUW6D7Jwo/is6U
p/x71OLnoRT/ZGXl+YZ01acNmhTmj4cIz0Neb/8nAuhxI19osB2EpuV2RJiGkknH
mq8GHNhyvtDBjEJbP6wdTlAMOVUY/RLEMW8NfAKDjv4BhOm7XQG2Cy+x73hZNBnR
XawzuUqSd3VnG7OmnpsOB6+fNXN4UY0zimEti6uXHDw5ekcROhDH0N/uJBJYG/Ln
PG4yvxEGkWXicfn46LPkLJjOmcv3cJTZd8N209oPXLhWhiT3WS57l69nf6a/85Ej
Z7k5w/xxUlytl4pROeqTSbmnhIHUrjHiHAF9QNAWkXgp88hW1M/EXLNcPnNjreMe
NjeQi8veRJH4qddWNPJt0o7zJyU8WhJP/S1wkz0tFYFVNrY+q5mpry45rxo3nPAo
IxPgTra5/+4CiZ+LPrr3lDNJvIbYEjNjr7jW11FbZ8rFBMOrEcbiPoiDgQADmIHd
VWYPsYiC0Fsh6ve50btP2lt68nSdopE+v/jvsF1vY9m4WG0/jl6cUoIm3d6FUmd7
Zy5mDuwNdX7AB4nARbDT4tVmjRfZMRIzIyNjZVE4wGbWNgNhjcwClS9YcEJo6CBT
0bp4SUXjlIziwFzWyJnpTuSHW6snrF2dJm5HNn+k1fSIYveI
-----END CERTIFICATE-----
