Certificate:
    Data:
        Version: 3 (0x2)
        Serial Number:
            93:b8:5b:e6:ec:61:83:33
    Signature Algorithm: sha512WithRSAEncryption
        Issuer: C=CH, ST=Zug, L=Zug, O=Perfect Privacy, CN=Perfect Privacy/emailAddress=admin@perfect-privacy.com
        Validity
            Not Before: Jul 23 00:00:00 2023 GMT
            Not After : Mar 19 00:00:00 2025 GMT
        Subject: C=CH, ST=Zug, O=Perfect Privacy, CN=Client_reykjavik.perfect-privacy.com/emailAddress=admin@perfect-privacy.com
        Subject Public Key Info:
            Public Key Algorithm: rsaEncryption
                Public-Key: (4096 bit)
                Modulus:
                    00:b2:38:53:3d:f0:3d:3d:fe:18:97:45:28:58:20:
                    48:5b:f9:a5:16:06:e0:d0:db:a7:74:78:b1:5b:86:
                    55:4f:71:e3:aa:31:8d:2a:31:1b:8b:d3:e4:67:c1:
                    57:97:bb:c1:17:eb:b9:ef:94:bf:2c:6c:59:4e:59:
                    97:93:5b:42:59:c8:f2:81:51:23:af:74:a8:c2:08:
                    f7:60:28:8a:95:10:8a:24:7a:1c:10:c0:11:a5:52:
                    e2:9e:4f:4b:7c:35:05:33:88:69:4f:ff:5a:7c:f7:
                    10:fe:ad:a6:fd:50:12:72:c8:19:cb:d1:36:e4:af:
                    bb:57:13:7a:16:83:18:2c:05:49:35:8e:fa:b6:f6:
                    ec:20:66:af:92:07:67:a3:71:ad:35:f5:2b:6f:c5:
                    17:c9:ef:7e:af:46:e8:10:9c:98:ee:bd:28:a5:d8:
                    d3:1d:f1:94:ba:c6:5a:15:8d:60:da:11:e3:34:60:
                    7c:3e:91:82:e1:c7:11:7a:88:10:3c:37:c9:4d:43:
                    f9:86:6d:7c:3a:b2:07:57:a8:70:e7:8b:2b:b9:a8:
                    ad:e9:fd:b4:b5:cd:a6:d9:7a:b9:6b:37:b3:31:d6:
                    8e:d7:ed:10:12:cf:88:08:9a:a7:39:5f:99:4c:50:
                    ab:e9:25:ce:07:18:aa:44:db:7e:fb:24:b2:36:cf:
                    f1:2e:36:dd:06:56:31:13:4a:e0:f1:1d:85:01:b0:
                    d9:75:a4:60:97:2a:2e:73:d1:8e:00:7b:b2:a6:d4:
                    c6:bd:59:5a:e5:4c:5f:79:dc:c0:95:e8:5e:b7:5a:
                    3d:a6:db:da:2f:c7:14:89:47:2f:ad:72:4b:10:a3:
                    95:a4:8c:34:2e:4f:32:f2:29:ce:63:3a:df:ff:37:
                    9b:53:8e:8c:47:2c:24:90:e5:73:c3:e3:9b:20:03:
                    4d:51:2d:eb:84:d3:1b:d7:f4:2b:c9:45:5e:d8:ea:
                    3a:f0:57:e1:8b:5b:cb:97:65:c9:8a:77:9c:00:f8:
                    63:93:71:2e:da:12:ed:b3:08:b1:0f:cd:b1:44:49:
                    83:05:1a:dd:8c:24:6d:b0:bf:2a:b0:f6:1e:4a:99:
                    3b:84:8c:5d:7e:c5:f1:0b:ec:1c:31:dd:ae:8b:40:
                    27:c7:c3:71:27:4a:4c:4f:97:47:1c:43:49:25:64:
                    5d:32:17:30:84:01:d6:29:a8:96:f0:61:7a:33:5b:
                    54:95:13:32:64:ed:c9:e1:b9:f8:7e:3e:71:ca:56:
                    8d:7b:f2:8a:13:3e:e4:7b:93:96:ca:9c:62:44:76:
                    79:6e:e0:b9:f4:e1:be:36:cb:54:be:43:11:e4:7e:
                    66:c8:b9:07:0d:0f:a7:1a:cf:f9:36:b8:82:3f:9e:
                    15:bb:95
                Exponent: 65537 (0x10001)
        X509v3 extensions:
            X509v3 Basic Constraints: 
                CA:FALSE
            Netscape Comment: 
                VPN User Certificate
            Netscape Cert Type: 
                SSL Client
            X509v3 Key Usage: 
                Digital Signature
            X509v3 Extended Key Usage: 
                TLS Web Client Authentication
            X509v3 Subject Key Identifier: 
                D0:C1:17:87:48:78:B3:70:13:A1:14:7C:43:49:BA:3D:03:12:C5:70
            X509v3 Authority Key Identifier: 
                keyid:86:4F:B8:6D:18:2A:1B:3C:8F:27:34:29:F0:81:9F:BA:6E:61:0E:E1
                DirName:/C=CH/ST=Zug/L=Zug/O=Perfect Privacy/CN=Perfect Privacy/emailAddress=admin@perfect-privacy.com
                serial:FA:11:B5:C4:AA:69:AF:69

    Signature Algorithm: sha512WithRSAEncryption
         3a:de:65:a0:c0:ae:9a:c9:4c:d7:da:94:94:b0:9d:12:88:a0:
         22:65:0c:90:0e:54:36:ed:a7:ca:0d:87:3c:24:f0:5a:1b:98:
         3f:e2:e6:b7:e5:22:ab:39:a4:d6:c9:85:95:26:1f:a1:f7:a6:
         f9:42:0b:86:ab:77:be:2e:5b:2a:2c:ec:75:e0:f9:fb:1d:c3:
         5a:f0:3c:2e:48:47:81:93:e4:34:be:b1:97:b3:6b:9f:68:b9:
         a1:f3:1c:97:c5:19:26:ec:69:86:81:fb:e3:38:2a:84:f4:3c:
         75:fa:3c:7b:88:75:3b:b8:87:9e:3d:12:a6:1b:f8:3e:6e:8c:
         b4:5b:84:98:c8:5f:cb:64:45:8c:6d:dd:40:43:66:d9:23:8a:
         1a:e2:39:5f:79:1a:31:a1:36:8a:27:6c:b9:a8:42:13:84:4b:
         61:30:60:b1:f0:ae:28:39:82:ae:b2:7e:04:f8:6b:24:b0:c5:
         cb:52:44:d5:45:77:da:93:b2:66:ca:b4:ef:3d:02:d1:ad:19:
         1d:b4:e6:9f:18:17:04:07:24:36:6c:2f:c0:cf:ef:b5:56:f3:
         c3:af:c4:8f:61:e0:30:70:e5:26:67:9a:d1:61:63:8d:41:a9:
         94:d4:7c:6d:e2:74:10:64:f4:b4:46:60:09:a8:87:48:5c:7a:
         1c:35:1f:09:84:93:f7:24:8d:44:bd:9e:6b:47:c7:5e:13:8c:
         0a:03:5c:29:95:11:d9:4c:08:d2:94:74:e0:bf:d2:16:69:92:
         0e:94:80:85:49:1e:5a:68:98:ed:ce:8a:08:a1:74:e8:dc:a1:
         14:17:a3:f4:de:02:42:70:2a:ce:9b:53:3d:e3:c3:99:f2:f7:
         2f:a0:28:72:2a:86:66:06:10:44:f7:b7:23:29:4f:ae:43:9b:
         ac:d3:20:7c:71:70:5c:cb:a0:0c:f6:e9:26:cd:77:52:b0:55:
         50:43:d0:c1:1e:11:ab:12:4a:60:c7:b9:40:17:96:ea:cf:81:
         41:40:c1:72:10:02:eb:2a:0a:50:96:83:e2:69:38:77:f6:54:
         50:00:4a:8e:c1:3a:57:3f:f2:89:3a:1d:9b:1f:09:0f:26:8d:
         0b:b4:11:d7:a9:87:8e:a4:77:e9:85:8e:4d:6c:38:4d:24:20:
         da:47:7c:23:3e:e6:b1:18:5c:75:dd:cc:9f:be:a3:3e:35:68:
         a2:22:45:92:6f:a9:43:34:31:80:42:f3:1d:69:ee:59:aa:53:
         43:eb:32:35:0e:b1:67:ce:65:b1:91:0a:a1:89:c8:6f:34:a1:
         36:87:0d:a0:d7:82:e3:65:f1:5a:4a:fc:4c:99:0f:71:6a:5d:
         23:42:21:ef:78:1f:22:fa
-----BEGIN CERTIFICATE-----
MIIG4zCCBMugAwIBAgIJAJO4W+bsYYMzMA0GCSqGSIb3DQEBDQUAMIGHMQswCQYD
VQQGEwJDSDEMMAoGA1UECBMDWnVnMQwwCgYDVQQHEwNadWcxGDAWBgNVBAoTD1Bl
cmZlY3QgUHJpdmFjeTEYMBYGA1UEAxMPUGVyZmVjdCBQcml2YWN5MSgwJgYJKoZI
hvcNAQkBFhlhZG1pbkBwZXJmZWN0LXByaXZhY3kuY29tMB4XDTIzMDcyMzAwMDAw
MFoXDTI1MDMxOTAwMDAwMFowgY4xCzAJBgNVBAYTAkNIMQwwCgYDVQQIEwNadWcx
GDAWBgNVBAoTD1BlcmZlY3QgUHJpdmFjeTEtMCsGA1UEAxQkQ2xpZW50X3JleWtq
YXZpay5wZXJmZWN0LXByaXZhY3kuY29tMSgwJgYJKoZIhvcNAQkBFhlhZG1pbkBw
ZXJmZWN0LXByaXZhY3kuY29tMIICIjANBgkqhkiG9w0BAQEFAAOCAg8AMIICCgKC
AgEAsjhTPfA9Pf4Yl0UoWCBIW/mlFgbg0NundHixW4ZVT3HjqjGNKjEbi9PkZ8FX
l7vBF+u575S/LGxZTlmXk1tCWcjygVEjr3Sowgj3YCiKlRCKJHocEMARpVLink9L
fDUFM4hpT/9afPcQ/q2m/VAScsgZy9E25K+7VxN6FoMYLAVJNY76tvbsIGavkgdn
o3GtNfUrb8UXye9+r0boEJyY7r0opdjTHfGUusZaFY1g2hHjNGB8PpGC4ccReogQ
PDfJTUP5hm18OrIHV6hw54sruait6f20tc2m2Xq5azezMdaO1+0QEs+ICJqnOV+Z
TFCr6SXOBxiqRNt++ySyNs/xLjbdBlYxE0rg8R2FAbDZdaRglyouc9GOAHuyptTG
vVla5UxfedzAlehet1o9ptvaL8cUiUcvrXJLEKOVpIw0Lk8y8inOYzrf/zebU46M
RywkkOVzw+ObIANNUS3rhNMb1/QryUVe2Oo68Ffhi1vLl2XJinecAPhjk3Eu2hLt
swixD82xREmDBRrdjCRtsL8qsPYeSpk7hIxdfsXxC+wcMd2ui0Anx8NxJ0pMT5dH
HENJJWRdMhcwhAHWKaiW8GF6M1tUlRMyZO3J4bn4fj5xylaNe/KKEz7ke5OWypxi
RHZ5buC59OG+NstUvkMR5H5myLkHDQ+nGs/5NriCP54Vu5UCAwEAAaOCAUcwggFD
MAkGA1UdEwQCMAAwIwYJYIZIAYb4QgENBBYWFFZQTiBVc2VyIENlcnRpZmljYXRl
MBEGCWCGSAGG+EIBAQQEAwIHgDALBgNVHQ8EBAMCB4AwEwYDVR0lBAwwCgYIKwYB
BQUHAwIwHQYDVR0OBBYEFNDBF4dIeLNwE6EUfENJuj0DEsVwMIG8BgNVHSMEgbQw
gbGAFIZPuG0YKhs8jyc0KfCBn7puYQ7hoYGNpIGKMIGHMQswCQYDVQQGEwJDSDEM
MAoGA1UECBMDWnVnMQwwCgYDVQQHEwNadWcxGDAWBgNVBAoTD1BlcmZlY3QgUHJp
dmFjeTEYMBYGA1UEAxMPUGVyZmVjdCBQcml2YWN5MSgwJgYJKoZIhvcNAQkBFhlh
ZG1pbkBwZXJmZWN0LXByaXZhY3kuY29tggkA+hG1xKppr2kwDQYJKoZIhvcNAQEN
BQADggIBADreZaDArprJTNfalJSwnRKIoCJlDJAOVDbtp8oNhzwk8FobmD/i5rfl
Iqs5pNbJhZUmH6H3pvlCC4ard74uWyos7HXg+fsdw1rwPC5IR4GT5DS+sZeza59o
uaHzHJfFGSbsaYaB++M4KoT0PHX6PHuIdTu4h549EqYb+D5ujLRbhJjIX8tkRYxt
3UBDZtkjihriOV95GjGhNoonbLmoQhOES2EwYLHwrig5gq6yfgT4aySwxctSRNVF
d9qTsmbKtO89AtGtGR205p8YFwQHJDZsL8DP77VW88OvxI9h4DBw5SZnmtFhY41B
qZTUfG3idBBk9LRGYAmoh0hcehw1HwmEk/ckjUS9nmtHx14TjAoDXCmVEdlMCNKU
dOC/0hZpkg6UgIVJHlpomO3OigihdOjcoRQXo/TeAkJwKs6bUz3jw5ny9y+gKHIq
hmYGEET3tyMpT65Dm6zTIHxxcFzLoAz26SbNd1KwVVBD0MEeEasSSmDHuUAXlurP
gUFAwXIQAusqClCWg+JpOHf2VFAASo7BOlc/8ok6HZsfCQ8mjQu0Edeph46kd+mF
jk1sOE0kINpHfCM+5rEYXHXdzJ++oz41aKIiRZJvqUM0MYBC8x1p7lmqU0PrMjUO
sWfOZbGRCqGJyG80oTaHDaDXguNl8VpK/EyZD3FqXSNCIe94HyL6
-----END CERTIFICATE-----
