Certificate:
    Data:
        Version: 3 (0x2)
        Serial Number: 2549980598901516162 (0x236359d825a9a782)
    Signature Algorithm: sha512WithRSAEncryption
        Issuer: C=CH, ST=Zug, L=Zug, O=Perfect Privacy, CN=Perfect Privacy/emailAddress=admin@perfect-privacy.com
        Validity
            Not Before: Dec 14 00:00:00 2022 GMT
            Not After : Aug 10 00:00:00 2024 GMT
        Subject: C=CH, ST=Zug, O=Perfect Privacy, CN=Client_rotterdam.perfect-privacy.com/emailAddress=admin@perfect-privacy.com
        Subject Public Key Info:
            Public Key Algorithm: rsaEncryption
                Public-Key: (4096 bit)
                Modulus:
                    00:b0:98:5a:40:b7:2c:c2:4b:6a:74:a7:40:b9:1a:
                    31:80:0a:6a:3f:89:e6:ec:82:b9:2d:60:79:45:41:
                    d1:77:ed:82:58:25:77:46:0a:b9:00:ca:63:2c:17:
                    10:51:24:85:90:79:44:59:36:65:dd:55:ad:94:b0:
                    7e:50:86:07:94:eb:a1:11:ef:14:5e:ee:6f:10:4a:
                    78:97:df:ab:ec:1b:2b:02:f4:4d:3a:98:de:28:0f:
                    d1:a5:2a:3e:93:4f:6a:11:1c:5d:2f:4a:ed:9d:db:
                    c8:fe:1a:e9:77:fa:a1:a5:ba:2f:b7:1c:2c:3e:47:
                    3a:26:4c:6e:6d:34:dd:4c:5c:83:0d:43:3f:ce:c6:
                    8a:b7:ea:05:71:ff:97:44:a6:53:5c:e3:32:ea:57:
                    c5:36:52:83:f9:da:30:7c:bf:45:d7:92:ee:5a:e1:
                    b9:22:e6:2d:57:12:dd:f4:92:f5:7a:88:df:d8:32:
                    96:2d:e9:e3:97:b2:47:cb:e0:b7:f7:1e:d2:d0:8d:
                    dd:23:b4:2e:e6:9b:96:da:a1:6a:f7:a6:d9:1b:67:
                    11:28:05:6e:19:57:7d:4e:dc:eb:ee:ca:c9:0d:d8:
                    de:bf:5f:cf:9c:99:66:e9:56:86:f7:5a:17:6f:bf:
                    86:27:0e:fb:1d:6e:21:c4:e2:f6:8c:19:72:8d:d4:
                    e8:f7:b2:83:42:75:bc:c3:70:6a:98:7d:72:04:c2:
                    49:d5:af:c9:6b:51:ff:8e:2f:2f:75:2e:5a:0a:a4:
                    cc:e9:95:03:51:74:1a:60:1b:e5:6f:99:0d:55:be:
                    7d:9b:b2:3a:14:e7:a5:c6:09:c4:d4:2c:6b:f4:68:
                    e0:81:02:4c:07:4e:41:03:4a:a7:c3:b3:4f:8d:31:
                    77:86:4e:ec:39:e9:48:5e:8e:97:64:0a:5d:d9:7d:
                    f1:00:92:6e:d4:90:e1:16:a1:7b:2f:49:9a:a6:de:
                    a8:9e:69:19:1d:d2:9a:ea:0a:2a:a2:cc:a0:40:7c:
                    61:0b:e9:33:47:ed:e6:a1:3e:e2:86:34:97:71:a3:
                    41:0a:35:6c:8c:0b:d3:e4:3d:86:22:7d:cd:be:0a:
                    21:f2:80:43:01:25:ef:69:ff:04:29:3d:ff:61:d3:
                    ee:cd:d1:85:d7:1b:54:cd:76:66:6a:e7:ce:24:c2:
                    ea:f8:e9:07:93:0c:e2:ca:10:ad:18:9a:40:db:a9:
                    1d:58:31:dd:4a:d8:20:ee:07:de:61:6b:8c:0e:fa:
                    6d:de:1e:cc:18:79:a0:98:b9:c7:e0:00:38:5d:91:
                    9c:37:36:d3:72:dc:72:45:6c:0e:8a:6e:60:62:db:
                    0b:5f:f5:5b:0b:3c:f6:11:f2:d5:30:d5:33:1c:7a:
                    66:7b:5d
                Exponent: 65537 (0x10001)
        X509v3 extensions:
            X509v3 Basic Constraints: 
                CA:FALSE
            Netscape Comment: 
                VPN User Certificate
            Netscape Cert Type: 
                SSL Client
            X509v3 Key Usage: 
                Digital Signature
            X509v3 Extended Key Usage: 
                TLS Web Client Authentication
            X509v3 Subject Key Identifier: 
                79:FF:C9:E5:6E:50:F1:77:A9:42:51:EB:B0:54:CB:32:98:C6:48:B8
            X509v3 Authority Key Identifier: 
                keyid:86:4F:B8:6D:18:2A:1B:3C:8F:27:34:29:F0:81:9F:BA:6E:61:0E:E1
                DirName:/C=CH/ST=Zug/L=Zug/O=Perfect Privacy/CN=Perfect Privacy/emailAddress=admin@perfect-privacy.com
                serial:FA:11:B5:C4:AA:69:AF:69

    Signature Algorithm: sha512WithRSAEncryption
         55:32:ba:6d:a0:71:39:09:7f:c4:ae:22:bd:89:b6:69:6a:ca:
         15:df:86:b5:76:69:ef:df:c6:14:7e:f1:71:ad:28:8e:69:38:
         4e:73:49:e8:04:7e:81:1d:0c:9a:7b:30:67:f7:ea:59:2d:f9:
         01:4f:df:ef:20:31:fe:8e:a3:ec:d4:b9:e0:92:68:e2:5a:02:
         fd:fc:14:56:8b:e4:ba:f1:3b:c0:e8:44:0b:45:89:d6:7f:52:
         9d:4a:f2:5a:63:85:c0:4b:de:4e:8e:f6:4b:b2:39:66:d3:cc:
         34:96:1d:e4:3a:3f:63:6c:c1:40:0d:b9:c8:57:8f:4f:91:4a:
         f1:fc:22:cb:ea:db:48:cc:44:cb:55:6a:33:46:1a:f1:ca:a2:
         72:1f:6b:36:4a:b1:c9:48:99:e2:16:23:26:e4:40:83:60:e7:
         84:8b:dd:39:83:00:1b:a3:57:35:dc:36:6e:1c:77:0d:cb:18:
         5b:86:46:16:61:5b:94:e3:30:4a:ff:f3:8b:de:01:ef:f2:f7:
         e3:ee:65:01:ad:aa:9f:d0:a5:39:4d:fd:9b:a1:31:71:bb:13:
         0d:ad:c3:4a:ac:f2:f0:be:6a:0d:9f:d0:1f:ae:13:f6:4b:d5:
         ff:d8:c2:68:6b:74:18:b0:81:bb:16:64:4c:14:2e:ba:ba:25:
         db:bc:30:c5:21:65:2b:66:61:2e:1c:1d:dd:2c:99:3d:b1:4b:
         19:15:77:2c:51:eb:a7:46:45:11:5b:bd:1a:3f:26:c1:19:48:
         d1:91:08:9c:bd:73:17:ec:aa:d4:ae:57:ef:cb:f1:fe:c0:b9:
         d5:a1:4e:96:bc:24:a2:f8:f0:36:b6:06:74:b6:c9:72:b3:4a:
         92:7e:4d:c6:b5:69:21:f8:73:d7:b0:fe:a1:d8:fa:ea:eb:22:
         c5:34:53:e2:5c:07:ff:b8:75:4f:2c:96:26:6f:c0:e8:5f:bb:
         9d:ff:30:30:4f:98:87:85:82:4b:7e:50:4b:3c:d2:d5:b0:34:
         2d:26:b5:9e:55:a9:01:6d:02:5c:93:14:f1:43:e8:18:33:df:
         5e:c4:9b:15:aa:10:2b:0e:9a:b7:3f:1d:e3:d3:b0:37:52:2b:
         03:6e:9c:61:b9:56:10:49:cf:89:6d:cd:b1:0c:e4:ef:3e:c5:
         56:56:78:7e:6b:a7:20:9d:b0:94:e8:5f:2a:43:e9:4b:2b:2a:
         0c:f0:a2:0d:95:0e:92:b7:44:af:62:a1:fa:c4:54:95:ec:50:
         8f:e1:90:c4:a1:55:cc:c9:83:a6:f4:db:49:19:a0:dc:d3:f2:
         60:96:28:e0:cf:90:f2:4d:b4:eb:77:4e:1b:59:74:f7:81:6f:
         33:31:6a:0e:cc:b2:58:4c
-----BEGIN CERTIFICATE-----
MIIG4jCCBMqgAwIBAgIII2NZ2CWpp4IwDQYJKoZIhvcNAQENBQAwgYcxCzAJBgNV
BAYTAkNIMQwwCgYDVQQIEwNadWcxDDAKBgNVBAcTA1p1ZzEYMBYGA1UEChMPUGVy
ZmVjdCBQcml2YWN5MRgwFgYDVQQDEw9QZXJmZWN0IFByaXZhY3kxKDAmBgkqhkiG
9w0BCQEWGWFkbWluQHBlcmZlY3QtcHJpdmFjeS5jb20wHhcNMjIxMjE0MDAwMDAw
WhcNMjQwODEwMDAwMDAwWjCBjjELMAkGA1UEBhMCQ0gxDDAKBgNVBAgTA1p1ZzEY
MBYGA1UEChMPUGVyZmVjdCBQcml2YWN5MS0wKwYDVQQDFCRDbGllbnRfcm90dGVy
ZGFtLnBlcmZlY3QtcHJpdmFjeS5jb20xKDAmBgkqhkiG9w0BCQEWGWFkbWluQHBl
cmZlY3QtcHJpdmFjeS5jb20wggIiMA0GCSqGSIb3DQEBAQUAA4ICDwAwggIKAoIC
AQCwmFpAtyzCS2p0p0C5GjGACmo/iebsgrktYHlFQdF37YJYJXdGCrkAymMsFxBR
JIWQeURZNmXdVa2UsH5QhgeU66ER7xRe7m8QSniX36vsGysC9E06mN4oD9GlKj6T
T2oRHF0vSu2d28j+Gul3+qGlui+3HCw+RzomTG5tNN1MXIMNQz/Oxoq36gVx/5dE
plNc4zLqV8U2UoP52jB8v0XXku5a4bki5i1XEt30kvV6iN/YMpYt6eOXskfL4Lf3
HtLQjd0jtC7mm5baoWr3ptkbZxEoBW4ZV31O3OvuyskN2N6/X8+cmWbpVob3Whdv
v4YnDvsdbiHE4vaMGXKN1Oj3soNCdbzDcGqYfXIEwknVr8lrUf+OLy91LloKpMzp
lQNRdBpgG+VvmQ1Vvn2bsjoU56XGCcTULGv0aOCBAkwHTkEDSqfDs0+NMXeGTuw5
6UhejpdkCl3ZffEAkm7UkOEWoXsvSZqm3qieaRkd0prqCiqizKBAfGEL6TNH7eah
PuKGNJdxo0EKNWyMC9PkPYYifc2+CiHygEMBJe9p/wQpPf9h0+7N0YXXG1TNdmZq
584kwur46QeTDOLKEK0YmkDbqR1YMd1K2CDuB95ha4wO+m3eHswYeaCYucfgADhd
kZw3NtNy3HJFbA6KbmBi2wtf9VsLPPYR8tUw1TMcemZ7XQIDAQABo4IBRzCCAUMw
CQYDVR0TBAIwADAjBglghkgBhvhCAQ0EFhYUVlBOIFVzZXIgQ2VydGlmaWNhdGUw
EQYJYIZIAYb4QgEBBAQDAgeAMAsGA1UdDwQEAwIHgDATBgNVHSUEDDAKBggrBgEF
BQcDAjAdBgNVHQ4EFgQUef/J5W5Q8XepQlHrsFTLMpjGSLgwgbwGA1UdIwSBtDCB
sYAUhk+4bRgqGzyPJzQp8IGfum5hDuGhgY2kgYowgYcxCzAJBgNVBAYTAkNIMQww
CgYDVQQIEwNadWcxDDAKBgNVBAcTA1p1ZzEYMBYGA1UEChMPUGVyZmVjdCBQcml2
YWN5MRgwFgYDVQQDEw9QZXJmZWN0IFByaXZhY3kxKDAmBgkqhkiG9w0BCQEWGWFk
bWluQHBlcmZlY3QtcHJpdmFjeS5jb22CCQD6EbXEqmmvaTANBgkqhkiG9w0BAQ0F
AAOCAgEAVTK6baBxOQl/xK4ivYm2aWrKFd+GtXZp79/GFH7xca0ojmk4TnNJ6AR+
gR0MmnswZ/fqWS35AU/f7yAx/o6j7NS54JJo4loC/fwUVovkuvE7wOhEC0WJ1n9S
nUryWmOFwEveTo72S7I5ZtPMNJYd5Do/Y2zBQA25yFePT5FK8fwiy+rbSMxEy1Vq
M0Ya8cqich9rNkqxyUiZ4hYjJuRAg2DnhIvdOYMAG6NXNdw2bhx3DcsYW4ZGFmFb
lOMwSv/zi94B7/L34+5lAa2qn9ClOU39m6ExcbsTDa3DSqzy8L5qDZ/QH64T9kvV
/9jCaGt0GLCBuxZkTBQuurol27wwxSFlK2ZhLhwd3SyZPbFLGRV3LFHrp0ZFEVu9
Gj8mwRlI0ZEInL1zF+yq1K5X78vx/sC51aFOlrwkovjwNrYGdLbJcrNKkn5NxrVp
Ifhz17D+odj66usixTRT4lwH/7h1TyyWJm/A6F+7nf8wME+Yh4WCS35QSzzS1bA0
LSa1nlWpAW0CXJMU8UPoGDPfXsSbFaoQKw6atz8d49OwN1IrA26cYblWEEnPiW3N
sQzk7z7FVlZ4fmunIJ2wlOhfKkPpSysqDPCiDZUOkrdEr2Kh+sRUlexQj+GQxKFV
zMmDpvTbSRmg3NPyYJYo4M+Q8k2063dOG1l094FvMzFqDsyyWEw=
-----END CERTIFICATE-----
