Certificate:
    Data:
        Version: 3 (0x2)
        Serial Number: 198551812361558451 (0x2c165d2455219b3)
    Signature Algorithm: sha512WithRSAEncryption
        Issuer: C=CH, ST=Zug, L=Zug, O=Perfect Privacy, CN=Perfect Privacy/emailAddress=admin@perfect-privacy.com
        Validity
            Not Before: Feb  8 00:00:00 2023 GMT
            Not After : Oct  5 00:00:00 2024 GMT
        Subject: C=CH, ST=Zug, O=Perfect Privacy, CN=Client_rotterdam.perfect-privacy.com/emailAddress=admin@perfect-privacy.com
        Subject Public Key Info:
            Public Key Algorithm: rsaEncryption
                Public-Key: (4096 bit)
                Modulus:
                    00:b6:a0:25:43:0b:a5:d8:74:ca:dd:f3:ff:12:03:
                    10:49:84:e4:8f:b2:89:8e:ff:95:b9:a6:c1:02:48:
                    77:f8:bf:3b:a5:53:6f:fd:c6:62:03:db:96:fd:ab:
                    ff:46:8a:b8:b1:ae:5a:b2:e2:65:a0:43:92:82:b9:
                    6b:d9:ec:72:70:b4:f6:3f:30:37:9d:f3:1c:b2:90:
                    c1:ed:06:6e:0f:19:47:8b:13:9c:8d:9b:12:e0:90:
                    82:ff:13:92:3b:5a:c9:41:b0:b5:6e:6d:26:d2:1c:
                    66:38:3f:d0:c8:0d:90:44:75:15:a0:80:4b:6f:a0:
                    02:23:d8:f3:87:5a:fe:c3:48:5e:61:87:41:d2:1e:
                    a3:2b:39:42:8a:ea:fd:06:11:24:8d:ec:b0:42:c7:
                    9e:8f:0d:c3:1c:64:ce:ff:6a:4c:d1:db:62:a7:c0:
                    4e:d8:d7:37:f3:04:05:0c:60:1b:34:f0:1a:48:84:
                    2c:f7:b0:7f:5a:2e:b8:34:c3:98:ab:ff:cd:82:62:
                    16:18:1e:43:bc:fc:49:58:e7:e0:cf:4d:82:f1:40:
                    4b:dc:37:0b:cb:f5:9a:e8:2d:63:ed:12:5c:5c:51:
                    35:2c:15:c6:ab:11:c6:b3:be:4c:01:62:fc:1d:07:
                    a4:d6:fc:46:97:a6:5b:7b:db:9b:94:4f:88:8b:9b:
                    0a:50:72:d3:b3:96:52:76:e9:ea:e3:49:62:36:f0:
                    fb:3e:d2:0f:3e:61:5b:2a:3d:6f:d0:d1:12:cb:3e:
                    0e:2e:ac:53:bb:a9:f3:26:73:bb:ec:11:21:e3:79:
                    a2:f4:5d:c4:86:1c:88:d3:a5:06:e2:e6:90:68:88:
                    d1:f8:7a:b4:61:50:e3:09:16:7f:3c:41:4d:70:ea:
                    f2:b4:6f:e3:b0:62:f9:92:b2:f5:b1:3b:14:e0:d5:
                    14:59:3d:64:2a:29:4d:0b:f7:f3:da:bf:66:1a:17:
                    da:0a:34:d9:40:69:cc:6c:0b:b4:30:fe:fd:6d:ef:
                    42:73:06:f6:62:da:f7:6c:f3:26:de:4a:a1:d5:79:
                    ee:2d:97:eb:84:c1:a8:c6:6c:09:61:d5:a2:26:41:
                    6f:4a:73:c0:2f:ef:92:38:3d:89:49:00:05:cf:02:
                    ff:48:bd:39:3a:ba:c1:50:18:dd:25:65:59:7c:63:
                    14:1d:6d:8d:45:68:80:c7:e6:7e:ab:95:64:9c:5f:
                    f9:8b:d1:0e:11:62:49:de:ff:ba:a2:9f:9f:25:29:
                    35:f5:d8:bb:e8:8b:c5:d6:ef:2e:d4:77:06:be:de:
                    39:57:02:f2:93:ab:eb:4d:ac:e6:58:be:bd:fe:8b:
                    c0:d3:38:fc:1d:50:d3:62:ed:0c:fd:a5:5d:aa:88:
                    ff:93:e7
                Exponent: 65537 (0x10001)
        X509v3 extensions:
            X509v3 Basic Constraints: 
                CA:FALSE
            Netscape Comment: 
                VPN User Certificate
            Netscape Cert Type: 
                SSL Client
            X509v3 Key Usage: 
                Digital Signature
            X509v3 Extended Key Usage: 
                TLS Web Client Authentication
            X509v3 Subject Key Identifier: 
                F5:AF:47:52:D1:88:1E:CD:54:A2:4A:D3:BA:77:25:F1:8A:74:45:4D
            X509v3 Authority Key Identifier: 
                keyid:86:4F:B8:6D:18:2A:1B:3C:8F:27:34:29:F0:81:9F:BA:6E:61:0E:E1
                DirName:/C=CH/ST=Zug/L=Zug/O=Perfect Privacy/CN=Perfect Privacy/emailAddress=admin@perfect-privacy.com
                serial:FA:11:B5:C4:AA:69:AF:69

    Signature Algorithm: sha512WithRSAEncryption
         12:1b:e9:e3:ef:82:64:84:e4:50:15:97:09:e6:08:67:4d:3d:
         75:98:a8:50:f4:58:d0:27:a5:5f:70:7b:4a:ec:0d:c3:e6:5d:
         9e:6c:b7:62:53:bd:2b:ec:d0:35:b1:95:d6:17:91:ba:b9:32:
         46:13:e7:9b:61:53:a7:be:20:e2:07:4f:6e:23:50:ef:f9:eb:
         79:92:2a:78:b9:95:57:b5:25:d5:9a:9d:60:e6:58:07:38:dc:
         00:d0:60:1d:76:38:d3:eb:6d:0e:da:6f:db:ed:73:42:17:1b:
         c0:41:e8:b3:50:0a:14:8e:89:55:8a:15:31:cd:7c:67:63:4e:
         99:5c:e1:62:f8:9e:38:9c:11:8e:e2:b3:85:11:25:31:22:96:
         a7:97:a2:c7:b3:a7:a0:d1:ea:f0:c3:de:d4:a0:41:4c:b5:58:
         2d:fd:f0:c6:35:6f:f8:6c:6d:48:82:62:80:1c:b7:ed:f6:25:
         88:e5:22:50:65:8e:5d:64:1a:93:82:09:19:21:4e:71:30:3c:
         e0:c1:46:e8:61:c1:b7:f5:1f:db:41:90:c8:e6:fb:ca:ae:33:
         47:56:be:05:4c:20:dd:e3:13:63:16:cb:89:bf:a0:5d:ec:b6:
         2b:d2:1c:94:bc:4f:51:65:45:69:14:02:b1:05:c9:17:9d:e0:
         e9:c8:15:a2:40:88:94:b2:5a:eb:a5:55:8e:6e:b4:5c:67:31:
         80:b4:62:b9:03:a9:ee:99:24:e3:65:6d:bc:19:4b:47:0b:69:
         d9:68:23:9b:16:aa:af:c7:7f:75:cd:3c:95:4d:d4:27:75:3c:
         3b:37:10:65:11:25:26:7d:cb:e9:ab:33:43:d9:3b:2c:9d:a7:
         fa:99:0c:fa:7e:4c:93:e5:c8:65:01:bb:ca:dc:eb:ae:64:c5:
         7c:4c:57:e3:f8:f1:d1:b9:54:09:5a:09:4e:e2:f4:62:e1:d7:
         a8:a0:6a:e6:bd:dc:e7:be:eb:73:f5:a5:93:41:9f:6b:d4:da:
         c5:e4:be:58:a5:11:16:af:15:2d:97:7d:83:f6:20:eb:74:0a:
         40:e9:d0:cd:86:74:c7:74:ad:8d:44:d6:8f:84:6c:e0:8a:b1:
         bd:05:36:43:be:f4:53:10:00:10:c7:d0:33:d9:e3:68:b1:86:
         97:8c:b7:f1:e9:f0:b8:82:44:37:e1:cf:de:20:94:35:46:b4:
         96:3a:29:ab:5f:cf:83:c3:2d:09:e2:63:f1:8b:f7:2f:fd:f2:
         ab:30:f8:6d:d3:23:b3:eb:42:da:f0:61:e8:75:fa:ac:97:47:
         34:30:4b:f3:22:21:78:dc:12:7c:99:18:14:9e:65:3f:0b:4c:
         6b:5f:f4:53:39:42:46:c0
-----BEGIN CERTIFICATE-----
MIIG4jCCBMqgAwIBAgIIAsFl0kVSGbMwDQYJKoZIhvcNAQENBQAwgYcxCzAJBgNV
BAYTAkNIMQwwCgYDVQQIEwNadWcxDDAKBgNVBAcTA1p1ZzEYMBYGA1UEChMPUGVy
ZmVjdCBQcml2YWN5MRgwFgYDVQQDEw9QZXJmZWN0IFByaXZhY3kxKDAmBgkqhkiG
9w0BCQEWGWFkbWluQHBlcmZlY3QtcHJpdmFjeS5jb20wHhcNMjMwMjA4MDAwMDAw
WhcNMjQxMDA1MDAwMDAwWjCBjjELMAkGA1UEBhMCQ0gxDDAKBgNVBAgTA1p1ZzEY
MBYGA1UEChMPUGVyZmVjdCBQcml2YWN5MS0wKwYDVQQDFCRDbGllbnRfcm90dGVy
ZGFtLnBlcmZlY3QtcHJpdmFjeS5jb20xKDAmBgkqhkiG9w0BCQEWGWFkbWluQHBl
cmZlY3QtcHJpdmFjeS5jb20wggIiMA0GCSqGSIb3DQEBAQUAA4ICDwAwggIKAoIC
AQC2oCVDC6XYdMrd8/8SAxBJhOSPsomO/5W5psECSHf4vzulU2/9xmID25b9q/9G
irixrlqy4mWgQ5KCuWvZ7HJwtPY/MDed8xyykMHtBm4PGUeLE5yNmxLgkIL/E5I7
WslBsLVubSbSHGY4P9DIDZBEdRWggEtvoAIj2POHWv7DSF5hh0HSHqMrOUKK6v0G
ESSN7LBCx56PDcMcZM7/akzR22KnwE7Y1zfzBAUMYBs08BpIhCz3sH9aLrg0w5ir
/82CYhYYHkO8/ElY5+DPTYLxQEvcNwvL9ZroLWPtElxcUTUsFcarEcazvkwBYvwd
B6TW/EaXplt725uUT4iLmwpQctOzllJ26erjSWI28Ps+0g8+YVsqPW/Q0RLLPg4u
rFO7qfMmc7vsESHjeaL0XcSGHIjTpQbi5pBoiNH4erRhUOMJFn88QU1w6vK0b+Ow
YvmSsvWxOxTg1RRZPWQqKU0L9/Pav2YaF9oKNNlAacxsC7Qw/v1t70JzBvZi2vds
8ybeSqHVee4tl+uEwajGbAlh1aImQW9Kc8Av75I4PYlJAAXPAv9IvTk6usFQGN0l
ZVl8YxQdbY1FaIDH5n6rlWScX/mL0Q4RYkne/7qin58lKTX12Lvoi8XW7y7Udwa+
3jlXAvKTq+tNrOZYvr3+i8DTOPwdUNNi7Qz9pV2qiP+T5wIDAQABo4IBRzCCAUMw
CQYDVR0TBAIwADAjBglghkgBhvhCAQ0EFhYUVlBOIFVzZXIgQ2VydGlmaWNhdGUw
EQYJYIZIAYb4QgEBBAQDAgeAMAsGA1UdDwQEAwIHgDATBgNVHSUEDDAKBggrBgEF
BQcDAjAdBgNVHQ4EFgQU9a9HUtGIHs1UokrTuncl8Yp0RU0wgbwGA1UdIwSBtDCB
sYAUhk+4bRgqGzyPJzQp8IGfum5hDuGhgY2kgYowgYcxCzAJBgNVBAYTAkNIMQww
CgYDVQQIEwNadWcxDDAKBgNVBAcTA1p1ZzEYMBYGA1UEChMPUGVyZmVjdCBQcml2
YWN5MRgwFgYDVQQDEw9QZXJmZWN0IFByaXZhY3kxKDAmBgkqhkiG9w0BCQEWGWFk
bWluQHBlcmZlY3QtcHJpdmFjeS5jb22CCQD6EbXEqmmvaTANBgkqhkiG9w0BAQ0F
AAOCAgEAEhvp4++CZITkUBWXCeYIZ009dZioUPRY0CelX3B7SuwNw+Zdnmy3YlO9
K+zQNbGV1heRurkyRhPnm2FTp74g4gdPbiNQ7/nreZIqeLmVV7Ul1ZqdYOZYBzjc
ANBgHXY40+ttDtpv2+1zQhcbwEHos1AKFI6JVYoVMc18Z2NOmVzhYvieOJwRjuKz
hRElMSKWp5eix7OnoNHq8MPe1KBBTLVYLf3wxjVv+GxtSIJigBy37fYliOUiUGWO
XWQak4IJGSFOcTA84MFG6GHBt/Uf20GQyOb7yq4zR1a+BUwg3eMTYxbLib+gXey2
K9IclLxPUWVFaRQCsQXJF53g6cgVokCIlLJa66VVjm60XGcxgLRiuQOp7pkk42Vt
vBlLRwtp2Wgjmxaqr8d/dc08lU3UJ3U8OzcQZRElJn3L6aszQ9k7LJ2n+pkM+n5M
k+XIZQG7ytzrrmTFfExX4/jx0blUCVoJTuL0YuHXqKBq5r3c577rc/Wlk0Gfa9Ta
xeS+WKURFq8VLZd9g/Yg63QKQOnQzYZ0x3StjUTWj4Rs4IqxvQU2Q770UxAAEMfQ
M9njaLGGl4y38enwuIJEN+HP3iCUNUa0ljopq1/Pg8MtCeJj8Yv3L/3yqzD4bdMj
s+tC2vBh6HX6rJdHNDBL8yIheNwSfJkYFJ5lPwtMa1/0UzlCRsA=
-----END CERTIFICATE-----
