Certificate:
    Data:
        Version: 3 (0x2)
        Serial Number:
            d8:e5:53:12:24:3e:c9:9a
    Signature Algorithm: sha512WithRSAEncryption
        Issuer: C=CH, ST=Zug, L=Zug, O=Perfect Privacy, CN=Perfect Privacy/emailAddress=admin@perfect-privacy.com
        Validity
            Not Before: Jul 26 00:00:00 2023 GMT
            Not After : Mar 22 00:00:00 2025 GMT
        Subject: C=CH, ST=Zug, O=Perfect Privacy, CN=Client_rotterdam.perfect-privacy.com/emailAddress=admin@perfect-privacy.com
        Subject Public Key Info:
            Public Key Algorithm: rsaEncryption
                Public-Key: (4096 bit)
                Modulus:
                    00:96:83:25:36:f0:14:3d:57:31:73:dd:79:89:e1:
                    4c:47:8b:76:2b:a1:d1:44:a8:8c:38:5b:de:71:c6:
                    4f:a1:12:65:c0:b5:0f:fd:b3:36:48:61:ec:70:cd:
                    7a:b7:3a:ca:70:4b:1b:e9:40:a3:84:87:ae:b5:28:
                    f2:92:6b:82:04:fe:bc:96:98:12:e8:88:21:5b:77:
                    de:8f:34:0d:cd:8f:cb:c6:69:53:5e:c7:9d:80:4a:
                    af:b1:14:5f:07:f8:40:17:ee:28:aa:e2:12:c6:54:
                    5f:1b:0f:64:5b:3c:91:5c:e8:1c:0c:54:ba:f4:15:
                    82:01:f0:5d:88:e1:26:c3:af:bd:21:17:81:3f:98:
                    17:f3:78:c9:cf:4e:fc:c5:be:7e:fb:0b:9d:3b:b0:
                    f7:22:9f:57:b4:11:5e:f5:f9:e8:96:f1:55:45:13:
                    7b:0e:ec:bd:c5:4d:69:5a:08:19:a9:f5:e0:20:fc:
                    ea:d2:e7:01:46:38:9f:bd:20:7e:85:a6:10:46:ad:
                    c1:77:65:d4:79:40:70:1f:10:99:43:25:0d:a6:cb:
                    8a:35:a1:12:6a:6b:e7:ce:c9:bf:b0:59:64:f6:75:
                    15:d7:36:ea:56:3d:bc:b8:7a:ad:f0:87:c8:96:81:
                    39:e2:65:c0:96:03:ad:2f:e7:d3:cc:2f:51:b1:90:
                    67:06:57:64:7d:a9:41:39:a3:a8:54:59:7c:3d:42:
                    a1:ea:6a:06:7e:d2:a0:69:0c:6d:08:63:7a:8c:39:
                    3c:3b:70:4c:e9:0e:12:e0:9c:30:4e:fb:90:90:ba:
                    6a:a8:aa:49:80:76:1e:80:da:5f:45:71:68:04:aa:
                    3a:ac:bf:66:b8:3e:24:b5:16:a0:35:b1:25:3c:36:
                    50:d1:ab:32:59:bf:5b:fc:1e:d0:b6:6c:d3:a2:70:
                    4a:96:e5:09:13:f7:a4:68:21:12:ff:71:91:0e:3b:
                    86:48:44:8d:4c:28:f8:ef:8c:f3:ed:34:3e:a6:11:
                    7a:e0:c9:97:5b:bd:e4:d7:84:5c:4b:70:2f:e1:86:
                    6e:a6:46:0a:19:fb:99:d0:96:03:d2:04:0a:08:86:
                    ce:4c:4c:b2:ea:11:f1:8a:48:4e:63:03:4b:4c:0f:
                    97:5e:69:4f:7f:27:39:19:e5:38:53:01:21:c9:f6:
                    cd:1b:c0:39:18:1b:9a:f8:a8:16:68:6a:c5:c3:0c:
                    29:bc:88:92:5d:a0:db:a8:ad:f6:84:d2:09:48:0e:
                    05:38:aa:91:5c:6e:a8:41:67:3b:8b:19:c0:36:52:
                    27:a6:72:42:03:ca:1d:e8:ba:0d:6a:81:43:55:71:
                    da:57:c1:67:0a:51:8b:82:22:23:0a:6d:6a:f5:2c:
                    6f:aa:a7
                Exponent: 65537 (0x10001)
        X509v3 extensions:
            X509v3 Basic Constraints: 
                CA:FALSE
            Netscape Comment: 
                VPN User Certificate
            Netscape Cert Type: 
                SSL Client
            X509v3 Key Usage: 
                Digital Signature
            X509v3 Extended Key Usage: 
                TLS Web Client Authentication
            X509v3 Subject Key Identifier: 
                C7:45:6A:50:5E:99:C8:B3:5A:74:98:8F:BD:59:2D:1B:25:C4:1E:74
            X509v3 Authority Key Identifier: 
                keyid:86:4F:B8:6D:18:2A:1B:3C:8F:27:34:29:F0:81:9F:BA:6E:61:0E:E1
                DirName:/C=CH/ST=Zug/L=Zug/O=Perfect Privacy/CN=Perfect Privacy/emailAddress=admin@perfect-privacy.com
                serial:FA:11:B5:C4:AA:69:AF:69

    Signature Algorithm: sha512WithRSAEncryption
         5c:e6:af:20:86:f3:9f:73:42:11:18:b4:11:8a:13:ea:18:75:
         77:79:4d:64:3e:1c:b6:ff:80:7b:b0:f2:a9:a0:f9:eb:05:ec:
         95:b0:7f:6f:d8:d6:4e:89:cd:e7:80:76:6d:b6:69:5a:e5:82:
         70:5e:98:df:c6:f5:9d:5f:db:e5:0f:49:c7:42:a7:69:b2:1b:
         84:af:39:81:06:cc:d3:3d:b3:db:f5:21:1f:4d:65:9c:ed:68:
         a1:8c:d2:33:f1:61:f3:56:ae:9c:7b:f8:cb:56:d7:de:0c:ff:
         d6:7f:e2:c9:c9:ba:03:b7:f0:45:a2:da:8b:31:bc:07:d9:93:
         a0:ad:05:2c:88:64:fe:38:b8:af:e4:ba:cd:13:79:8b:0e:da:
         43:53:9e:23:5f:07:85:47:77:c8:15:f6:3f:dc:5a:c4:4a:49:
         d7:17:03:62:3e:cd:2c:46:68:1d:53:19:a2:92:75:33:3d:13:
         da:ed:9c:e7:61:ad:b6:aa:c1:eb:ed:bd:7c:44:ef:0e:c8:df:
         dd:af:fb:55:7d:ba:69:17:e8:cd:b1:a8:4d:d7:aa:d4:8f:2a:
         ca:2a:ee:e8:c7:4a:27:9b:62:a3:60:58:35:5e:5d:8c:66:3f:
         7a:94:56:c9:fb:09:1a:c6:d5:3f:71:d7:3d:82:6b:2f:14:a0:
         c3:a8:4b:98:ed:69:96:43:bd:97:fa:3d:e3:c9:a6:44:5a:28:
         94:9a:92:65:5f:a0:37:e3:00:a5:9c:06:69:a0:60:60:1c:20:
         e1:72:cb:dd:bd:aa:5e:0a:90:91:21:f9:84:3a:d0:36:be:e7:
         38:92:d4:cf:78:97:02:e5:ad:37:c6:7f:a6:86:e3:cd:c3:6b:
         24:4d:de:23:c3:9d:c7:d9:2b:51:ff:20:76:50:e1:7b:c3:da:
         cc:7f:1c:1f:83:1c:3d:07:f0:4c:98:f2:03:9d:d0:43:77:df:
         d8:19:92:b4:61:7d:e3:2b:e1:8e:ba:ad:c1:ef:c4:f5:d8:99:
         bc:01:b3:8f:63:5f:d3:f5:b1:de:42:58:80:8f:0b:79:c0:68:
         6d:cd:b3:de:19:f9:92:12:80:50:bc:63:c3:3e:ef:d9:3b:77:
         72:c2:3f:12:00:cc:87:03:7f:bb:57:76:07:d0:da:04:f9:cd:
         a9:6d:5d:8d:18:c2:49:91:3b:4f:cc:b9:5a:ab:a2:89:b6:42:
         a9:bc:ae:ce:d7:6e:ac:5b:37:d1:c0:71:c6:2f:8c:76:c0:31:
         08:4b:39:3a:85:7f:82:fd:fe:f3:ac:7d:63:13:36:b6:7f:10:
         9f:9c:fa:71:28:81:d3:be:8e:99:8e:19:cc:91:21:77:13:aa:
         46:b0:10:f1:19:9a:88:66
-----BEGIN CERTIFICATE-----
MIIG4zCCBMugAwIBAgIJANjlUxIkPsmaMA0GCSqGSIb3DQEBDQUAMIGHMQswCQYD
VQQGEwJDSDEMMAoGA1UECBMDWnVnMQwwCgYDVQQHEwNadWcxGDAWBgNVBAoTD1Bl
cmZlY3QgUHJpdmFjeTEYMBYGA1UEAxMPUGVyZmVjdCBQcml2YWN5MSgwJgYJKoZI
hvcNAQkBFhlhZG1pbkBwZXJmZWN0LXByaXZhY3kuY29tMB4XDTIzMDcyNjAwMDAw
MFoXDTI1MDMyMjAwMDAwMFowgY4xCzAJBgNVBAYTAkNIMQwwCgYDVQQIEwNadWcx
GDAWBgNVBAoTD1BlcmZlY3QgUHJpdmFjeTEtMCsGA1UEAxQkQ2xpZW50X3JvdHRl
cmRhbS5wZXJmZWN0LXByaXZhY3kuY29tMSgwJgYJKoZIhvcNAQkBFhlhZG1pbkBw
ZXJmZWN0LXByaXZhY3kuY29tMIICIjANBgkqhkiG9w0BAQEFAAOCAg8AMIICCgKC
AgEAloMlNvAUPVcxc915ieFMR4t2K6HRRKiMOFveccZPoRJlwLUP/bM2SGHscM16
tzrKcEsb6UCjhIeutSjykmuCBP68lpgS6IghW3fejzQNzY/LxmlTXsedgEqvsRRf
B/hAF+4oquISxlRfGw9kWzyRXOgcDFS69BWCAfBdiOEmw6+9IReBP5gX83jJz078
xb5++wudO7D3Ip9XtBFe9fnolvFVRRN7Duy9xU1pWggZqfXgIPzq0ucBRjifvSB+
haYQRq3Bd2XUeUBwHxCZQyUNpsuKNaESamvnzsm/sFlk9nUV1zbqVj28uHqt8IfI
loE54mXAlgOtL+fTzC9RsZBnBldkfalBOaOoVFl8PUKh6moGftKgaQxtCGN6jDk8
O3BM6Q4S4JwwTvuQkLpqqKpJgHYegNpfRXFoBKo6rL9muD4ktRagNbElPDZQ0asy
Wb9b/B7QtmzTonBKluUJE/ekaCES/3GRDjuGSESNTCj474zz7TQ+phF64MmXW73k
14RcS3Av4YZupkYKGfuZ0JYD0gQKCIbOTEyy6hHxikhOYwNLTA+XXmlPfyc5GeU4
UwEhyfbNG8A5GBua+KgWaGrFwwwpvIiSXaDbqK32hNIJSA4FOKqRXG6oQWc7ixnA
NlInpnJCA8od6LoNaoFDVXHaV8FnClGLgiIjCm1q9SxvqqcCAwEAAaOCAUcwggFD
MAkGA1UdEwQCMAAwIwYJYIZIAYb4QgENBBYWFFZQTiBVc2VyIENlcnRpZmljYXRl
MBEGCWCGSAGG+EIBAQQEAwIHgDALBgNVHQ8EBAMCB4AwEwYDVR0lBAwwCgYIKwYB
BQUHAwIwHQYDVR0OBBYEFMdFalBemcizWnSYj71ZLRslxB50MIG8BgNVHSMEgbQw
gbGAFIZPuG0YKhs8jyc0KfCBn7puYQ7hoYGNpIGKMIGHMQswCQYDVQQGEwJDSDEM
MAoGA1UECBMDWnVnMQwwCgYDVQQHEwNadWcxGDAWBgNVBAoTD1BlcmZlY3QgUHJp
dmFjeTEYMBYGA1UEAxMPUGVyZmVjdCBQcml2YWN5MSgwJgYJKoZIhvcNAQkBFhlh
ZG1pbkBwZXJmZWN0LXByaXZhY3kuY29tggkA+hG1xKppr2kwDQYJKoZIhvcNAQEN
BQADggIBAFzmryCG859zQhEYtBGKE+oYdXd5TWQ+HLb/gHuw8qmg+esF7JWwf2/Y
1k6JzeeAdm22aVrlgnBemN/G9Z1f2+UPScdCp2myG4SvOYEGzNM9s9v1IR9NZZzt
aKGM0jPxYfNWrpx7+MtW194M/9Z/4snJugO38EWi2osxvAfZk6CtBSyIZP44uK/k
us0TeYsO2kNTniNfB4VHd8gV9j/cWsRKSdcXA2I+zSxGaB1TGaKSdTM9E9rtnOdh
rbaqwevtvXxE7w7I392v+1V9umkX6M2xqE3XqtSPKsoq7ujHSiebYqNgWDVeXYxm
P3qUVsn7CRrG1T9x1z2Cay8UoMOoS5jtaZZDvZf6PePJpkRaKJSakmVfoDfjAKWc
BmmgYGAcIOFyy929ql4KkJEh+YQ60Da+5ziS1M94lwLlrTfGf6aG483DayRN3iPD
ncfZK1H/IHZQ4XvD2sx/HB+DHD0H8EyY8gOd0EN339gZkrRhfeMr4Y66rcHvxPXY
mbwBs49jX9P1sd5CWICPC3nAaG3Ns94Z+ZISgFC8Y8M+79k7d3LCPxIAzIcDf7tX
dgfQ2gT5zaltXY0YwkmRO0/MuVqroom2Qqm8rs7XbqxbN9HAccYvjHbAMQhLOTqF
f4L9/vOsfWMTNrZ/EJ+c+nEogdO+jpmOGcyRIXcTqkawEPEZmohm
-----END CERTIFICATE-----
