Certificate:
    Data:
        Version: 3 (0x2)
        Serial Number: 5537300245767108271 (0x4cd8713c53a1b6af)
    Signature Algorithm: sha512WithRSAEncryption
        Issuer: C=CH, ST=Zug, L=Zug, O=Perfect Privacy, CN=Perfect Privacy/emailAddress=admin@perfect-privacy.com
        Validity
            Not Before: Feb  6 00:00:00 2023 GMT
            Not After : Oct  3 00:00:00 2024 GMT
        Subject: C=CH, ST=Zug, O=Perfect Privacy, CN=Client_riga.perfect-privacy.com/emailAddress=admin@perfect-privacy.com
        Subject Public Key Info:
            Public Key Algorithm: rsaEncryption
                Public-Key: (4096 bit)
                Modulus:
                    00:aa:7d:b5:bc:5d:69:91:f3:d2:92:f0:fb:96:6c:
                    d8:68:46:06:3f:38:e6:8c:eb:b8:cd:34:86:90:64:
                    6f:47:51:d9:e4:e6:c7:dc:1c:5a:3f:72:08:6d:8d:
                    d0:a3:75:ee:53:86:de:57:22:79:ce:5f:5a:49:94:
                    21:d6:1a:4a:3b:64:f4:72:a6:3e:ed:14:55:6b:8b:
                    0e:17:c1:49:89:1e:68:ef:6b:a6:1d:a8:0e:93:c4:
                    ec:7d:26:c5:2d:d8:7a:ce:27:5f:30:aa:d2:f1:15:
                    e7:47:f7:5a:38:69:fc:8a:4c:b7:27:66:27:07:03:
                    61:93:25:04:88:a7:61:00:ab:c9:30:6d:91:0a:d6:
                    bd:2c:69:83:02:74:8a:19:8f:7a:88:0b:3a:d7:10:
                    d6:97:4b:a0:29:e1:73:dc:98:14:09:93:a6:86:13:
                    a5:d6:74:88:4c:fd:3d:c2:00:bb:ed:81:bc:a2:dd:
                    51:88:46:12:8a:78:a8:0b:0f:8d:29:e9:f6:5b:22:
                    88:38:28:ab:46:61:d1:0e:56:a7:da:60:85:55:f7:
                    d9:3e:59:c7:7e:4c:78:34:64:7e:58:a9:7d:a3:39:
                    64:26:5f:65:96:8d:20:c9:d1:ce:02:48:2f:6d:e6:
                    b0:90:52:b1:54:de:c2:ca:2e:68:1c:48:59:37:05:
                    93:b3:78:2d:42:e2:39:e6:9a:4e:cc:65:47:eb:5e:
                    35:b8:ea:b9:86:44:79:9b:a2:cd:a7:f1:8c:ce:fe:
                    cc:bd:ec:cd:ca:90:50:9d:34:09:7f:81:ee:48:ad:
                    7a:52:1f:99:43:62:fd:45:a1:19:a8:2a:9e:61:cd:
                    78:91:e6:3d:fa:1b:07:cc:3a:95:8d:0e:e4:7c:a4:
                    09:b3:da:69:a0:a0:47:01:f7:44:d9:f3:df:a8:02:
                    51:f6:53:38:db:38:bc:49:f8:c2:1c:74:8c:9d:a8:
                    73:00:11:4d:0f:46:e2:b5:6d:5c:47:a9:c9:55:38:
                    ef:ee:2e:66:c5:f3:1f:3d:e6:9d:73:28:9b:65:c2:
                    1a:31:44:48:99:ce:5b:3b:a8:88:0c:3d:27:24:2c:
                    f5:2f:52:83:41:8a:66:da:68:48:67:f3:23:c1:b1:
                    cf:70:fa:7a:83:59:86:f9:e8:59:a9:e5:1c:97:4d:
                    b2:df:32:df:3e:2c:8e:95:0a:b2:d2:30:42:63:b2:
                    b6:ec:0e:df:dc:c9:db:fe:10:14:6f:d8:a1:61:47:
                    18:e5:30:38:18:ff:e2:c7:6b:33:c8:d6:85:49:fe:
                    bf:fd:9a:a0:25:02:63:9a:66:82:89:b6:32:da:72:
                    51:ec:9e:14:da:5f:d2:10:73:bf:33:9d:44:66:f6:
                    be:11:ff
                Exponent: 65537 (0x10001)
        X509v3 extensions:
            X509v3 Basic Constraints: 
                CA:FALSE
            Netscape Comment: 
                VPN User Certificate
            Netscape Cert Type: 
                SSL Client
            X509v3 Key Usage: 
                Digital Signature
            X509v3 Extended Key Usage: 
                TLS Web Client Authentication
            X509v3 Subject Key Identifier: 
                88:2C:26:36:A0:68:AE:BA:B3:4D:FE:01:BF:AF:6A:1C:4B:A4:B6:8C
            X509v3 Authority Key Identifier: 
                keyid:86:4F:B8:6D:18:2A:1B:3C:8F:27:34:29:F0:81:9F:BA:6E:61:0E:E1
                DirName:/C=CH/ST=Zug/L=Zug/O=Perfect Privacy/CN=Perfect Privacy/emailAddress=admin@perfect-privacy.com
                serial:FA:11:B5:C4:AA:69:AF:69

    Signature Algorithm: sha512WithRSAEncryption
         2a:98:2f:5f:57:a1:ce:5d:82:6a:8c:51:1b:24:fe:39:10:2c:
         cd:9d:5c:3e:13:99:c1:28:f0:eb:4a:34:d9:11:76:b9:99:7c:
         06:40:d6:e2:5f:fb:0f:4d:9d:f1:3e:6b:e2:09:fe:a7:7d:e9:
         ca:25:1f:13:7a:fb:5b:ea:5b:4c:45:7d:b0:4d:c0:dd:f3:72:
         ee:12:4b:27:ee:b1:ca:a1:43:bf:49:74:85:1b:94:5f:ab:6c:
         b2:85:15:40:57:05:bd:1f:3e:a0:79:63:ea:da:3a:bf:5d:81:
         ed:13:b6:81:e4:94:3a:09:d5:ee:08:81:bc:b1:50:dd:ae:00:
         56:36:73:c8:63:73:38:c7:72:32:f4:44:9b:35:7f:61:61:ae:
         4f:be:d9:22:66:1d:77:dc:4b:ae:74:d9:a9:70:9e:d3:a2:5f:
         08:bd:93:2a:7b:01:96:4f:2e:7d:9b:06:df:84:02:29:4d:b7:
         4a:63:e0:26:50:cb:df:f9:65:b0:1a:f5:f4:d4:09:49:01:de:
         e2:f1:49:6b:ca:bc:ea:3d:d1:cf:16:79:a8:9e:59:cb:dd:d7:
         5f:38:1b:70:9b:03:9d:78:40:a7:d0:30:d1:20:e8:b3:c9:24:
         b4:c8:c7:57:d8:89:cc:d9:0c:02:1e:c5:e1:0f:e9:db:f4:f0:
         8e:25:c9:df:77:6a:0a:99:41:17:a7:3a:89:41:3e:24:7f:6e:
         58:b9:95:e8:a8:5a:d1:d8:b4:e2:51:40:92:64:b8:a1:d8:c9:
         b2:f6:8b:3c:7c:d0:18:b1:7e:64:87:ea:3d:3f:ed:3e:c1:44:
         77:08:ea:3a:ac:ad:ed:e5:6b:de:41:35:43:e8:0f:df:f6:50:
         6e:0a:99:32:1c:8f:14:8d:ee:0c:aa:a6:cc:40:a7:f9:53:99:
         50:52:fc:3d:ab:c4:35:7b:7d:ff:10:9a:b8:8a:f9:39:90:7e:
         67:a3:24:32:79:a8:d1:a4:04:50:c2:91:bc:f4:cc:5f:7a:da:
         82:b3:db:4e:a9:7e:94:1f:6a:49:8e:14:20:b4:17:d7:8b:7f:
         dd:d5:21:50:68:08:9b:51:06:52:39:c8:b1:be:93:c7:f8:c4:
         a1:bd:13:da:0c:e5:65:34:2d:a7:b4:f0:d9:3e:e8:7f:85:78:
         00:0d:19:cd:e2:1a:e1:f5:2c:3b:c2:89:1d:cd:89:d6:82:20:
         f0:58:95:3f:fb:46:27:c6:58:ed:7b:b2:5d:bd:6e:bb:16:42:
         65:0e:be:1e:63:fa:72:28:5f:eb:8b:64:ba:bf:27:a2:c3:a7:
         ef:bd:8c:cf:d7:7f:6e:d9:4f:7a:70:d0:30:1e:a3:1a:b4:67:
         a1:f5:d3:2b:41:b5:53:e1
-----BEGIN CERTIFICATE-----
MIIG3TCCBMWgAwIBAgIITNhxPFOhtq8wDQYJKoZIhvcNAQENBQAwgYcxCzAJBgNV
BAYTAkNIMQwwCgYDVQQIEwNadWcxDDAKBgNVBAcTA1p1ZzEYMBYGA1UEChMPUGVy
ZmVjdCBQcml2YWN5MRgwFgYDVQQDEw9QZXJmZWN0IFByaXZhY3kxKDAmBgkqhkiG
9w0BCQEWGWFkbWluQHBlcmZlY3QtcHJpdmFjeS5jb20wHhcNMjMwMjA2MDAwMDAw
WhcNMjQxMDAzMDAwMDAwWjCBiTELMAkGA1UEBhMCQ0gxDDAKBgNVBAgTA1p1ZzEY
MBYGA1UEChMPUGVyZmVjdCBQcml2YWN5MSgwJgYDVQQDFB9DbGllbnRfcmlnYS5w
ZXJmZWN0LXByaXZhY3kuY29tMSgwJgYJKoZIhvcNAQkBFhlhZG1pbkBwZXJmZWN0
LXByaXZhY3kuY29tMIICIjANBgkqhkiG9w0BAQEFAAOCAg8AMIICCgKCAgEAqn21
vF1pkfPSkvD7lmzYaEYGPzjmjOu4zTSGkGRvR1HZ5ObH3BxaP3IIbY3Qo3XuU4be
VyJ5zl9aSZQh1hpKO2T0cqY+7RRVa4sOF8FJiR5o72umHagOk8TsfSbFLdh6zidf
MKrS8RXnR/daOGn8iky3J2YnBwNhkyUEiKdhAKvJMG2RCta9LGmDAnSKGY96iAs6
1xDWl0ugKeFz3JgUCZOmhhOl1nSITP09wgC77YG8ot1RiEYSinioCw+NKen2WyKI
OCirRmHRDlan2mCFVffZPlnHfkx4NGR+WKl9ozlkJl9llo0gydHOAkgvbeawkFKx
VN7Cyi5oHEhZNwWTs3gtQuI55ppOzGVH6141uOq5hkR5m6LNp/GMzv7MvezNypBQ
nTQJf4HuSK16Uh+ZQ2L9RaEZqCqeYc14keY9+hsHzDqVjQ7kfKQJs9ppoKBHAfdE
2fPfqAJR9lM42zi8SfjCHHSMnahzABFND0bitW1cR6nJVTjv7i5mxfMfPeadcyib
ZcIaMURImc5bO6iIDD0nJCz1L1KDQYpm2mhIZ/MjwbHPcPp6g1mG+ehZqeUcl02y
3zLfPiyOlQqy0jBCY7K27A7f3Mnb/hAUb9ihYUcY5TA4GP/ix2szyNaFSf6//Zqg
JQJjmmaCibYy2nJR7J4U2l/SEHO/M51EZva+Ef8CAwEAAaOCAUcwggFDMAkGA1Ud
EwQCMAAwIwYJYIZIAYb4QgENBBYWFFZQTiBVc2VyIENlcnRpZmljYXRlMBEGCWCG
SAGG+EIBAQQEAwIHgDALBgNVHQ8EBAMCB4AwEwYDVR0lBAwwCgYIKwYBBQUHAwIw
HQYDVR0OBBYEFIgsJjagaK66s03+Ab+vahxLpLaMMIG8BgNVHSMEgbQwgbGAFIZP
uG0YKhs8jyc0KfCBn7puYQ7hoYGNpIGKMIGHMQswCQYDVQQGEwJDSDEMMAoGA1UE
CBMDWnVnMQwwCgYDVQQHEwNadWcxGDAWBgNVBAoTD1BlcmZlY3QgUHJpdmFjeTEY
MBYGA1UEAxMPUGVyZmVjdCBQcml2YWN5MSgwJgYJKoZIhvcNAQkBFhlhZG1pbkBw
ZXJmZWN0LXByaXZhY3kuY29tggkA+hG1xKppr2kwDQYJKoZIhvcNAQENBQADggIB
ACqYL19Xoc5dgmqMURsk/jkQLM2dXD4TmcEo8OtKNNkRdrmZfAZA1uJf+w9NnfE+
a+IJ/qd96colHxN6+1vqW0xFfbBNwN3zcu4SSyfuscqhQ79JdIUblF+rbLKFFUBX
Bb0fPqB5Y+raOr9dge0TtoHklDoJ1e4IgbyxUN2uAFY2c8hjczjHcjL0RJs1f2Fh
rk++2SJmHXfcS6502alwntOiXwi9kyp7AZZPLn2bBt+EAilNt0pj4CZQy9/5ZbAa
9fTUCUkB3uLxSWvKvOo90c8WeaieWcvd1184G3CbA514QKfQMNEg6LPJJLTIx1fY
iczZDAIexeEP6dv08I4lyd93agqZQRenOolBPiR/bli5leioWtHYtOJRQJJkuKHY
ybL2izx80BixfmSH6j0/7T7BRHcI6jqsre3la95BNUPoD9/2UG4KmTIcjxSN7gyq
psxAp/lTmVBS/D2rxDV7ff8QmriK+TmQfmejJDJ5qNGkBFDCkbz0zF962oKz206p
fpQfakmOFCC0F9eLf93VIVBoCJtRBlI5yLG+k8f4xKG9E9oM5WU0Lae08Nk+6H+F
eAANGc3iGuH1LDvCiR3NidaCIPBYlT/7RifGWO17sl29brsWQmUOvh5j+nIoX+uL
ZLq/J6LDp++9jM/Xf27ZT3pw0DAeoxq0Z6H10ytBtVPh
-----END CERTIFICATE-----
