Certificate:
    Data:
        Version: 3 (0x2)
        Serial Number: 8565673553499474113 (0x76df62b6ca4b48c1)
    Signature Algorithm: sha512WithRSAEncryption
        Issuer: C=CH, ST=Zug, L=Zug, O=Perfect Privacy, CN=Perfect Privacy/emailAddress=admin@perfect-privacy.com
        Validity
            Not Before: Jun 21 00:00:00 2024 GMT
            Not After : Feb 16 00:00:00 2026 GMT
        Subject: C=CH, ST=Zug, O=Perfect Privacy, CN=Client_riga.perfect-privacy.com/emailAddress=admin@perfect-privacy.com
        Subject Public Key Info:
            Public Key Algorithm: rsaEncryption
                Public-Key: (4096 bit)
                Modulus:
                    00:dc:b8:93:d4:7f:20:8f:10:23:de:1e:c5:88:bb:
                    75:b4:95:2b:89:5a:0a:a1:e1:9f:b5:06:8c:6b:bc:
                    1b:18:4f:d8:39:7e:03:b9:33:ab:92:e7:1e:fa:f9:
                    01:c7:dd:9d:1f:ba:e9:ae:0d:54:63:32:bc:2e:df:
                    e4:e2:45:24:f5:6a:5f:70:4b:5f:53:e0:1a:a9:bd:
                    7e:92:bc:59:3c:b2:2e:e5:7f:77:68:b8:f6:60:7f:
                    96:54:00:73:0e:1b:35:f0:ae:d6:6a:97:e6:ca:bb:
                    1c:49:64:1b:d9:cc:46:df:6f:d5:dc:50:b5:0f:c0:
                    c0:10:c0:b3:6d:72:bd:37:9f:af:2e:93:17:4b:de:
                    d9:a6:5f:73:ed:7b:67:f6:63:a9:98:26:03:08:a5:
                    be:3f:1e:e0:1a:b3:57:3b:30:55:c3:b9:24:05:e0:
                    3d:7b:ca:ba:9e:35:79:59:98:0f:3b:0c:2c:ea:67:
                    81:8b:d2:98:7a:8f:9a:d1:99:16:9c:f2:d6:e4:3d:
                    f4:aa:d3:93:49:66:7d:33:94:f0:3d:6b:d5:51:b0:
                    08:be:50:1e:f8:c1:e7:2c:63:e5:cb:40:da:57:e5:
                    66:56:90:03:09:76:08:70:95:f0:e7:b7:be:b3:b0:
                    9d:78:d7:33:fe:8d:ea:ae:10:d3:8c:0c:0e:03:b4:
                    31:d4:eb:83:72:f1:8c:fb:4a:83:98:b1:64:49:5a:
                    27:e8:e4:24:10:1d:28:bf:76:da:14:63:cd:ed:4f:
                    aa:4d:b1:17:70:a2:8b:1c:56:82:99:c0:38:44:d5:
                    ab:01:6f:fc:de:3f:5e:82:dd:ee:5a:70:34:81:6a:
                    f4:ac:46:85:25:47:7e:0b:63:d2:d1:be:d1:44:6a:
                    6e:d9:03:1d:6d:f7:10:a8:4c:a1:7a:24:cb:1d:6a:
                    60:ac:fb:7e:96:f2:1d:3c:82:ff:ff:11:65:89:11:
                    cf:a5:63:d4:f7:f1:24:84:29:5e:d8:1a:9e:0f:8d:
                    04:a8:f8:2c:96:e9:9a:44:76:63:85:3f:e7:92:a1:
                    2c:6b:94:41:a8:94:72:81:d7:b9:41:fb:bd:8b:2a:
                    1c:46:b9:b8:ea:3e:2b:db:84:79:61:01:b4:c9:3e:
                    e7:9b:41:14:47:4f:44:fe:33:cc:e7:a2:60:59:41:
                    c3:30:91:9d:2e:b1:b0:d1:01:d3:87:1b:89:a4:f6:
                    4d:1f:d4:86:f7:62:47:fc:9b:16:fb:17:32:0f:8a:
                    4f:73:b8:06:aa:f7:29:40:aa:12:4f:3e:e2:35:02:
                    f6:54:ec:d8:6e:87:a0:40:18:ab:24:4e:fb:c3:51:
                    04:eb:54:4f:9b:17:5d:2c:b9:fb:dc:85:3e:15:10:
                    db:d5:3b
                Exponent: 65537 (0x10001)
        X509v3 extensions:
            X509v3 Basic Constraints: 
                CA:FALSE
            Netscape Comment: 
                VPN User Certificate
            Netscape Cert Type: 
                SSL Client
            X509v3 Key Usage: 
                Digital Signature
            X509v3 Extended Key Usage: 
                TLS Web Client Authentication
            X509v3 Subject Key Identifier: 
                27:17:88:21:69:27:33:61:78:54:35:FD:5A:7B:BD:36:FA:07:92:09
            X509v3 Authority Key Identifier: 
                keyid:86:4F:B8:6D:18:2A:1B:3C:8F:27:34:29:F0:81:9F:BA:6E:61:0E:E1
                DirName:/C=CH/ST=Zug/L=Zug/O=Perfect Privacy/CN=Perfect Privacy/emailAddress=admin@perfect-privacy.com
                serial:FA:11:B5:C4:AA:69:AF:69

    Signature Algorithm: sha512WithRSAEncryption
         41:a9:28:d7:3d:76:61:2f:c9:36:59:df:08:79:87:00:31:6b:
         c6:a6:74:03:4d:53:93:18:23:e6:90:70:1e:68:71:35:7a:32:
         74:56:b3:bd:6d:d0:9e:78:7d:93:07:f0:ae:50:8d:bc:41:38:
         84:16:b5:f1:9a:1e:fd:f0:35:70:8b:c3:e8:b7:a9:31:ad:c0:
         b4:86:6b:9b:15:21:d9:90:ed:62:4f:ef:03:f0:21:03:19:5a:
         bf:7a:67:3f:c6:a7:e8:a4:d4:81:7c:4d:96:a9:36:bf:88:1d:
         45:2e:4c:82:ee:7a:ed:7a:fb:fe:93:56:bb:d8:3d:03:3f:42:
         26:61:8c:61:ee:9a:da:6c:ee:4b:48:e0:f3:6d:86:03:02:ac:
         b4:b8:e9:fa:a2:ba:c7:bd:82:f2:97:d2:4e:32:77:25:90:be:
         fc:22:57:d8:1b:df:74:f8:02:d2:61:a0:aa:a4:a6:ae:ff:09:
         92:9f:06:16:e2:cf:95:a3:c3:93:7c:7d:db:d9:6f:6f:c0:2a:
         4e:c4:46:d8:9d:0d:ee:25:c9:db:2b:81:2f:4d:2a:43:69:9f:
         c9:e5:12:3f:0b:bf:36:8d:da:c9:01:ba:3d:c8:9a:ea:5d:2b:
         49:95:4e:c8:c1:c1:c4:41:5a:97:9f:e1:63:6c:8a:8f:ae:b4:
         8f:e0:fb:73:6d:cb:78:de:8e:e5:c3:c8:0b:e9:7b:fc:72:77:
         fa:ad:26:ee:7c:e9:62:b3:71:3a:5c:4a:6a:6a:fc:41:7a:92:
         6b:9e:93:cf:0e:35:a1:4a:90:59:fd:d0:d5:2c:dc:a2:0c:8f:
         f0:b4:04:7f:33:55:e3:98:a5:19:50:11:f2:42:fa:61:e1:9f:
         25:6c:59:e9:dd:0b:87:f0:9c:46:0c:06:df:54:10:04:76:48:
         30:a0:f5:d3:43:d0:f2:9c:10:36:57:68:90:6f:82:e2:3d:d8:
         2e:97:69:4b:fb:26:d9:7c:16:39:7a:5c:48:38:2c:bc:d0:f2:
         cf:0e:62:e5:36:ae:83:60:1a:b9:ae:4d:24:51:5b:1b:5a:ad:
         0a:06:5f:1b:b1:9a:03:35:60:0a:5a:de:8f:d1:16:88:c9:0f:
         80:7e:07:f9:47:75:fc:18:09:01:6a:f6:6b:7d:fd:66:5a:e4:
         52:81:85:58:a7:44:53:08:8b:d5:b8:0e:a3:13:9f:11:fd:e3:
         f5:7f:6f:fe:c8:e8:90:ce:e1:d5:bb:13:f1:62:85:4a:a7:1d:
         50:be:25:38:cb:65:9d:d2:55:c5:a1:f7:ea:fe:82:9c:af:8e:
         93:e4:38:b8:ad:06:98:10:a8:c7:06:64:b5:89:2e:0c:87:31:
         15:d8:9d:db:ca:48:5e:6c
-----BEGIN CERTIFICATE-----
MIIG3TCCBMWgAwIBAgIIdt9itspLSMEwDQYJKoZIhvcNAQENBQAwgYcxCzAJBgNV
BAYTAkNIMQwwCgYDVQQIEwNadWcxDDAKBgNVBAcTA1p1ZzEYMBYGA1UEChMPUGVy
ZmVjdCBQcml2YWN5MRgwFgYDVQQDEw9QZXJmZWN0IFByaXZhY3kxKDAmBgkqhkiG
9w0BCQEWGWFkbWluQHBlcmZlY3QtcHJpdmFjeS5jb20wHhcNMjQwNjIxMDAwMDAw
WhcNMjYwMjE2MDAwMDAwWjCBiTELMAkGA1UEBhMCQ0gxDDAKBgNVBAgTA1p1ZzEY
MBYGA1UEChMPUGVyZmVjdCBQcml2YWN5MSgwJgYDVQQDFB9DbGllbnRfcmlnYS5w
ZXJmZWN0LXByaXZhY3kuY29tMSgwJgYJKoZIhvcNAQkBFhlhZG1pbkBwZXJmZWN0
LXByaXZhY3kuY29tMIICIjANBgkqhkiG9w0BAQEFAAOCAg8AMIICCgKCAgEA3LiT
1H8gjxAj3h7FiLt1tJUriVoKoeGftQaMa7wbGE/YOX4DuTOrkuce+vkBx92dH7rp
rg1UYzK8Lt/k4kUk9WpfcEtfU+Aaqb1+krxZPLIu5X93aLj2YH+WVABzDhs18K7W
apfmyrscSWQb2cxG32/V3FC1D8DAEMCzbXK9N5+vLpMXS97Zpl9z7Xtn9mOpmCYD
CKW+Px7gGrNXOzBVw7kkBeA9e8q6njV5WZgPOwws6meBi9KYeo+a0ZkWnPLW5D30
qtOTSWZ9M5TwPWvVUbAIvlAe+MHnLGPly0DaV+VmVpADCXYIcJXw57e+s7CdeNcz
/o3qrhDTjAwOA7Qx1OuDcvGM+0qDmLFkSVon6OQkEB0ov3baFGPN7U+qTbEXcKKL
HFaCmcA4RNWrAW/83j9egt3uWnA0gWr0rEaFJUd+C2PS0b7RRGpu2QMdbfcQqEyh
eiTLHWpgrPt+lvIdPIL//xFliRHPpWPU9/EkhCle2BqeD40EqPgslumaRHZjhT/n
kqEsa5RBqJRygde5Qfu9iyocRrm46j4r24R5YQG0yT7nm0EUR09E/jPM56JgWUHD
MJGdLrGw0QHThxuJpPZNH9SG92JH/JsW+xcyD4pPc7gGqvcpQKoSTz7iNQL2VOzY
boegQBirJE77w1EE61RPmxddLLn73IU+FRDb1TsCAwEAAaOCAUcwggFDMAkGA1Ud
EwQCMAAwIwYJYIZIAYb4QgENBBYWFFZQTiBVc2VyIENlcnRpZmljYXRlMBEGCWCG
SAGG+EIBAQQEAwIHgDALBgNVHQ8EBAMCB4AwEwYDVR0lBAwwCgYIKwYBBQUHAwIw
HQYDVR0OBBYEFCcXiCFpJzNheFQ1/Vp7vTb6B5IJMIG8BgNVHSMEgbQwgbGAFIZP
uG0YKhs8jyc0KfCBn7puYQ7hoYGNpIGKMIGHMQswCQYDVQQGEwJDSDEMMAoGA1UE
CBMDWnVnMQwwCgYDVQQHEwNadWcxGDAWBgNVBAoTD1BlcmZlY3QgUHJpdmFjeTEY
MBYGA1UEAxMPUGVyZmVjdCBQcml2YWN5MSgwJgYJKoZIhvcNAQkBFhlhZG1pbkBw
ZXJmZWN0LXByaXZhY3kuY29tggkA+hG1xKppr2kwDQYJKoZIhvcNAQENBQADggIB
AEGpKNc9dmEvyTZZ3wh5hwAxa8amdANNU5MYI+aQcB5ocTV6MnRWs71t0J54fZMH
8K5QjbxBOIQWtfGaHv3wNXCLw+i3qTGtwLSGa5sVIdmQ7WJP7wPwIQMZWr96Zz/G
p+ik1IF8TZapNr+IHUUuTILueu16+/6TVrvYPQM/QiZhjGHumtps7ktI4PNthgMC
rLS46fqiuse9gvKX0k4ydyWQvvwiV9gb33T4AtJhoKqkpq7/CZKfBhbiz5Wjw5N8
fdvZb2/AKk7ERtidDe4lydsrgS9NKkNpn8nlEj8LvzaN2skBuj3ImupdK0mVTsjB
wcRBWpef4WNsio+utI/g+3Nty3jejuXDyAvpe/xyd/qtJu586WKzcTpcSmpq/EF6
kmuek88ONaFKkFn90NUs3KIMj/C0BH8zVeOYpRlQEfJC+mHhnyVsWendC4fwnEYM
Bt9UEAR2SDCg9dND0PKcEDZXaJBvguI92C6XaUv7Jtl8Fjl6XEg4LLzQ8s8OYuU2
roNgGrmuTSRRWxtarQoGXxuxmgM1YApa3o/RFojJD4B+B/lHdfwYCQFq9mt9/WZa
5FKBhVinRFMIi9W4DqMTnxH94/V/b/7I6JDO4dW7E/FihUqnHVC+JTjLZZ3SVcWh
9+r+gpyvjpPkOLitBpgQqMcGZLWJLgyHMRXYndvKSF5s
-----END CERTIFICATE-----
