Certificate:
    Data:
        Version: 3 (0x2)
        Serial Number: 5823132427062095636 (0x50cfec1713182f14)
    Signature Algorithm: sha512WithRSAEncryption
        Issuer: C=CH, ST=Zug, L=Zug, O=Perfect Privacy, CN=Perfect Privacy/emailAddress=admin@perfect-privacy.com
        Validity
            Not Before: Jun  5 00:00:00 2023 GMT
            Not After : Jan 30 00:00:00 2025 GMT
        Subject: C=CH, ST=Zug, O=Perfect Privacy, CN=Client_riga.perfect-privacy.com/emailAddress=admin@perfect-privacy.com
        Subject Public Key Info:
            Public Key Algorithm: rsaEncryption
                Public-Key: (4096 bit)
                Modulus:
                    00:db:2b:d8:00:44:fe:aa:c8:52:e6:0a:83:5b:b5:
                    19:23:9b:98:4d:44:81:44:85:9d:1e:4b:d8:24:6f:
                    cf:23:de:d6:0c:77:e8:4e:b2:41:95:b7:74:dd:39:
                    4e:6e:80:35:ab:bf:79:97:04:91:eb:56:a7:28:e8:
                    98:3b:12:86:e0:67:f1:dc:5f:5b:04:22:3b:a2:43:
                    3f:c7:64:4c:e9:0f:ba:f0:b8:9e:d6:cc:3d:42:79:
                    0d:cd:1f:ce:4c:0e:18:38:c4:1b:10:3e:12:18:4e:
                    01:86:f6:34:74:21:d5:89:48:0a:be:7b:6c:e0:de:
                    74:05:01:bb:45:2a:92:8a:83:48:ee:05:41:29:82:
                    a2:d9:71:41:15:45:45:04:c5:dd:b5:9c:6b:0a:c4:
                    67:cd:fd:74:61:7e:7c:ee:b9:b2:66:c4:56:e3:2a:
                    5e:10:13:3b:6f:ac:04:08:f4:69:32:6c:4e:b2:92:
                    26:32:8a:cc:8f:86:07:13:25:c6:2b:86:97:63:bf:
                    da:5d:19:62:89:ac:98:ff:bb:95:0e:c6:26:76:72:
                    60:ce:4f:5f:c9:98:d1:e2:9b:1b:3f:e3:38:d0:77:
                    a3:29:0b:07:7b:25:50:4f:5e:b4:76:ab:be:6a:13:
                    a4:e1:eb:55:da:84:39:fa:df:d9:1c:52:f7:b6:84:
                    e2:b3:45:89:c1:e9:91:3e:b5:87:6e:eb:ab:e7:5a:
                    b3:fe:78:e1:49:67:a1:bc:fb:d4:73:09:d0:bd:23:
                    1d:c4:0b:84:11:0e:4c:7b:a3:de:3f:39:c9:a5:69:
                    a7:bd:78:52:ad:b7:52:b3:f8:32:3e:a4:93:3d:9e:
                    90:96:b6:ef:3a:af:fd:6a:a0:b6:b3:8e:d2:bb:8e:
                    91:4e:7a:23:b3:75:73:1c:31:4f:b7:f2:d8:64:cc:
                    66:e8:ad:bc:e4:47:44:e4:b0:9c:45:18:7e:57:bb:
                    ed:bb:1b:e7:cb:bb:1e:85:c7:a7:c5:ac:2d:17:da:
                    5e:e5:4c:de:d7:62:1c:65:a8:e0:2e:a6:b7:66:b7:
                    63:3e:a9:ba:50:f6:0b:b3:f0:e8:f5:84:66:56:b3:
                    d1:07:78:9e:0c:2b:51:d5:1f:26:8c:c6:fc:c1:03:
                    18:e6:d6:19:f4:35:38:1c:b8:44:64:fa:5f:b9:0e:
                    8a:dc:41:85:cd:aa:33:bd:c2:ad:03:6b:4f:7f:0c:
                    7b:82:7e:af:56:af:b6:17:44:12:48:bb:bb:93:bf:
                    b8:08:e3:1a:26:e1:23:a8:a2:44:ab:f8:18:2f:22:
                    44:44:5f:16:fb:2c:ee:e7:e5:91:01:00:6a:ad:1c:
                    eb:32:f8:ab:0a:4e:d4:d3:a2:7f:8c:ec:bb:04:7b:
                    fc:bf:b5
                Exponent: 65537 (0x10001)
        X509v3 extensions:
            X509v3 Basic Constraints: 
                CA:FALSE
            Netscape Comment: 
                VPN User Certificate
            Netscape Cert Type: 
                SSL Client
            X509v3 Key Usage: 
                Digital Signature
            X509v3 Extended Key Usage: 
                TLS Web Client Authentication
            X509v3 Subject Key Identifier: 
                EA:46:25:93:1D:E1:4C:00:87:51:88:B0:A2:54:EB:54:CE:7E:08:3A
            X509v3 Authority Key Identifier: 
                keyid:86:4F:B8:6D:18:2A:1B:3C:8F:27:34:29:F0:81:9F:BA:6E:61:0E:E1
                DirName:/C=CH/ST=Zug/L=Zug/O=Perfect Privacy/CN=Perfect Privacy/emailAddress=admin@perfect-privacy.com
                serial:FA:11:B5:C4:AA:69:AF:69

    Signature Algorithm: sha512WithRSAEncryption
         08:16:a6:04:4e:c2:69:61:60:a0:71:a5:d6:ce:6e:fa:bb:54:
         2e:ff:46:4b:25:c4:21:ae:a1:d0:fc:c8:76:00:56:24:d1:c8:
         38:4c:14:96:50:0d:a4:c7:b3:79:c8:4b:88:77:76:20:0b:ba:
         82:6e:f7:13:dd:02:d6:7c:41:48:d2:43:62:d9:92:20:2a:4e:
         ac:90:02:ce:af:3d:8d:53:25:a1:2e:a7:ea:63:b3:66:07:a3:
         13:b0:27:47:f8:e2:40:db:bf:2c:94:6e:08:4d:28:94:52:ff:
         f2:67:7d:2c:dd:41:8c:c9:7d:b1:25:e9:02:1d:9b:69:30:3d:
         bd:46:2d:97:40:29:f9:ab:54:33:31:b0:48:2f:b0:d5:d5:33:
         8f:73:e4:11:a2:e4:a9:5a:a6:90:9b:92:b5:af:19:fb:87:c5:
         ee:ca:bf:94:14:69:73:c8:1e:8d:a8:3f:58:e1:68:2c:f5:d0:
         db:8c:28:4b:9e:d9:10:4a:5a:00:ef:3d:07:e1:ab:69:4a:3d:
         bc:e6:22:94:32:1c:20:32:69:e8:1e:58:6c:a3:ed:67:70:8b:
         0b:6f:30:03:b2:a9:9d:76:41:b5:04:d7:34:b6:50:a4:00:f6:
         21:b4:da:2f:84:9e:9b:b6:a5:f8:66:1a:90:6f:96:1e:c0:81:
         75:42:78:c4:39:ba:a7:f5:8f:d9:6b:7a:ad:8f:cd:90:04:e0:
         66:f4:67:04:18:e6:6f:77:6c:aa:54:f6:6e:d3:e0:07:00:e3:
         2b:ce:97:dc:38:b5:87:71:e8:67:40:d9:57:51:2f:ef:b5:b0:
         ae:35:47:50:98:3e:36:d8:7e:36:47:a8:fa:44:7c:e1:23:44:
         a4:23:36:e4:43:60:89:8a:8b:7c:5e:3f:90:89:09:57:bc:39:
         47:61:c2:5d:24:e6:39:27:44:a6:f5:92:c1:87:b5:86:1d:e8:
         fb:78:5e:0d:00:b1:be:d9:46:a2:f7:ea:1f:d3:36:9f:2c:e5:
         12:65:82:19:7a:6f:c3:6a:dc:cc:71:2f:54:94:41:03:aa:d2:
         9d:c5:d1:9d:3b:a0:18:bb:b1:83:70:b0:c0:89:8a:61:7b:8b:
         7e:77:76:72:21:d7:62:aa:4d:69:c4:d9:ec:f8:5b:41:1b:75:
         bf:86:31:20:33:69:cc:b5:64:b3:99:f1:9a:af:b5:45:92:30:
         49:07:61:66:34:38:8d:5b:d8:ef:10:7f:be:0d:a1:25:97:9b:
         fe:be:2c:68:98:49:9e:53:ad:3a:62:f0:cc:66:80:38:0a:74:
         bf:d9:db:a2:7c:f1:97:ad:cb:87:7f:0e:66:ac:36:71:17:2b:
         57:f9:1d:a4:6e:e6:e1:89
-----BEGIN CERTIFICATE-----
MIIG3TCCBMWgAwIBAgIIUM/sFxMYLxQwDQYJKoZIhvcNAQENBQAwgYcxCzAJBgNV
BAYTAkNIMQwwCgYDVQQIEwNadWcxDDAKBgNVBAcTA1p1ZzEYMBYGA1UEChMPUGVy
ZmVjdCBQcml2YWN5MRgwFgYDVQQDEw9QZXJmZWN0IFByaXZhY3kxKDAmBgkqhkiG
9w0BCQEWGWFkbWluQHBlcmZlY3QtcHJpdmFjeS5jb20wHhcNMjMwNjA1MDAwMDAw
WhcNMjUwMTMwMDAwMDAwWjCBiTELMAkGA1UEBhMCQ0gxDDAKBgNVBAgTA1p1ZzEY
MBYGA1UEChMPUGVyZmVjdCBQcml2YWN5MSgwJgYDVQQDFB9DbGllbnRfcmlnYS5w
ZXJmZWN0LXByaXZhY3kuY29tMSgwJgYJKoZIhvcNAQkBFhlhZG1pbkBwZXJmZWN0
LXByaXZhY3kuY29tMIICIjANBgkqhkiG9w0BAQEFAAOCAg8AMIICCgKCAgEA2yvY
AET+qshS5gqDW7UZI5uYTUSBRIWdHkvYJG/PI97WDHfoTrJBlbd03TlOboA1q795
lwSR61anKOiYOxKG4Gfx3F9bBCI7okM/x2RM6Q+68Lie1sw9QnkNzR/OTA4YOMQb
ED4SGE4BhvY0dCHViUgKvnts4N50BQG7RSqSioNI7gVBKYKi2XFBFUVFBMXdtZxr
CsRnzf10YX587rmyZsRW4ypeEBM7b6wECPRpMmxOspImMorMj4YHEyXGK4aXY7/a
XRliiayY/7uVDsYmdnJgzk9fyZjR4psbP+M40HejKQsHeyVQT160dqu+ahOk4etV
2oQ5+t/ZHFL3toTis0WJwemRPrWHbuur51qz/njhSWehvPvUcwnQvSMdxAuEEQ5M
e6PePznJpWmnvXhSrbdSs/gyPqSTPZ6QlrbvOq/9aqC2s47Su46RTnojs3VzHDFP
t/LYZMxm6K285EdE5LCcRRh+V7vtuxvny7sehcenxawtF9pe5Uze12IcZajgLqa3
ZrdjPqm6UPYLs/Do9YRmVrPRB3ieDCtR1R8mjMb8wQMY5tYZ9DU4HLhEZPpfuQ6K
3EGFzaozvcKtA2tPfwx7gn6vVq+2F0QSSLu7k7+4COMaJuEjqKJEq/gYLyJERF8W
+yzu5+WRAQBqrRzrMvirCk7U06J/jOy7BHv8v7UCAwEAAaOCAUcwggFDMAkGA1Ud
EwQCMAAwIwYJYIZIAYb4QgENBBYWFFZQTiBVc2VyIENlcnRpZmljYXRlMBEGCWCG
SAGG+EIBAQQEAwIHgDALBgNVHQ8EBAMCB4AwEwYDVR0lBAwwCgYIKwYBBQUHAwIw
HQYDVR0OBBYEFOpGJZMd4UwAh1GIsKJU61TOfgg6MIG8BgNVHSMEgbQwgbGAFIZP
uG0YKhs8jyc0KfCBn7puYQ7hoYGNpIGKMIGHMQswCQYDVQQGEwJDSDEMMAoGA1UE
CBMDWnVnMQwwCgYDVQQHEwNadWcxGDAWBgNVBAoTD1BlcmZlY3QgUHJpdmFjeTEY
MBYGA1UEAxMPUGVyZmVjdCBQcml2YWN5MSgwJgYJKoZIhvcNAQkBFhlhZG1pbkBw
ZXJmZWN0LXByaXZhY3kuY29tggkA+hG1xKppr2kwDQYJKoZIhvcNAQENBQADggIB
AAgWpgROwmlhYKBxpdbObvq7VC7/RkslxCGuodD8yHYAViTRyDhMFJZQDaTHs3nI
S4h3diALuoJu9xPdAtZ8QUjSQ2LZkiAqTqyQAs6vPY1TJaEup+pjs2YHoxOwJ0f4
4kDbvyyUbghNKJRS//JnfSzdQYzJfbEl6QIdm2kwPb1GLZdAKfmrVDMxsEgvsNXV
M49z5BGi5KlappCbkrWvGfuHxe7Kv5QUaXPIHo2oP1jhaCz10NuMKEue2RBKWgDv
PQfhq2lKPbzmIpQyHCAyaegeWGyj7WdwiwtvMAOyqZ12QbUE1zS2UKQA9iG02i+E
npu2pfhmGpBvlh7AgXVCeMQ5uqf1j9lreq2PzZAE4Gb0ZwQY5m93bKpU9m7T4AcA
4yvOl9w4tYdx6GdA2VdRL++1sK41R1CYPjbYfjZHqPpEfOEjRKQjNuRDYImKi3xe
P5CJCVe8OUdhwl0k5jknRKb1ksGHtYYd6Pt4Xg0Asb7ZRqL36h/TNp8s5RJlghl6
b8Nq3MxxL1SUQQOq0p3F0Z07oBi7sYNwsMCJimF7i353dnIh12KqTWnE2ez4W0Eb
db+GMSAzacy1ZLOZ8ZqvtUWSMEkHYWY0OI1b2O8Qf74NoSWXm/6+LGiYSZ5TrTpi
8MxmgDgKdL/Z26J88Zety4d/DmasNnEXK1f5HaRu5uGJ
-----END CERTIFICATE-----
