Certificate:
    Data:
        Version: 3 (0x2)
        Serial Number:
            a1:29:8e:c2:60:60:2e:fd
    Signature Algorithm: sha512WithRSAEncryption
        Issuer: C=CH, ST=Zug, L=Zug, O=Perfect Privacy, CN=Perfect Privacy/emailAddress=admin@perfect-privacy.com
        Validity
            Not Before: Jun  7 00:00:00 2024 GMT
            Not After : Feb  2 00:00:00 2026 GMT
        Subject: C=CH, ST=Zug, O=Perfect Privacy, CN=Client_reykjavik.perfect-privacy.com/emailAddress=admin@perfect-privacy.com
        Subject Public Key Info:
            Public Key Algorithm: rsaEncryption
                Public-Key: (4096 bit)
                Modulus:
                    00:c7:a2:2d:36:c4:82:cc:fb:64:84:76:12:8c:b2:
                    09:2e:c5:cc:b5:70:08:5c:7d:d9:c6:aa:f3:a9:26:
                    df:48:99:4b:a7:14:09:8d:80:9f:fd:73:25:ea:03:
                    37:52:4e:f2:cc:2c:0f:ce:da:a0:37:e0:ac:76:ef:
                    c6:c4:ee:60:e9:f3:cf:30:bf:5f:f6:d7:2f:f7:8d:
                    9f:e8:fc:07:f7:80:56:aa:65:fa:b8:8b:34:6c:08:
                    35:31:15:88:62:72:5e:f1:aa:97:c1:24:3f:03:47:
                    ad:ee:db:ed:c6:97:4f:de:a0:ab:c0:a2:a2:cd:83:
                    33:19:d0:32:9d:f2:ea:bd:6b:83:5f:2d:fd:95:d5:
                    59:b1:8b:08:ff:2a:39:8b:de:f1:8f:cd:32:bf:92:
                    c9:b3:76:f1:d1:a9:90:dd:93:02:49:59:6b:96:05:
                    8d:7f:61:a2:d3:b8:21:b5:da:2f:cd:a3:7c:1d:b0:
                    ea:2c:93:ce:83:d5:88:02:a4:d5:74:d7:5c:12:80:
                    c8:d5:fa:57:3e:af:d4:d7:ca:8e:1e:24:e6:5a:91:
                    f1:3b:ab:52:12:43:bf:d5:fb:01:e2:63:d4:1e:0a:
                    60:c6:4e:7f:a9:fc:f2:7a:1b:d3:cd:20:19:4c:83:
                    13:6f:49:6d:a0:43:a7:51:ad:f0:18:b5:80:fb:8c:
                    ba:14:27:24:45:c6:98:5e:3f:3f:36:c4:69:26:59:
                    a7:a3:de:09:10:0e:63:fb:4d:1f:b5:ca:bd:19:52:
                    14:0d:57:7e:c9:ba:cf:82:e0:19:29:c9:16:83:4b:
                    0a:5d:9b:93:72:67:1e:61:56:af:6a:a3:6e:6f:6d:
                    de:5d:3e:ef:47:2f:b4:f5:7d:be:53:29:0d:f9:e2:
                    af:41:0b:bf:33:5d:63:ae:11:2f:ee:2e:5b:a2:af:
                    0c:da:09:fd:26:94:4a:f7:93:93:7e:9e:04:53:43:
                    fb:11:f5:83:09:2a:7c:a1:ab:96:11:e7:5a:6c:a0:
                    12:20:be:8e:9e:c0:42:d0:c0:4e:ed:b8:0f:29:ef:
                    4d:69:fc:54:b5:a6:60:ea:31:11:37:44:0b:15:c8:
                    16:bb:d0:2b:b6:c3:ee:27:6e:b8:9d:1d:a2:b7:4f:
                    51:15:8a:e0:4a:cb:51:3a:ab:a8:4a:d5:2f:12:a5:
                    93:71:eb:fb:27:45:d1:02:f2:3e:7f:2a:5a:54:b4:
                    61:2c:1a:b1:2c:f8:48:87:f3:1d:d7:7d:68:2a:d1:
                    a4:05:26:60:ba:c7:bd:df:2c:b2:a1:09:2b:54:28:
                    b2:f0:60:60:d0:bf:56:45:95:c5:0f:62:fe:f9:bb:
                    c6:fc:bd:33:05:c1:8d:cb:50:7d:9b:b2:79:97:47:
                    aa:03:17
                Exponent: 65537 (0x10001)
        X509v3 extensions:
            X509v3 Basic Constraints: 
                CA:FALSE
            Netscape Comment: 
                VPN User Certificate
            Netscape Cert Type: 
                SSL Client
            X509v3 Key Usage: 
                Digital Signature
            X509v3 Extended Key Usage: 
                TLS Web Client Authentication
            X509v3 Subject Key Identifier: 
                DB:EC:09:D2:53:22:09:5C:EF:82:02:4D:75:2E:CF:FB:BA:E9:3F:FD
            X509v3 Authority Key Identifier: 
                keyid:86:4F:B8:6D:18:2A:1B:3C:8F:27:34:29:F0:81:9F:BA:6E:61:0E:E1
                DirName:/C=CH/ST=Zug/L=Zug/O=Perfect Privacy/CN=Perfect Privacy/emailAddress=admin@perfect-privacy.com
                serial:FA:11:B5:C4:AA:69:AF:69

    Signature Algorithm: sha512WithRSAEncryption
         51:c9:4c:62:0d:e8:d0:6f:f2:63:42:33:4a:e7:8b:de:ca:1b:
         5b:b7:0c:02:5d:8f:13:ea:84:b5:3b:79:c7:11:af:53:23:f5:
         a9:5e:93:89:f1:f1:92:40:92:ed:3c:31:87:7a:5e:1b:a5:41:
         3e:8f:d3:3c:0c:7e:59:36:d8:74:5e:6c:8d:2f:0f:e6:52:38:
         36:a1:3b:60:50:32:8f:af:d3:49:34:7f:18:15:80:0f:d3:6e:
         90:9a:9f:bb:40:c6:2f:be:f0:cd:51:c3:dd:16:dd:3f:bb:b1:
         e0:98:98:4d:c8:80:cc:26:e1:36:ce:b3:2f:4e:78:45:0b:5c:
         08:09:71:39:39:2f:e8:75:0f:6a:3e:c2:f6:e4:26:20:bb:be:
         de:c3:eb:b6:a6:b9:3f:ef:72:bc:7b:b6:bc:38:4d:c0:66:16:
         fd:e5:53:bf:aa:4b:6a:cf:aa:f2:4c:00:a1:57:35:56:f3:e6:
         58:d4:b8:a1:ed:19:88:7d:a9:fa:84:45:ab:20:e3:3c:9d:2b:
         85:f9:ef:e2:02:ae:54:b7:50:02:a1:b1:75:12:21:b6:c3:f3:
         f7:2b:5f:05:05:e8:85:7a:91:36:64:63:f7:59:35:e8:1f:06:
         5f:9b:aa:f1:17:72:df:8b:30:1e:2b:07:20:12:df:be:0b:98:
         66:e1:7c:2c:7e:a1:41:b5:a4:41:a7:26:b5:67:65:d9:e1:d9:
         cb:c0:65:0d:64:24:12:2f:9c:03:c9:d7:6d:49:33:5a:43:10:
         b8:b4:3b:4e:ed:a1:4a:ce:ed:5b:ce:27:33:17:5a:92:ef:76:
         9c:9a:44:44:bc:7b:bc:25:08:3f:cb:41:cb:d1:90:97:c6:cc:
         15:83:d3:dc:7c:3e:6b:d6:14:e9:b9:1b:74:b5:96:97:48:ee:
         02:c3:75:e3:b0:a0:72:fd:59:9c:71:dd:e6:be:9d:5f:e1:6f:
         f1:aa:a3:90:80:7b:8b:02:8a:af:ab:4b:8f:69:c0:c6:16:44:
         34:2e:1f:92:a3:17:84:0b:9c:09:05:11:0f:c9:92:59:f7:81:
         3e:28:ce:62:48:04:cf:0e:b6:2f:a7:ff:6a:bd:30:53:df:c8:
         82:c2:a6:93:1d:1a:e9:12:d7:0d:20:50:32:7b:a1:c4:7e:5e:
         ff:63:2b:88:ce:cc:ce:a2:22:ae:58:0a:bd:96:f8:48:4e:63:
         93:81:b2:27:d6:48:10:32:b7:6b:f6:fb:ff:4d:ae:db:27:15:
         08:39:57:96:f4:71:87:07:61:d9:d3:c6:a5:86:b9:0e:f1:b4:
         58:a5:bf:c9:63:a9:69:0b:f5:1e:2f:b5:7d:90:fc:c6:4b:9a:
         1e:ca:a2:57:83:14:8a:82
-----BEGIN CERTIFICATE-----
MIIG4zCCBMugAwIBAgIJAKEpjsJgYC79MA0GCSqGSIb3DQEBDQUAMIGHMQswCQYD
VQQGEwJDSDEMMAoGA1UECBMDWnVnMQwwCgYDVQQHEwNadWcxGDAWBgNVBAoTD1Bl
cmZlY3QgUHJpdmFjeTEYMBYGA1UEAxMPUGVyZmVjdCBQcml2YWN5MSgwJgYJKoZI
hvcNAQkBFhlhZG1pbkBwZXJmZWN0LXByaXZhY3kuY29tMB4XDTI0MDYwNzAwMDAw
MFoXDTI2MDIwMjAwMDAwMFowgY4xCzAJBgNVBAYTAkNIMQwwCgYDVQQIEwNadWcx
GDAWBgNVBAoTD1BlcmZlY3QgUHJpdmFjeTEtMCsGA1UEAxQkQ2xpZW50X3JleWtq
YXZpay5wZXJmZWN0LXByaXZhY3kuY29tMSgwJgYJKoZIhvcNAQkBFhlhZG1pbkBw
ZXJmZWN0LXByaXZhY3kuY29tMIICIjANBgkqhkiG9w0BAQEFAAOCAg8AMIICCgKC
AgEAx6ItNsSCzPtkhHYSjLIJLsXMtXAIXH3ZxqrzqSbfSJlLpxQJjYCf/XMl6gM3
Uk7yzCwPztqgN+Csdu/GxO5g6fPPML9f9tcv942f6PwH94BWqmX6uIs0bAg1MRWI
YnJe8aqXwSQ/A0et7tvtxpdP3qCrwKKizYMzGdAynfLqvWuDXy39ldVZsYsI/yo5
i97xj80yv5LJs3bx0amQ3ZMCSVlrlgWNf2Gi07ghtdovzaN8HbDqLJPOg9WIAqTV
dNdcEoDI1fpXPq/U18qOHiTmWpHxO6tSEkO/1fsB4mPUHgpgxk5/qfzyehvTzSAZ
TIMTb0ltoEOnUa3wGLWA+4y6FCckRcaYXj8/NsRpJlmno94JEA5j+00ftcq9GVIU
DVd+ybrPguAZKckWg0sKXZuTcmceYVavaqNub23eXT7vRy+09X2+UykN+eKvQQu/
M11jrhEv7i5boq8M2gn9JpRK95OTfp4EU0P7EfWDCSp8oauWEedabKASIL6OnsBC
0MBO7bgPKe9NafxUtaZg6jERN0QLFcgWu9ArtsPuJ264nR2it09RFYrgSstROquo
StUvEqWTcev7J0XRAvI+fypaVLRhLBqxLPhIh/Md131oKtGkBSZguse93yyyoQkr
VCiy8GBg0L9WRZXFD2L++bvG/L0zBcGNy1B9m7J5l0eqAxcCAwEAAaOCAUcwggFD
MAkGA1UdEwQCMAAwIwYJYIZIAYb4QgENBBYWFFZQTiBVc2VyIENlcnRpZmljYXRl
MBEGCWCGSAGG+EIBAQQEAwIHgDALBgNVHQ8EBAMCB4AwEwYDVR0lBAwwCgYIKwYB
BQUHAwIwHQYDVR0OBBYEFNvsCdJTIglc74ICTXUuz/u66T/9MIG8BgNVHSMEgbQw
gbGAFIZPuG0YKhs8jyc0KfCBn7puYQ7hoYGNpIGKMIGHMQswCQYDVQQGEwJDSDEM
MAoGA1UECBMDWnVnMQwwCgYDVQQHEwNadWcxGDAWBgNVBAoTD1BlcmZlY3QgUHJp
dmFjeTEYMBYGA1UEAxMPUGVyZmVjdCBQcml2YWN5MSgwJgYJKoZIhvcNAQkBFhlh
ZG1pbkBwZXJmZWN0LXByaXZhY3kuY29tggkA+hG1xKppr2kwDQYJKoZIhvcNAQEN
BQADggIBAFHJTGIN6NBv8mNCM0rni97KG1u3DAJdjxPqhLU7eccRr1Mj9alek4nx
8ZJAku08MYd6XhulQT6P0zwMflk22HRebI0vD+ZSODahO2BQMo+v00k0fxgVgA/T
bpCan7tAxi++8M1Rw90W3T+7seCYmE3IgMwm4TbOsy9OeEULXAgJcTk5L+h1D2o+
wvbkJiC7vt7D67amuT/vcrx7trw4TcBmFv3lU7+qS2rPqvJMAKFXNVbz5ljUuKHt
GYh9qfqERasg4zydK4X57+ICrlS3UAKhsXUSIbbD8/crXwUF6IV6kTZkY/dZNegf
Bl+bqvEXct+LMB4rByAS374LmGbhfCx+oUG1pEGnJrVnZdnh2cvAZQ1kJBIvnAPJ
121JM1pDELi0O07toUrO7VvOJzMXWpLvdpyaRES8e7wlCD/LQcvRkJfGzBWD09x8
PmvWFOm5G3S1lpdI7gLDdeOwoHL9WZxx3ea+nV/hb/Gqo5CAe4sCiq+rS49pwMYW
RDQuH5KjF4QLnAkFEQ/Jkln3gT4ozmJIBM8Oti+n/2q9MFPfyILCppMdGukS1w0g
UDJ7ocR+Xv9jK4jOzM6iIq5YCr2W+EhOY5OBsifWSBAyt2v2+/9NrtsnFQg5V5b0
cYcHYdnTxqWGuQ7xtFilv8ljqWkL9R4vtX2Q/MZLmh7KoleDFIqC
-----END CERTIFICATE-----
