Certificate:
    Data:
        Version: 3 (0x2)
        Serial Number:
            ae:d1:74:89:5e:c8:c0:8f
    Signature Algorithm: sha512WithRSAEncryption
        Issuer: C=CH, ST=Zug, L=Zug, O=Perfect Privacy, CN=Perfect Privacy/emailAddress=admin@perfect-privacy.com
        Validity
            Not Before: Jan 15 00:00:00 2023 GMT
            Not After : Sep 11 00:00:00 2024 GMT
        Subject: C=CH, ST=Zug, O=Perfect Privacy, CN=Client_reykjavik.perfect-privacy.com/emailAddress=admin@perfect-privacy.com
        Subject Public Key Info:
            Public Key Algorithm: rsaEncryption
                Public-Key: (4096 bit)
                Modulus:
                    00:cf:c2:0b:eb:8e:18:13:0c:6a:4a:c7:e1:c8:70:
                    86:8c:82:8d:d1:aa:5e:13:35:6e:35:e9:32:46:6f:
                    81:a7:3e:00:c5:ed:8d:52:5c:2f:50:88:35:1b:a1:
                    75:30:2d:bf:6e:89:7c:0e:48:8f:68:45:d7:a5:96:
                    ac:66:be:ef:df:2a:e8:73:d1:34:76:01:6b:83:61:
                    cd:bf:1b:18:fa:15:33:88:32:35:e2:49:2e:5c:43:
                    c8:b1:c9:85:3d:7d:c0:29:bd:f5:8d:71:95:3f:b8:
                    29:36:7a:36:e6:5c:17:36:41:e2:07:ee:23:cb:67:
                    f3:65:01:22:c8:ba:a6:47:97:84:bf:9f:f2:0c:3c:
                    45:2a:61:59:0a:04:7b:8f:59:e9:3d:67:2f:28:e0:
                    1d:ce:e0:32:a3:2f:3b:f3:8f:ff:07:94:1f:6c:66:
                    9c:8d:fc:2c:c6:12:01:7f:d1:43:a4:13:21:89:b5:
                    4b:85:21:1a:82:83:b9:87:d6:ef:c7:4d:f6:cf:01:
                    bd:e2:ea:57:39:c9:19:ed:72:a8:86:d4:cb:d6:86:
                    82:40:0c:18:32:c4:de:0d:ce:eb:c8:ad:47:c4:c3:
                    74:92:98:72:0f:d2:3a:fe:89:e6:11:ab:36:87:87:
                    2f:88:b4:e6:f9:92:c9:12:76:22:c6:54:06:ef:06:
                    9b:30:39:e0:f0:b1:9c:97:a9:5e:fc:00:c8:6d:04:
                    d8:af:e6:48:a2:1d:f6:4a:33:7d:d6:cd:9d:47:9a:
                    3f:7b:22:e6:9f:5d:9a:b7:1f:b9:7f:73:6a:67:2c:
                    3f:1b:11:a6:67:c8:bd:73:21:8f:65:fb:aa:75:f9:
                    3a:04:44:d4:fa:81:48:8f:f0:47:21:d9:79:29:6b:
                    56:e9:da:94:68:71:b9:86:07:c6:e2:17:07:d6:1a:
                    e8:2c:41:dd:0a:2c:9c:40:6b:21:c8:7b:33:70:c8:
                    53:28:2b:15:0c:01:b8:ba:c9:38:4c:75:94:c4:8a:
                    fc:1a:36:f2:63:18:b8:62:0f:5b:dc:e1:d4:49:06:
                    55:48:84:bc:a9:32:5f:6b:91:c2:a2:e8:9d:e6:80:
                    d3:91:c4:c4:4a:50:7c:42:4d:cf:2e:22:71:90:13:
                    07:c0:88:c4:7f:61:85:2b:94:e0:14:13:02:07:bc:
                    a3:62:9f:42:95:47:05:a6:de:07:89:e6:cd:cc:34:
                    a0:c6:5e:a4:db:85:eb:93:fa:23:c0:be:40:48:f0:
                    51:b7:14:02:dc:f0:55:60:01:ca:b3:74:b1:14:c0:
                    f1:c6:6d:89:a6:b8:e7:9c:45:8e:ce:66:d5:e5:3f:
                    4d:c5:d8:73:20:3b:8e:5d:9c:a3:e7:d2:4d:00:c9:
                    41:ce:1d
                Exponent: 65537 (0x10001)
        X509v3 extensions:
            X509v3 Basic Constraints: 
                CA:FALSE
            Netscape Comment: 
                VPN User Certificate
            Netscape Cert Type: 
                SSL Client
            X509v3 Key Usage: 
                Digital Signature
            X509v3 Extended Key Usage: 
                TLS Web Client Authentication
            X509v3 Subject Key Identifier: 
                CE:66:54:39:9F:B8:96:2B:B0:10:6D:E3:5A:93:43:0C:A1:1F:4E:33
            X509v3 Authority Key Identifier: 
                keyid:86:4F:B8:6D:18:2A:1B:3C:8F:27:34:29:F0:81:9F:BA:6E:61:0E:E1
                DirName:/C=CH/ST=Zug/L=Zug/O=Perfect Privacy/CN=Perfect Privacy/emailAddress=admin@perfect-privacy.com
                serial:FA:11:B5:C4:AA:69:AF:69

    Signature Algorithm: sha512WithRSAEncryption
         8c:9c:63:73:db:a9:14:43:ba:48:3b:db:9d:12:4e:47:2f:af:
         6c:59:c2:73:a4:c4:a4:c7:02:b1:40:21:bd:d0:d0:e1:15:13:
         c0:df:8e:95:50:8b:fb:71:30:35:6c:29:0b:8a:04:1f:e9:5f:
         6a:c7:83:eb:f3:22:b2:43:03:72:1f:10:f7:2c:40:8b:61:93:
         ae:10:b1:c8:2a:21:84:bf:c4:b6:09:26:59:b0:1a:bd:36:18:
         4e:38:a3:86:f7:a3:ff:57:07:1c:23:61:08:44:c7:55:df:6e:
         1c:ce:b8:c2:96:4d:49:c0:8e:cb:12:1a:da:bb:b0:d0:f2:2d:
         1c:84:21:81:8c:78:0d:76:7d:ff:db:f0:50:f7:9f:da:ff:96:
         5c:52:50:35:84:27:fc:9b:f2:8c:f4:fb:cd:b2:e0:d0:f5:84:
         60:05:2a:02:09:24:4e:6e:f2:6e:26:fe:6b:a8:09:d5:ef:50:
         2e:56:3e:b5:80:48:25:f0:5d:12:a3:68:3f:88:33:8e:c6:55:
         cc:af:00:74:be:f7:87:2b:03:de:ba:a8:40:9e:ea:dc:04:51:
         b2:ca:1f:9d:c8:98:b3:88:b4:81:0a:a0:cf:02:f9:2b:b3:34:
         bb:40:50:51:3c:3f:1b:81:18:53:9f:78:1f:57:7b:0a:69:3a:
         a3:c3:d1:da:a8:3c:8c:16:b1:88:4d:71:38:49:a2:47:97:0b:
         f0:0d:91:79:31:71:73:a4:ec:2a:ad:9d:40:3a:b2:82:2a:6c:
         c9:89:fc:b5:06:3d:09:61:14:23:40:89:c3:b7:6e:3a:f5:6e:
         49:9a:11:58:e0:19:52:0c:49:ad:48:7e:69:f3:48:d6:f8:a8:
         58:28:b5:fd:33:22:7f:48:0b:81:f2:18:b3:85:9d:a9:a0:2a:
         eb:90:b2:b0:4b:2d:ab:d0:fe:1f:89:21:93:0f:cc:71:e5:3b:
         c7:63:0d:3b:10:69:ce:69:d5:1c:21:8a:6b:af:04:4b:de:0a:
         ed:aa:ca:88:bf:9b:0f:ee:00:23:ff:31:78:f8:75:4f:ef:1f:
         cb:a5:7d:1b:2e:2c:34:90:1a:60:e1:83:ed:d8:37:fd:9e:90:
         26:ba:35:42:78:ad:35:e9:93:e9:7a:c3:3a:23:83:99:89:0d:
         b9:f3:78:7d:ee:3f:fd:73:da:26:36:9d:e1:82:7a:c5:4a:43:
         78:84:09:44:de:a5:10:c1:50:a1:6f:f2:48:a7:dc:d3:d7:55:
         2e:72:70:3f:ba:2e:a3:4e:4d:6c:13:1f:d8:8e:8a:5c:28:c0:
         d2:14:61:46:3b:fc:4b:67:ce:46:6a:2f:83:10:0b:24:f9:25:
         2b:7b:cd:0f:60:7d:0d:d2
-----BEGIN CERTIFICATE-----
MIIG4zCCBMugAwIBAgIJAK7RdIleyMCPMA0GCSqGSIb3DQEBDQUAMIGHMQswCQYD
VQQGEwJDSDEMMAoGA1UECBMDWnVnMQwwCgYDVQQHEwNadWcxGDAWBgNVBAoTD1Bl
cmZlY3QgUHJpdmFjeTEYMBYGA1UEAxMPUGVyZmVjdCBQcml2YWN5MSgwJgYJKoZI
hvcNAQkBFhlhZG1pbkBwZXJmZWN0LXByaXZhY3kuY29tMB4XDTIzMDExNTAwMDAw
MFoXDTI0MDkxMTAwMDAwMFowgY4xCzAJBgNVBAYTAkNIMQwwCgYDVQQIEwNadWcx
GDAWBgNVBAoTD1BlcmZlY3QgUHJpdmFjeTEtMCsGA1UEAxQkQ2xpZW50X3JleWtq
YXZpay5wZXJmZWN0LXByaXZhY3kuY29tMSgwJgYJKoZIhvcNAQkBFhlhZG1pbkBw
ZXJmZWN0LXByaXZhY3kuY29tMIICIjANBgkqhkiG9w0BAQEFAAOCAg8AMIICCgKC
AgEAz8IL644YEwxqSsfhyHCGjIKN0apeEzVuNekyRm+Bpz4Axe2NUlwvUIg1G6F1
MC2/bol8DkiPaEXXpZasZr7v3yroc9E0dgFrg2HNvxsY+hUziDI14kkuXEPIscmF
PX3AKb31jXGVP7gpNno25lwXNkHiB+4jy2fzZQEiyLqmR5eEv5/yDDxFKmFZCgR7
j1npPWcvKOAdzuAyoy8784//B5QfbGacjfwsxhIBf9FDpBMhibVLhSEagoO5h9bv
x032zwG94upXOckZ7XKohtTL1oaCQAwYMsTeDc7ryK1HxMN0kphyD9I6/onmEas2
h4cviLTm+ZLJEnYixlQG7wabMDng8LGcl6le/ADIbQTYr+ZIoh32SjN91s2dR5o/
eyLmn12atx+5f3NqZyw/GxGmZ8i9cyGPZfuqdfk6BETU+oFIj/BHIdl5KWtW6dqU
aHG5hgfG4hcH1hroLEHdCiycQGshyHszcMhTKCsVDAG4usk4THWUxIr8GjbyYxi4
Yg9b3OHUSQZVSIS8qTJfa5HCouid5oDTkcTESlB8Qk3PLiJxkBMHwIjEf2GFK5Tg
FBMCB7yjYp9ClUcFpt4HiebNzDSgxl6k24Xrk/ojwL5ASPBRtxQC3PBVYAHKs3Sx
FMDxxm2JprjnnEWOzmbV5T9NxdhzIDuOXZyj59JNAMlBzh0CAwEAAaOCAUcwggFD
MAkGA1UdEwQCMAAwIwYJYIZIAYb4QgENBBYWFFZQTiBVc2VyIENlcnRpZmljYXRl
MBEGCWCGSAGG+EIBAQQEAwIHgDALBgNVHQ8EBAMCB4AwEwYDVR0lBAwwCgYIKwYB
BQUHAwIwHQYDVR0OBBYEFM5mVDmfuJYrsBBt41qTQwyhH04zMIG8BgNVHSMEgbQw
gbGAFIZPuG0YKhs8jyc0KfCBn7puYQ7hoYGNpIGKMIGHMQswCQYDVQQGEwJDSDEM
MAoGA1UECBMDWnVnMQwwCgYDVQQHEwNadWcxGDAWBgNVBAoTD1BlcmZlY3QgUHJp
dmFjeTEYMBYGA1UEAxMPUGVyZmVjdCBQcml2YWN5MSgwJgYJKoZIhvcNAQkBFhlh
ZG1pbkBwZXJmZWN0LXByaXZhY3kuY29tggkA+hG1xKppr2kwDQYJKoZIhvcNAQEN
BQADggIBAIycY3PbqRRDukg7250STkcvr2xZwnOkxKTHArFAIb3Q0OEVE8DfjpVQ
i/txMDVsKQuKBB/pX2rHg+vzIrJDA3IfEPcsQIthk64QscgqIYS/xLYJJlmwGr02
GE44o4b3o/9XBxwjYQhEx1XfbhzOuMKWTUnAjssSGtq7sNDyLRyEIYGMeA12ff/b
8FD3n9r/llxSUDWEJ/yb8oz0+82y4ND1hGAFKgIJJE5u8m4m/muoCdXvUC5WPrWA
SCXwXRKjaD+IM47GVcyvAHS+94crA966qECe6twEUbLKH53ImLOItIEKoM8C+Suz
NLtAUFE8PxuBGFOfeB9XewppOqPD0dqoPIwWsYhNcThJokeXC/ANkXkxcXOk7Cqt
nUA6soIqbMmJ/LUGPQlhFCNAicO3bjr1bkmaEVjgGVIMSa1IfmnzSNb4qFgotf0z
In9IC4HyGLOFnamgKuuQsrBLLavQ/h+JIZMPzHHlO8djDTsQac5p1RwhimuvBEve
Cu2qyoi/mw/uACP/MXj4dU/vH8ulfRsuLDSQGmDhg+3YN/2ekCa6NUJ4rTXpk+l6
wzojg5mJDbnzeH3uP/1z2iY2neGCesVKQ3iECUTepRDBUKFv8kin3NPXVS5ycD+6
LqNOTWwTH9iOilwowNIUYUY7/EtnzkZqL4MQCyT5JSt7zQ9gfQ3S
-----END CERTIFICATE-----
