Certificate:
    Data:
        Version: 3 (0x2)
        Serial Number: 8833348372132747783 (0x7a965b8b1a3f5a07)
    Signature Algorithm: sha512WithRSAEncryption
        Issuer: C=CH, ST=Zug, L=Zug, O=Perfect Privacy, CN=Perfect Privacy/emailAddress=admin@perfect-privacy.com
        Validity
            Not Before: Dec 11 00:00:00 2022 GMT
            Not After : Aug  7 00:00:00 2024 GMT
        Subject: C=CH, ST=Zug, O=Perfect Privacy, CN=Client_riga.perfect-privacy.com/emailAddress=admin@perfect-privacy.com
        Subject Public Key Info:
            Public Key Algorithm: rsaEncryption
                Public-Key: (4096 bit)
                Modulus:
                    00:c4:d4:8f:aa:e3:27:fa:8e:aa:de:63:ed:87:3a:
                    fd:7a:b2:27:43:e3:d3:1a:9f:71:98:73:19:09:e3:
                    41:d1:bd:c5:09:8d:8a:3b:9a:de:3c:23:fa:8a:48:
                    fd:15:6d:e5:75:66:1f:91:b7:0c:f9:1b:d9:fc:92:
                    fe:b0:38:35:e1:77:8f:37:bf:7f:7e:bd:05:b0:11:
                    05:ae:a8:24:c0:21:a7:e4:34:cf:bd:9e:77:68:33:
                    72:d5:2f:a9:84:e9:47:2b:b0:e0:07:5b:d8:ea:82:
                    cd:7d:90:60:bd:4e:5a:6f:f8:13:de:00:a5:aa:2d:
                    36:09:9f:41:84:33:c2:6c:18:17:f3:46:98:65:66:
                    65:40:19:40:76:2d:00:4a:cf:d8:7f:c8:38:71:9d:
                    b1:d8:aa:75:48:d9:db:21:3b:aa:b0:b3:21:39:f2:
                    f6:1e:f9:a6:b3:97:3e:bd:96:df:25:f1:b0:a1:8c:
                    6c:af:16:48:4c:1a:38:85:7e:5e:97:69:22:76:9f:
                    fd:b6:f9:bf:7e:47:4a:41:2a:94:6d:79:2d:52:16:
                    f7:d0:21:fd:e6:78:02:4d:fd:0a:87:b6:7c:55:d6:
                    11:15:b9:66:3a:bf:fa:69:6c:a0:1e:31:0a:2f:b3:
                    f8:15:33:ee:5b:e1:d7:c6:49:49:6d:10:45:0b:62:
                    6e:09:58:2f:05:69:46:a2:d6:80:e4:57:4d:d6:18:
                    72:df:5e:f4:71:36:3b:54:6d:23:ab:f1:71:b8:54:
                    6b:1a:69:ae:b7:c7:d4:fa:75:96:58:a3:bb:bd:c8:
                    02:9c:8f:97:42:1b:be:2c:ed:dd:df:02:e5:54:1c:
                    49:57:b5:cc:da:d7:81:e0:8a:d0:32:62:72:db:27:
                    e6:f4:f3:8a:1a:37:f8:45:59:48:00:01:de:3b:b8:
                    a9:c9:c9:cc:aa:9b:5e:e9:e1:02:96:70:4e:96:43:
                    cc:12:ee:ba:02:5f:21:30:e8:41:7b:89:d2:be:7b:
                    13:82:4d:39:15:d1:27:c5:c8:7d:a8:d4:d6:fc:14:
                    34:af:11:fd:e7:f5:ac:d1:a6:07:1c:4a:8e:5f:47:
                    25:ec:1e:53:aa:28:93:2a:85:8f:6c:a9:23:59:89:
                    46:8b:47:c8:d7:dd:22:b4:f8:a2:21:ce:a2:f4:9d:
                    7f:d5:c6:80:42:c0:8e:d1:ed:de:75:08:fc:94:af:
                    0c:42:cb:86:39:a5:02:e1:ac:5f:bf:48:66:bf:09:
                    c7:ee:bd:b8:bf:d1:f0:24:72:f4:6f:54:94:94:5c:
                    31:63:94:93:30:a7:df:25:d8:ed:91:79:64:29:87:
                    4c:0a:fc:4b:90:81:1b:27:7f:fc:c0:8a:6e:b3:f2:
                    07:59:75
                Exponent: 65537 (0x10001)
        X509v3 extensions:
            X509v3 Basic Constraints: 
                CA:FALSE
            Netscape Comment: 
                VPN User Certificate
            Netscape Cert Type: 
                SSL Client
            X509v3 Key Usage: 
                Digital Signature
            X509v3 Extended Key Usage: 
                TLS Web Client Authentication
            X509v3 Subject Key Identifier: 
                57:ED:83:37:4B:17:90:E6:7E:DB:BE:63:D6:A8:A6:6B:E4:CF:2F:FF
            X509v3 Authority Key Identifier: 
                keyid:86:4F:B8:6D:18:2A:1B:3C:8F:27:34:29:F0:81:9F:BA:6E:61:0E:E1
                DirName:/C=CH/ST=Zug/L=Zug/O=Perfect Privacy/CN=Perfect Privacy/emailAddress=admin@perfect-privacy.com
                serial:FA:11:B5:C4:AA:69:AF:69

    Signature Algorithm: sha512WithRSAEncryption
         25:2e:fe:a5:4f:3f:93:f0:56:66:da:5e:18:34:64:52:c8:89:
         c5:1e:5d:97:f8:25:98:7e:0c:9f:c6:cf:27:f4:ff:08:54:fc:
         ac:3f:60:af:79:18:ab:ed:fb:da:d9:8d:93:b8:77:3f:f7:cf:
         8a:42:46:a8:ab:ef:26:84:b6:ae:4d:28:a2:d9:80:43:d0:cf:
         b8:09:f9:e9:17:28:ec:03:4c:c0:fb:1b:48:bd:51:06:ba:10:
         fa:0e:c5:49:3b:06:d5:7d:af:57:cd:0b:49:b9:cf:dc:14:62:
         e9:0b:e5:8d:da:84:e5:07:83:44:5d:99:87:f1:73:f0:62:53:
         6a:ba:ea:a9:39:ff:cd:d6:f1:5e:ca:1a:ab:1e:ec:c8:0f:e4:
         20:77:b5:82:96:ca:4f:8f:a2:f1:01:d9:06:84:b3:49:f7:f4:
         e9:5c:2c:53:02:cd:d7:72:16:06:06:f5:52:b3:8b:cd:b4:ae:
         1c:b8:b2:e5:c2:bd:71:2e:fe:ce:66:78:e7:95:37:0a:1c:d8:
         5e:cc:24:7e:da:0c:39:e8:80:2e:19:51:0a:4a:df:8f:16:f6:
         da:d3:b3:aa:52:55:eb:e0:86:7c:7e:d8:9d:14:2a:1f:7a:f2:
         5b:1a:8a:2d:06:c0:82:75:ee:66:0e:75:7a:50:67:af:10:1c:
         ca:a8:84:8b:01:7d:84:44:99:c5:af:ca:d3:17:56:dd:cb:a7:
         e7:c5:e4:f3:fb:88:de:c8:57:2c:52:53:a6:0e:26:27:d0:7f:
         63:22:97:4b:0e:92:a0:15:6e:0e:76:c8:4e:46:c1:40:d5:94:
         77:48:57:7a:31:d1:ba:e0:fc:18:93:6d:96:75:73:44:23:08:
         e7:04:a9:9e:2e:bf:cd:6c:5b:b5:e9:2c:c6:3a:1a:77:ae:f7:
         e3:03:e7:9f:43:f1:8e:52:fb:f4:45:9f:7a:b6:a0:48:f9:15:
         c9:79:53:1c:59:ba:c7:2f:0e:bd:b4:e8:0c:91:28:90:a4:6e:
         e0:01:f0:9d:3b:29:6a:15:08:2b:c0:2a:cc:ad:20:e3:10:f8:
         2a:1f:c3:df:75:a6:8d:68:2e:04:99:3b:4c:7b:4b:88:2e:a6:
         4f:d3:85:11:7e:fd:5c:e3:47:4d:a1:57:26:22:a8:93:dc:6e:
         f8:67:ff:bc:c6:60:d1:98:49:68:ec:f5:e0:f0:e9:1e:88:0a:
         7d:bf:48:1c:a6:44:a4:cf:7f:c8:e3:87:b2:ee:2d:61:4f:e8:
         2d:e8:ad:d4:2e:2e:92:66:89:8b:f7:7a:85:b0:42:19:a4:28:
         aa:24:67:22:0f:23:98:e0:d0:ec:1b:8c:d2:7a:38:05:02:3c:
         96:05:cd:3f:29:00:38:d2
-----BEGIN CERTIFICATE-----
MIIG3TCCBMWgAwIBAgIIepZbixo/WgcwDQYJKoZIhvcNAQENBQAwgYcxCzAJBgNV
BAYTAkNIMQwwCgYDVQQIEwNadWcxDDAKBgNVBAcTA1p1ZzEYMBYGA1UEChMPUGVy
ZmVjdCBQcml2YWN5MRgwFgYDVQQDEw9QZXJmZWN0IFByaXZhY3kxKDAmBgkqhkiG
9w0BCQEWGWFkbWluQHBlcmZlY3QtcHJpdmFjeS5jb20wHhcNMjIxMjExMDAwMDAw
WhcNMjQwODA3MDAwMDAwWjCBiTELMAkGA1UEBhMCQ0gxDDAKBgNVBAgTA1p1ZzEY
MBYGA1UEChMPUGVyZmVjdCBQcml2YWN5MSgwJgYDVQQDFB9DbGllbnRfcmlnYS5w
ZXJmZWN0LXByaXZhY3kuY29tMSgwJgYJKoZIhvcNAQkBFhlhZG1pbkBwZXJmZWN0
LXByaXZhY3kuY29tMIICIjANBgkqhkiG9w0BAQEFAAOCAg8AMIICCgKCAgEAxNSP
quMn+o6q3mPthzr9erInQ+PTGp9xmHMZCeNB0b3FCY2KO5rePCP6ikj9FW3ldWYf
kbcM+RvZ/JL+sDg14XePN79/fr0FsBEFrqgkwCGn5DTPvZ53aDNy1S+phOlHK7Dg
B1vY6oLNfZBgvU5ab/gT3gClqi02CZ9BhDPCbBgX80aYZWZlQBlAdi0ASs/Yf8g4
cZ2x2Kp1SNnbITuqsLMhOfL2Hvmms5c+vZbfJfGwoYxsrxZITBo4hX5el2kidp/9
tvm/fkdKQSqUbXktUhb30CH95ngCTf0Kh7Z8VdYRFblmOr/6aWygHjEKL7P4FTPu
W+HXxklJbRBFC2JuCVgvBWlGotaA5FdN1hhy3170cTY7VG0jq/FxuFRrGmmut8fU
+nWWWKO7vcgCnI+XQhu+LO3d3wLlVBxJV7XM2teB4IrQMmJy2yfm9POKGjf4RVlI
AAHeO7ipycnMqpte6eEClnBOlkPMEu66Al8hMOhBe4nSvnsTgk05FdEnxch9qNTW
/BQ0rxH95/Ws0aYHHEqOX0cl7B5TqiiTKoWPbKkjWYlGi0fI190itPiiIc6i9J1/
1caAQsCO0e3edQj8lK8MQsuGOaUC4axfv0hmvwnH7r24v9HwJHL0b1SUlFwxY5ST
MKffJdjtkXlkKYdMCvxLkIEbJ3/8wIpus/IHWXUCAwEAAaOCAUcwggFDMAkGA1Ud
EwQCMAAwIwYJYIZIAYb4QgENBBYWFFZQTiBVc2VyIENlcnRpZmljYXRlMBEGCWCG
SAGG+EIBAQQEAwIHgDALBgNVHQ8EBAMCB4AwEwYDVR0lBAwwCgYIKwYBBQUHAwIw
HQYDVR0OBBYEFFftgzdLF5Dmftu+Y9aopmvkzy//MIG8BgNVHSMEgbQwgbGAFIZP
uG0YKhs8jyc0KfCBn7puYQ7hoYGNpIGKMIGHMQswCQYDVQQGEwJDSDEMMAoGA1UE
CBMDWnVnMQwwCgYDVQQHEwNadWcxGDAWBgNVBAoTD1BlcmZlY3QgUHJpdmFjeTEY
MBYGA1UEAxMPUGVyZmVjdCBQcml2YWN5MSgwJgYJKoZIhvcNAQkBFhlhZG1pbkBw
ZXJmZWN0LXByaXZhY3kuY29tggkA+hG1xKppr2kwDQYJKoZIhvcNAQENBQADggIB
ACUu/qVPP5PwVmbaXhg0ZFLIicUeXZf4JZh+DJ/Gzyf0/whU/Kw/YK95GKvt+9rZ
jZO4dz/3z4pCRqir7yaEtq5NKKLZgEPQz7gJ+ekXKOwDTMD7G0i9UQa6EPoOxUk7
BtV9r1fNC0m5z9wUYukL5Y3ahOUHg0RdmYfxc/BiU2q66qk5/83W8V7KGqse7MgP
5CB3tYKWyk+PovEB2QaEs0n39OlcLFMCzddyFgYG9VKzi820rhy4suXCvXEu/s5m
eOeVNwoc2F7MJH7aDDnogC4ZUQpK348W9trTs6pSVevghnx+2J0UKh968lsaii0G
wIJ17mYOdXpQZ68QHMqohIsBfYREmcWvytMXVt3Lp+fF5PP7iN7IVyxSU6YOJifQ
f2Mil0sOkqAVbg52yE5GwUDVlHdIV3ox0brg/BiTbZZ1c0QjCOcEqZ4uv81sW7Xp
LMY6Gneu9+MD559D8Y5S+/RFn3q2oEj5Fcl5UxxZuscvDr206AyRKJCkbuAB8J07
KWoVCCvAKsytIOMQ+Cofw991po1oLgSZO0x7S4gupk/ThRF+/VzjR02hVyYiqJPc
bvhn/7zGYNGYSWjs9eDw6R6ICn2/SBymRKTPf8jjh7LuLWFP6C3ordQuLpJmiYv3
eoWwQhmkKKokZyIPI5jg0OwbjNJ6OAUCPJYFzT8pADjS
-----END CERTIFICATE-----
