Certificate:
    Data:
        Version: 3 (0x2)
        Serial Number:
            db:75:80:b2:52:7f:e9:4a
    Signature Algorithm: sha512WithRSAEncryption
        Issuer: C=CH, ST=Zug, L=Zug, O=Perfect Privacy, CN=Perfect Privacy/emailAddress=admin@perfect-privacy.com
        Validity
            Not Before: Mar 12 00:00:00 2023 GMT
            Not After : Nov  6 00:00:00 2024 GMT
        Subject: C=CH, ST=Zug, O=Perfect Privacy, CN=Client_reykjavik.perfect-privacy.com/emailAddress=admin@perfect-privacy.com
        Subject Public Key Info:
            Public Key Algorithm: rsaEncryption
                Public-Key: (4096 bit)
                Modulus:
                    00:dd:ba:30:e9:c8:15:c2:b7:90:d0:4c:a6:62:55:
                    a2:48:5e:ea:78:0c:27:cb:93:ec:53:40:20:e9:26:
                    36:69:85:bf:e8:75:a4:89:d2:32:44:3d:5c:db:cc:
                    b8:f1:fe:74:6b:ca:fd:2e:25:23:af:a5:5e:af:a8:
                    01:da:22:3d:f5:1d:ec:dd:5c:5b:b2:e8:38:06:d5:
                    03:8e:1e:03:8e:15:1c:fa:f1:73:8c:41:a5:55:05:
                    7d:eb:ae:d5:85:58:3c:4a:c4:75:31:3d:ab:0f:6a:
                    be:a4:a8:d5:8c:90:d0:cf:d8:e8:05:db:dc:4d:ce:
                    6f:dd:40:18:7e:be:45:84:04:9f:24:28:9c:1b:0d:
                    ae:ba:3d:df:63:35:60:47:a5:92:4e:ff:c2:ef:15:
                    4c:5e:4d:c9:bd:25:85:91:f4:22:b9:fa:20:fb:25:
                    b7:4c:8b:6e:77:b8:ee:26:42:92:67:8a:38:0f:52:
                    bc:61:8e:14:6e:f0:1b:4d:f3:a0:fd:fb:4c:2f:03:
                    64:4c:2e:94:c9:9f:56:b8:68:79:ca:0f:7e:4e:73:
                    09:b9:ed:c8:ea:9e:dc:42:3a:d1:69:95:d0:e5:62:
                    f7:fd:58:6a:aa:f5:bd:51:ee:e9:50:51:07:3d:56:
                    53:00:95:28:65:2e:c1:1f:d7:46:0e:91:3a:16:f0:
                    46:d6:b7:26:24:6c:cd:25:13:6e:5b:13:c3:b2:fa:
                    c4:99:47:96:2d:d6:bc:b1:35:5a:30:ca:f4:dd:d7:
                    0e:1d:c1:83:50:9f:86:3b:d8:db:f1:2b:ed:ff:cd:
                    16:34:40:aa:63:96:7b:8d:7f:75:d1:1a:90:c6:45:
                    f8:4c:bf:fc:e0:2a:0e:b6:04:41:f6:19:a9:cb:19:
                    05:dc:c3:c8:7e:7d:98:fc:69:75:36:fe:88:a4:ad:
                    0d:6f:1d:91:00:ef:cc:ea:0a:25:88:9c:36:14:c7:
                    e1:2c:44:a2:55:0f:15:21:a1:39:89:0a:e0:fc:1f:
                    3c:b5:31:bb:53:20:4b:d9:87:b8:74:42:58:16:d3:
                    49:21:f7:ae:16:50:6c:f6:54:20:7d:94:04:31:9d:
                    0d:33:e2:7b:95:9c:c2:4a:b0:0f:22:b3:61:c7:5d:
                    9d:ac:e7:02:af:2f:a5:66:21:df:75:d4:5e:5c:49:
                    0d:10:bb:13:85:6b:ae:e4:93:d6:f6:50:9f:ef:6e:
                    46:14:b3:dd:4c:d6:8a:ec:01:ec:6a:b1:ab:da:21:
                    e9:0f:45:30:88:d3:a4:09:2c:f5:32:cc:8b:97:84:
                    20:82:91:2d:a2:eb:f8:d2:27:1f:0d:15:8a:69:c2:
                    c8:18:8b:22:20:6f:57:cf:7e:ae:4d:c6:4e:17:36:
                    b4:fc:53
                Exponent: 65537 (0x10001)
        X509v3 extensions:
            X509v3 Basic Constraints: 
                CA:FALSE
            Netscape Comment: 
                VPN User Certificate
            Netscape Cert Type: 
                SSL Client
            X509v3 Key Usage: 
                Digital Signature
            X509v3 Extended Key Usage: 
                TLS Web Client Authentication
            X509v3 Subject Key Identifier: 
                E5:47:2E:CB:A7:96:E1:BF:D0:D7:21:9C:F2:B6:84:9B:00:9A:8B:9D
            X509v3 Authority Key Identifier: 
                keyid:86:4F:B8:6D:18:2A:1B:3C:8F:27:34:29:F0:81:9F:BA:6E:61:0E:E1
                DirName:/C=CH/ST=Zug/L=Zug/O=Perfect Privacy/CN=Perfect Privacy/emailAddress=admin@perfect-privacy.com
                serial:FA:11:B5:C4:AA:69:AF:69

    Signature Algorithm: sha512WithRSAEncryption
         9d:9c:da:f4:b7:45:f3:1e:25:e9:c6:82:d3:c7:e1:22:e4:60:
         3b:cf:81:82:06:20:50:a2:70:67:47:f0:01:a3:65:b4:1f:db:
         8b:3a:3a:11:df:e4:84:b8:9d:36:66:df:65:3c:46:ec:36:29:
         20:6f:3f:b9:e4:b0:43:0f:6b:ed:6e:ba:99:ed:69:fa:f5:9e:
         32:52:b2:69:31:7e:62:b5:89:0c:48:bf:3d:63:36:a3:d1:b2:
         06:38:d8:b8:59:52:4c:62:8d:c9:98:22:25:cd:f9:0e:ea:98:
         7f:b4:40:97:6e:72:67:33:1b:fe:c7:38:4b:13:b9:ab:85:a7:
         8e:2c:68:0a:b7:37:0d:e6:e2:60:58:46:48:1b:81:af:fd:87:
         66:0a:b0:01:dd:68:4c:ab:a8:35:e9:e7:04:9c:12:16:fd:7c:
         27:25:9b:b5:ac:56:52:e2:d5:37:f5:a7:b3:bb:20:27:23:11:
         8a:2b:ba:3a:1c:5b:54:9a:ce:5c:ac:4e:7f:85:86:e4:dd:95:
         c1:43:e3:be:3f:67:28:85:80:f8:a0:2a:52:c7:ca:2c:dc:c3:
         a0:6c:e2:9e:0e:d0:bd:d9:bd:53:e0:34:c1:1f:ba:80:09:e3:
         22:75:c6:5f:ba:d0:dc:6a:40:67:ca:92:67:08:7b:7a:f4:3a:
         ec:01:1d:39:0f:a5:4d:26:0d:7d:4f:2e:89:39:e5:66:87:e7:
         01:48:3c:29:60:df:92:07:47:ae:81:c7:c7:ee:af:89:38:ce:
         40:a5:ad:17:92:0c:3c:ab:14:31:dc:d5:22:03:96:a7:81:07:
         a8:64:59:37:39:5b:de:76:1d:2e:56:d3:ca:8a:37:f2:e2:5b:
         59:ab:59:d5:68:cf:01:bf:5d:6c:97:04:76:d5:52:49:44:b8:
         6e:ab:52:e6:3a:63:15:13:84:c1:a1:ae:8e:fe:a9:45:db:36:
         11:3b:81:cd:52:dd:84:bb:86:85:d6:2b:dc:1f:d1:48:3d:73:
         11:cf:95:0b:07:a0:e0:05:44:3f:2b:67:8c:21:8f:4f:c0:9c:
         57:11:48:36:f3:cd:58:c5:a7:e6:18:7f:23:46:d8:a8:e3:d7:
         54:27:3a:f6:b8:c3:d7:f5:68:8b:2c:79:38:b7:e3:f9:9d:64:
         90:43:96:cb:c2:a9:9d:4b:3b:73:e6:51:8f:60:ca:ba:d8:30:
         ee:71:6a:e8:85:77:42:f4:45:ea:46:d9:40:9c:4a:93:19:8a:
         95:1a:70:2e:a2:7d:a5:a4:3d:8c:ea:09:02:f6:db:5d:9f:20:
         ba:b2:e7:c1:6d:bb:7b:83:d6:d2:67:bb:bd:f0:51:b1:dc:a4:
         1e:9a:7d:8e:16:b5:43:f0
-----BEGIN CERTIFICATE-----
MIIG4zCCBMugAwIBAgIJANt1gLJSf+lKMA0GCSqGSIb3DQEBDQUAMIGHMQswCQYD
VQQGEwJDSDEMMAoGA1UECBMDWnVnMQwwCgYDVQQHEwNadWcxGDAWBgNVBAoTD1Bl
cmZlY3QgUHJpdmFjeTEYMBYGA1UEAxMPUGVyZmVjdCBQcml2YWN5MSgwJgYJKoZI
hvcNAQkBFhlhZG1pbkBwZXJmZWN0LXByaXZhY3kuY29tMB4XDTIzMDMxMjAwMDAw
MFoXDTI0MTEwNjAwMDAwMFowgY4xCzAJBgNVBAYTAkNIMQwwCgYDVQQIEwNadWcx
GDAWBgNVBAoTD1BlcmZlY3QgUHJpdmFjeTEtMCsGA1UEAxQkQ2xpZW50X3JleWtq
YXZpay5wZXJmZWN0LXByaXZhY3kuY29tMSgwJgYJKoZIhvcNAQkBFhlhZG1pbkBw
ZXJmZWN0LXByaXZhY3kuY29tMIICIjANBgkqhkiG9w0BAQEFAAOCAg8AMIICCgKC
AgEA3bow6cgVwreQ0EymYlWiSF7qeAwny5PsU0Ag6SY2aYW/6HWkidIyRD1c28y4
8f50a8r9LiUjr6Ver6gB2iI99R3s3Vxbsug4BtUDjh4DjhUc+vFzjEGlVQV9667V
hVg8SsR1MT2rD2q+pKjVjJDQz9joBdvcTc5v3UAYfr5FhASfJCicGw2uuj3fYzVg
R6WSTv/C7xVMXk3JvSWFkfQiufog+yW3TItud7juJkKSZ4o4D1K8YY4UbvAbTfOg
/ftMLwNkTC6UyZ9WuGh5yg9+TnMJue3I6p7cQjrRaZXQ5WL3/VhqqvW9Ue7pUFEH
PVZTAJUoZS7BH9dGDpE6FvBG1rcmJGzNJRNuWxPDsvrEmUeWLda8sTVaMMr03dcO
HcGDUJ+GO9jb8Svt/80WNECqY5Z7jX910RqQxkX4TL/84CoOtgRB9hmpyxkF3MPI
fn2Y/Gl1Nv6IpK0Nbx2RAO/M6goliJw2FMfhLESiVQ8VIaE5iQrg/B88tTG7UyBL
2Ye4dEJYFtNJIfeuFlBs9lQgfZQEMZ0NM+J7lZzCSrAPIrNhx12drOcCry+lZiHf
ddReXEkNELsThWuu5JPW9lCf725GFLPdTNaK7AHsarGr2iHpD0UwiNOkCSz1MsyL
l4QggpEtouv40icfDRWKacLIGIsiIG9Xz36uTcZOFza0/FMCAwEAAaOCAUcwggFD
MAkGA1UdEwQCMAAwIwYJYIZIAYb4QgENBBYWFFZQTiBVc2VyIENlcnRpZmljYXRl
MBEGCWCGSAGG+EIBAQQEAwIHgDALBgNVHQ8EBAMCB4AwEwYDVR0lBAwwCgYIKwYB
BQUHAwIwHQYDVR0OBBYEFOVHLsunluG/0NchnPK2hJsAmoudMIG8BgNVHSMEgbQw
gbGAFIZPuG0YKhs8jyc0KfCBn7puYQ7hoYGNpIGKMIGHMQswCQYDVQQGEwJDSDEM
MAoGA1UECBMDWnVnMQwwCgYDVQQHEwNadWcxGDAWBgNVBAoTD1BlcmZlY3QgUHJp
dmFjeTEYMBYGA1UEAxMPUGVyZmVjdCBQcml2YWN5MSgwJgYJKoZIhvcNAQkBFhlh
ZG1pbkBwZXJmZWN0LXByaXZhY3kuY29tggkA+hG1xKppr2kwDQYJKoZIhvcNAQEN
BQADggIBAJ2c2vS3RfMeJenGgtPH4SLkYDvPgYIGIFCicGdH8AGjZbQf24s6OhHf
5IS4nTZm32U8Ruw2KSBvP7nksEMPa+1uupntafr1njJSsmkxfmK1iQxIvz1jNqPR
sgY42LhZUkxijcmYIiXN+Q7qmH+0QJducmczG/7HOEsTuauFp44saAq3Nw3m4mBY
Rkgbga/9h2YKsAHdaEyrqDXp5wScEhb9fCclm7WsVlLi1Tf1p7O7ICcjEYorujoc
W1SazlysTn+FhuTdlcFD474/ZyiFgPigKlLHyizcw6Bs4p4O0L3ZvVPgNMEfuoAJ
4yJ1xl+60NxqQGfKkmcIe3r0OuwBHTkPpU0mDX1PLok55WaH5wFIPClg35IHR66B
x8fur4k4zkClrReSDDyrFDHc1SIDlqeBB6hkWTc5W952HS5W08qKN/LiW1mrWdVo
zwG/XWyXBHbVUklEuG6rUuY6YxUThMGhro7+qUXbNhE7gc1S3YS7hoXWK9wf0Ug9
cxHPlQsHoOAFRD8rZ4whj0/AnFcRSDbzzVjFp+YYfyNG2Kjj11QnOva4w9f1aIss
eTi34/mdZJBDlsvCqZ1LO3PmUY9gyrrYMO5xauiFd0L0RepG2UCcSpMZipUacC6i
faWkPYzqCQL2212fILqy58Ftu3uD1tJnu73wUbHcpB6afY4WtUPw
-----END CERTIFICATE-----
