Certificate:
    Data:
        Version: 3 (0x2)
        Serial Number: 4668132774980635736 (0x40c88a06a9144c58)
    Signature Algorithm: sha512WithRSAEncryption
        Issuer: C=CH, ST=Zug, L=Zug, O=Perfect Privacy, CN=Perfect Privacy/emailAddress=admin@perfect-privacy.com
        Validity
            Not Before: May 22 00:00:00 2024 GMT
            Not After : Jan 17 00:00:00 2026 GMT
        Subject: C=CH, ST=Zug, O=Perfect Privacy, CN=Client_rotterdam.perfect-privacy.com/emailAddress=admin@perfect-privacy.com
        Subject Public Key Info:
            Public Key Algorithm: rsaEncryption
                Public-Key: (4096 bit)
                Modulus:
                    00:b6:28:84:52:c8:d3:d5:93:6c:a2:15:0a:39:0d:
                    c9:47:e4:5c:10:3f:78:ef:d6:1d:3a:c5:8c:01:16:
                    56:27:c9:1f:6c:a5:b3:68:ad:f7:17:f4:84:b5:2a:
                    18:ac:23:31:5b:64:60:ea:bb:a1:d6:37:b9:ef:22:
                    45:32:0e:df:b9:f7:f2:c8:1b:ee:02:ea:09:40:a3:
                    80:fe:77:f5:3a:39:b0:fc:7d:12:93:6f:f9:e5:65:
                    f0:c9:38:61:86:42:df:28:fb:46:26:3c:77:35:74:
                    d2:57:22:20:54:ae:98:4f:16:c3:c8:c5:91:e3:9e:
                    8a:d3:dc:bb:e7:72:ba:5a:b2:0f:62:c3:2f:c3:6f:
                    62:2c:66:34:ba:69:6f:21:29:56:60:23:84:1c:56:
                    92:80:4e:a0:48:b1:bd:66:3d:9e:df:bf:fe:ae:c4:
                    32:41:b5:94:9e:32:18:1a:b7:5d:6c:d0:8d:6d:3b:
                    00:45:64:7b:ad:fd:2e:d2:08:5a:08:05:90:f7:ba:
                    cc:92:d9:30:ed:60:d3:9c:3c:13:fd:28:1d:6b:70:
                    75:2a:d4:65:fc:18:ce:c7:60:8a:b0:12:a7:c5:79:
                    db:b7:9f:51:85:a3:db:43:71:17:ed:7d:cd:a8:37:
                    5f:a0:fd:e1:ea:39:d2:48:4e:87:d0:9d:5b:04:2f:
                    85:9a:5f:73:91:f3:87:de:6a:4a:bf:84:0b:70:9a:
                    21:77:1f:d0:62:5c:05:a4:8b:b7:a6:c1:bd:3a:8f:
                    22:dc:3d:3f:ba:13:af:92:f3:6c:c7:68:90:04:37:
                    d8:d1:52:5a:9a:1f:0b:69:7b:4b:6f:2a:81:30:ed:
                    ee:ed:0d:6a:bd:eb:23:8b:2b:f1:e7:3e:d5:6c:2f:
                    b2:76:0f:a6:d7:1d:ec:67:ab:0b:25:98:a7:54:21:
                    43:bd:32:b0:e0:28:97:b0:ff:d2:19:f1:c5:31:86:
                    b8:d8:40:2e:db:3e:b4:5f:d8:64:37:3c:3f:e0:8b:
                    d1:ce:7c:20:03:46:ce:1c:77:d1:04:0a:24:0c:d8:
                    aa:b0:45:9e:03:4f:ae:0d:18:c7:72:10:60:17:8a:
                    8a:ba:3f:65:48:62:2a:de:1a:84:eb:ff:71:70:1a:
                    c7:a1:c4:48:c5:12:39:e8:61:60:fb:66:c1:60:40:
                    42:3b:36:bf:54:c8:47:11:90:5a:bb:e2:63:9e:c7:
                    e7:49:08:40:3c:20:a3:84:18:11:5b:1a:e5:3d:43:
                    f4:6c:4b:ee:6c:ab:3b:f7:a4:08:ab:26:1f:08:2a:
                    fd:fb:70:fd:cc:80:32:c5:b9:0e:c7:b1:ac:67:8d:
                    e1:2a:88:f0:eb:67:a3:0e:5b:e4:92:2e:4b:ba:02:
                    38:b3:fd
                Exponent: 65537 (0x10001)
        X509v3 extensions:
            X509v3 Basic Constraints: 
                CA:FALSE
            Netscape Comment: 
                VPN User Certificate
            Netscape Cert Type: 
                SSL Client
            X509v3 Key Usage: 
                Digital Signature
            X509v3 Extended Key Usage: 
                TLS Web Client Authentication
            X509v3 Subject Key Identifier: 
                00:80:E4:B9:0E:EC:2A:63:B7:62:89:BE:98:EE:A4:D4:9E:DB:B4:CD
            X509v3 Authority Key Identifier: 
                keyid:86:4F:B8:6D:18:2A:1B:3C:8F:27:34:29:F0:81:9F:BA:6E:61:0E:E1
                DirName:/C=CH/ST=Zug/L=Zug/O=Perfect Privacy/CN=Perfect Privacy/emailAddress=admin@perfect-privacy.com
                serial:FA:11:B5:C4:AA:69:AF:69

    Signature Algorithm: sha512WithRSAEncryption
         5b:bf:0e:ad:56:21:f9:0c:83:3a:ec:97:52:5a:32:03:a0:df:
         90:21:61:2e:19:d3:f5:1d:10:16:9e:da:9c:07:65:03:f8:e7:
         1e:c3:cd:ee:e4:b7:5f:85:37:b1:7a:0f:ee:d7:b9:60:2d:d8:
         96:c6:6b:c4:24:fa:85:af:7d:c8:2a:a8:3a:69:8b:77:28:1b:
         35:d9:84:59:21:53:9f:08:2c:5e:73:74:20:5b:1e:09:3f:1b:
         33:9f:42:ef:93:a2:c4:4b:5a:de:04:cb:15:25:63:9b:80:ce:
         23:65:7f:92:64:9d:41:a3:5f:27:7d:cd:04:30:b5:43:e8:b4:
         f1:e1:f3:ba:c7:c6:82:26:b0:1d:bc:02:cd:72:2e:45:69:6d:
         b9:db:44:d5:8b:da:31:e5:f3:01:98:ed:7a:90:27:18:bb:ce:
         af:10:78:38:6a:21:ba:b2:68:0c:97:55:52:cf:9e:f8:e3:92:
         72:85:69:81:2d:2a:4e:ad:12:31:1d:36:bc:68:38:8a:e4:a6:
         4e:32:e1:f7:16:40:74:6f:6f:ac:93:39:4d:8f:2b:62:dd:91:
         df:41:19:4d:29:6f:8e:de:86:14:f1:04:2c:c6:02:d5:24:85:
         43:df:6f:97:a0:e6:72:f9:f8:f9:b5:65:92:f8:f4:19:c1:3b:
         e7:25:fd:d4:98:b2:1a:12:45:f4:fe:1e:f2:4c:56:54:e5:67:
         c1:76:69:09:a1:30:42:55:b8:f7:b8:9b:a3:25:7e:de:1e:f1:
         33:d7:bc:a9:2b:c4:66:79:ba:2d:ea:20:6c:ef:d8:94:51:dc:
         0d:44:c6:67:08:b4:a6:11:cd:47:c6:1d:08:66:b2:3f:20:ca:
         1f:09:ae:8b:cb:0b:c4:b6:31:c2:e1:3c:bf:a5:0b:19:d5:81:
         c5:db:71:8d:9e:c3:38:a6:aa:63:b7:01:99:af:6a:50:2d:fa:
         2c:36:66:6c:60:5b:4e:97:f6:da:6d:25:58:1d:d5:65:7a:97:
         a6:c4:60:85:8e:b7:ee:61:0a:5c:91:a7:a3:df:26:83:0b:01:
         81:d3:10:ba:81:ae:1c:d9:fc:59:22:83:bf:e9:ef:b7:7f:3b:
         48:b6:0e:b2:5d:2d:77:21:ba:ab:64:dc:4c:86:89:75:b0:8a:
         b7:ce:8d:90:37:1a:00:b0:db:2a:67:56:bd:48:5b:95:b0:c5:
         96:ae:30:64:c4:39:e7:d2:b2:55:86:66:d5:83:d4:08:37:d4:
         23:d4:36:4a:f8:a0:35:2a:12:74:b8:4f:49:e5:2e:6b:d6:7d:
         e0:01:28:62:ea:21:d4:f6:8f:e8:1d:c5:ad:c2:ab:0d:c2:c5:
         e1:d2:80:bd:92:f4:23:25
-----BEGIN CERTIFICATE-----
MIIG4jCCBMqgAwIBAgIIQMiKBqkUTFgwDQYJKoZIhvcNAQENBQAwgYcxCzAJBgNV
BAYTAkNIMQwwCgYDVQQIEwNadWcxDDAKBgNVBAcTA1p1ZzEYMBYGA1UEChMPUGVy
ZmVjdCBQcml2YWN5MRgwFgYDVQQDEw9QZXJmZWN0IFByaXZhY3kxKDAmBgkqhkiG
9w0BCQEWGWFkbWluQHBlcmZlY3QtcHJpdmFjeS5jb20wHhcNMjQwNTIyMDAwMDAw
WhcNMjYwMTE3MDAwMDAwWjCBjjELMAkGA1UEBhMCQ0gxDDAKBgNVBAgTA1p1ZzEY
MBYGA1UEChMPUGVyZmVjdCBQcml2YWN5MS0wKwYDVQQDFCRDbGllbnRfcm90dGVy
ZGFtLnBlcmZlY3QtcHJpdmFjeS5jb20xKDAmBgkqhkiG9w0BCQEWGWFkbWluQHBl
cmZlY3QtcHJpdmFjeS5jb20wggIiMA0GCSqGSIb3DQEBAQUAA4ICDwAwggIKAoIC
AQC2KIRSyNPVk2yiFQo5DclH5FwQP3jv1h06xYwBFlYnyR9spbNorfcX9IS1Khis
IzFbZGDqu6HWN7nvIkUyDt+59/LIG+4C6glAo4D+d/U6ObD8fRKTb/nlZfDJOGGG
Qt8o+0YmPHc1dNJXIiBUrphPFsPIxZHjnorT3Lvncrpasg9iwy/Db2IsZjS6aW8h
KVZgI4QcVpKATqBIsb1mPZ7fv/6uxDJBtZSeMhgat11s0I1tOwBFZHut/S7SCFoI
BZD3usyS2TDtYNOcPBP9KB1rcHUq1GX8GM7HYIqwEqfFedu3n1GFo9tDcRftfc2o
N1+g/eHqOdJITofQnVsEL4WaX3OR84feakq/hAtwmiF3H9BiXAWki7emwb06jyLc
PT+6E6+S82zHaJAEN9jRUlqaHwtpe0tvKoEw7e7tDWq96yOLK/HnPtVsL7J2D6bX
HexnqwslmKdUIUO9MrDgKJew/9IZ8cUxhrjYQC7bPrRf2GQ3PD/gi9HOfCADRs4c
d9EECiQM2KqwRZ4DT64NGMdyEGAXioq6P2VIYireGoTr/3FwGsehxEjFEjnoYWD7
ZsFgQEI7Nr9UyEcRkFq74mOex+dJCEA8IKOEGBFbGuU9Q/RsS+5sqzv3pAirJh8I
Kv37cP3MgDLFuQ7HsaxnjeEqiPDrZ6MOW+SSLku6Ajiz/QIDAQABo4IBRzCCAUMw
CQYDVR0TBAIwADAjBglghkgBhvhCAQ0EFhYUVlBOIFVzZXIgQ2VydGlmaWNhdGUw
EQYJYIZIAYb4QgEBBAQDAgeAMAsGA1UdDwQEAwIHgDATBgNVHSUEDDAKBggrBgEF
BQcDAjAdBgNVHQ4EFgQUAIDkuQ7sKmO3Yom+mO6k1J7btM0wgbwGA1UdIwSBtDCB
sYAUhk+4bRgqGzyPJzQp8IGfum5hDuGhgY2kgYowgYcxCzAJBgNVBAYTAkNIMQww
CgYDVQQIEwNadWcxDDAKBgNVBAcTA1p1ZzEYMBYGA1UEChMPUGVyZmVjdCBQcml2
YWN5MRgwFgYDVQQDEw9QZXJmZWN0IFByaXZhY3kxKDAmBgkqhkiG9w0BCQEWGWFk
bWluQHBlcmZlY3QtcHJpdmFjeS5jb22CCQD6EbXEqmmvaTANBgkqhkiG9w0BAQ0F
AAOCAgEAW78OrVYh+QyDOuyXUloyA6DfkCFhLhnT9R0QFp7anAdlA/jnHsPN7uS3
X4U3sXoP7te5YC3YlsZrxCT6ha99yCqoOmmLdygbNdmEWSFTnwgsXnN0IFseCT8b
M59C75OixEta3gTLFSVjm4DOI2V/kmSdQaNfJ33NBDC1Q+i08eHzusfGgiawHbwC
zXIuRWltudtE1YvaMeXzAZjtepAnGLvOrxB4OGohurJoDJdVUs+e+OOScoVpgS0q
Tq0SMR02vGg4iuSmTjLh9xZAdG9vrJM5TY8rYt2R30EZTSlvjt6GFPEELMYC1SSF
Q99vl6Dmcvn4+bVlkvj0GcE75yX91JiyGhJF9P4e8kxWVOVnwXZpCaEwQlW497ib
oyV+3h7xM9e8qSvEZnm6LeogbO/YlFHcDUTGZwi0phHNR8YdCGayPyDKHwmui8sL
xLYxwuE8v6ULGdWBxdtxjZ7DOKaqY7cBma9qUC36LDZmbGBbTpf22m0lWB3VZXqX
psRghY637mEKXJGno98mgwsBgdMQuoGuHNn8WSKDv+nvt387SLYOsl0tdyG6q2Tc
TIaJdbCKt86NkDcaALDbKmdWvUhblbDFlq4wZMQ559KyVYZm1YPUCDfUI9Q2Svig
NSoSdLhPSeUua9Z94AEoYuoh1PaP6B3FrcKrDcLF4dKAvZL0IyU=
-----END CERTIFICATE-----
