Certificate:
    Data:
        Version: 3 (0x2)
        Serial Number: 9069520053092901026 (0x7ddd686f97e260a2)
    Signature Algorithm: sha512WithRSAEncryption
        Issuer: C=CH, ST=Zug, L=Zug, O=Perfect Privacy, CN=Perfect Privacy/emailAddress=admin@perfect-privacy.com
        Validity
            Not Before: Jun 15 00:00:00 2024 GMT
            Not After : Feb 10 00:00:00 2026 GMT
        Subject: C=CH, ST=Zug, O=Perfect Privacy, CN=Client_singapore.perfect-privacy.com/emailAddress=admin@perfect-privacy.com
        Subject Public Key Info:
            Public Key Algorithm: rsaEncryption
                Public-Key: (4096 bit)
                Modulus:
                    00:be:71:eb:3b:59:f2:51:1c:c7:4b:ff:e0:0a:d2:
                    e1:ed:f7:c7:33:5b:a5:2e:ef:13:f8:2a:34:09:ee:
                    47:a1:b5:96:f8:c8:28:02:20:58:54:da:21:fa:2d:
                    82:3c:6f:17:2b:a4:d2:fb:78:82:d7:6b:bf:12:80:
                    c9:a4:94:18:a4:47:01:f0:e3:56:65:98:7c:fe:94:
                    97:71:cc:96:01:1c:38:7a:7b:dd:b2:31:b1:82:8a:
                    13:ed:d5:bd:d9:84:c4:da:49:28:4a:6a:19:b9:ef:
                    f1:2f:16:6d:6e:dc:a6:4f:25:aa:f0:c8:a9:ff:d4:
                    da:f0:26:79:9e:a0:c8:59:2c:27:c3:35:fa:7e:d4:
                    17:ad:52:98:30:e6:a2:aa:e7:9d:9e:64:f7:15:e5:
                    42:ff:e8:fe:7b:da:e3:38:bc:2d:ff:e1:f3:6d:b3:
                    3f:a3:2d:00:28:75:6c:c7:7e:e0:66:4d:0c:e6:b7:
                    ac:ae:1a:51:0a:3a:85:db:6e:84:05:f7:ca:b6:e1:
                    49:3c:1d:c6:3c:03:77:83:ac:50:fd:6a:d2:a9:56:
                    d0:c2:ec:cf:79:d3:4e:30:0d:7e:6f:9b:28:ec:d1:
                    da:db:1b:ab:ef:51:92:10:27:d1:c9:b9:f1:64:cb:
                    b2:9a:57:5d:1a:91:c4:a1:51:66:2e:88:23:3b:57:
                    14:aa:a0:24:4d:f2:e2:b4:b7:53:4f:13:e3:27:ef:
                    1c:6a:7b:78:24:7f:f8:83:e8:4a:a9:e7:21:9e:91:
                    f1:b3:e8:36:76:49:e0:7c:7d:d7:06:c1:b4:1c:07:
                    7b:9c:f6:4e:d5:58:79:7b:c1:6c:58:c7:ee:13:b6:
                    cd:66:ea:24:d6:4f:68:92:b7:35:ad:c4:d4:6b:25:
                    69:07:26:af:1b:f8:6a:85:09:2b:63:9b:9c:07:94:
                    3a:e0:d5:1f:1e:85:fa:81:12:16:de:cb:42:ea:f4:
                    8d:17:7b:2b:64:c7:43:16:73:f1:89:7b:72:5f:ab:
                    d8:c0:21:96:da:0b:b9:fb:8d:ff:1c:9e:c8:3d:44:
                    34:08:02:18:d0:75:fc:15:a3:ea:6e:ad:6c:d3:3a:
                    06:42:1e:f2:58:b9:b1:52:cf:c3:8f:5d:77:11:d4:
                    ee:7a:69:3b:6d:58:9a:16:24:1e:42:64:a5:63:f3:
                    21:22:89:9e:36:f3:b1:74:65:7f:80:7d:e2:a3:a8:
                    28:d1:b4:43:c2:a5:f9:a4:1c:71:70:fd:93:0a:7d:
                    72:48:cb:68:b3:10:1a:36:48:c9:83:56:5b:ea:7b:
                    19:a9:c2:9a:e9:85:b0:1b:d4:41:d4:fb:da:0c:0f:
                    5e:16:3b:ab:5c:48:07:33:d1:96:d9:18:eb:5b:ba:
                    f6:df:6f
                Exponent: 65537 (0x10001)
        X509v3 extensions:
            X509v3 Basic Constraints: 
                CA:FALSE
            Netscape Comment: 
                VPN User Certificate
            Netscape Cert Type: 
                SSL Client
            X509v3 Key Usage: 
                Digital Signature
            X509v3 Extended Key Usage: 
                TLS Web Client Authentication
            X509v3 Subject Key Identifier: 
                8D:0F:8A:49:71:2C:C9:D3:53:34:7E:BE:50:02:D7:59:0F:45:19:FC
            X509v3 Authority Key Identifier: 
                keyid:86:4F:B8:6D:18:2A:1B:3C:8F:27:34:29:F0:81:9F:BA:6E:61:0E:E1
                DirName:/C=CH/ST=Zug/L=Zug/O=Perfect Privacy/CN=Perfect Privacy/emailAddress=admin@perfect-privacy.com
                serial:FA:11:B5:C4:AA:69:AF:69

    Signature Algorithm: sha512WithRSAEncryption
         72:c8:20:9a:7a:91:0d:2e:75:75:9f:a8:b8:e9:50:90:97:0c:
         43:15:0e:08:41:99:2a:69:8a:0d:be:98:a5:6e:ca:93:35:90:
         31:7f:b3:6f:89:e4:ab:ba:80:b4:05:d4:43:e5:cf:5c:f0:ee:
         88:f8:83:85:ed:2b:3e:81:1c:54:f4:73:1b:e5:b2:dc:17:50:
         91:33:c8:08:28:cb:86:15:58:5d:17:5f:f3:91:a3:21:9d:6a:
         1a:f4:0c:90:30:57:f3:22:b8:ff:06:85:35:57:03:f2:85:65:
         24:28:13:64:f8:da:5a:f9:ce:f5:d9:7d:4b:79:b4:b3:06:97:
         c4:87:cd:45:ac:5f:4f:2a:a5:5c:7a:5a:46:2e:00:14:45:06:
         41:69:12:1e:32:2a:a7:bd:54:6b:53:c9:16:81:bd:b0:c0:13:
         00:59:81:eb:27:b6:1d:f7:19:52:9c:db:7a:7c:ab:e8:a0:2d:
         47:91:b9:2e:97:4f:90:48:f5:c1:6c:66:79:74:f7:c8:a7:c6:
         02:c7:c0:85:5b:bb:6e:59:98:f9:fa:da:ba:52:7e:84:6f:60:
         a3:31:8e:c0:96:f9:22:31:7a:d6:b1:bd:9c:f9:61:0d:d0:c8:
         97:28:60:80:b1:bf:68:e6:3c:b4:8b:c2:5d:67:37:47:45:1a:
         5f:60:86:77:81:37:6f:1d:da:4c:cc:7e:61:3f:bf:8d:49:ab:
         b8:96:f5:94:ac:72:c5:77:15:87:41:73:59:7c:cb:b8:f5:d6:
         ec:c6:f8:5a:c9:6e:60:00:46:d2:59:3e:bc:9f:9f:c9:4c:24:
         4a:35:dc:fb:a9:d8:23:40:4f:67:fd:0d:41:16:b8:e0:e6:a3:
         94:70:65:b8:8e:83:0f:98:06:45:e1:ee:fa:f9:9a:e5:a1:ed:
         c8:8f:f1:06:76:da:bc:a8:37:0e:4a:08:22:a4:08:7c:7c:b1:
         fc:98:42:0c:6a:be:93:d0:63:b5:76:d0:3f:3e:63:32:ca:40:
         d7:fd:05:ba:2a:9b:36:56:6c:d6:c0:dd:59:ee:ba:6a:94:77:
         be:80:bb:4f:39:a6:cf:07:60:6c:56:3b:c1:37:84:18:27:9d:
         6c:58:c9:65:4a:05:58:05:6a:d6:91:b5:bc:fa:eb:d8:1b:02:
         34:bd:4e:4e:28:ca:fb:a1:72:96:f4:ce:fb:7d:50:d0:08:3e:
         b7:6f:09:99:57:b9:33:51:17:9d:93:e1:23:21:5f:58:2e:13:
         ec:62:bb:5b:4a:d6:bd:a3:3d:2d:5b:6d:3e:86:68:f7:e6:ce:
         81:f3:a3:c7:29:6f:f4:70:bf:58:f9:ff:23:25:9c:60:c3:2d:
         92:9e:a6:61:6d:0e:3a:bd
-----BEGIN CERTIFICATE-----
MIIG4jCCBMqgAwIBAgIIfd1ob5fiYKIwDQYJKoZIhvcNAQENBQAwgYcxCzAJBgNV
BAYTAkNIMQwwCgYDVQQIEwNadWcxDDAKBgNVBAcTA1p1ZzEYMBYGA1UEChMPUGVy
ZmVjdCBQcml2YWN5MRgwFgYDVQQDEw9QZXJmZWN0IFByaXZhY3kxKDAmBgkqhkiG
9w0BCQEWGWFkbWluQHBlcmZlY3QtcHJpdmFjeS5jb20wHhcNMjQwNjE1MDAwMDAw
WhcNMjYwMjEwMDAwMDAwWjCBjjELMAkGA1UEBhMCQ0gxDDAKBgNVBAgTA1p1ZzEY
MBYGA1UEChMPUGVyZmVjdCBQcml2YWN5MS0wKwYDVQQDFCRDbGllbnRfc2luZ2Fw
b3JlLnBlcmZlY3QtcHJpdmFjeS5jb20xKDAmBgkqhkiG9w0BCQEWGWFkbWluQHBl
cmZlY3QtcHJpdmFjeS5jb20wggIiMA0GCSqGSIb3DQEBAQUAA4ICDwAwggIKAoIC
AQC+ces7WfJRHMdL/+AK0uHt98czW6Uu7xP4KjQJ7kehtZb4yCgCIFhU2iH6LYI8
bxcrpNL7eILXa78SgMmklBikRwHw41ZlmHz+lJdxzJYBHDh6e92yMbGCihPt1b3Z
hMTaSShKahm57/EvFm1u3KZPJarwyKn/1NrwJnmeoMhZLCfDNfp+1BetUpgw5qKq
552eZPcV5UL/6P572uM4vC3/4fNtsz+jLQAodWzHfuBmTQzmt6yuGlEKOoXbboQF
98q24Uk8HcY8A3eDrFD9atKpVtDC7M95004wDX5vmyjs0drbG6vvUZIQJ9HJufFk
y7KaV10akcShUWYuiCM7VxSqoCRN8uK0t1NPE+Mn7xxqe3gkf/iD6Eqp5yGekfGz
6DZ2SeB8fdcGwbQcB3uc9k7VWHl7wWxYx+4Tts1m6iTWT2iStzWtxNRrJWkHJq8b
+GqFCStjm5wHlDrg1R8ehfqBEhbey0Lq9I0Xeytkx0MWc/GJe3Jfq9jAIZbaC7n7
jf8cnsg9RDQIAhjQdfwVo+purWzTOgZCHvJYubFSz8OPXXcR1O56aTttWJoWJB5C
ZKVj8yEiiZ4287F0ZX+AfeKjqCjRtEPCpfmkHHFw/ZMKfXJIy2izEBo2SMmDVlvq
exmpwprphbAb1EHU+9oMD14WO6tcSAcz0ZbZGOtbuvbfbwIDAQABo4IBRzCCAUMw
CQYDVR0TBAIwADAjBglghkgBhvhCAQ0EFhYUVlBOIFVzZXIgQ2VydGlmaWNhdGUw
EQYJYIZIAYb4QgEBBAQDAgeAMAsGA1UdDwQEAwIHgDATBgNVHSUEDDAKBggrBgEF
BQcDAjAdBgNVHQ4EFgQUjQ+KSXEsydNTNH6+UALXWQ9FGfwwgbwGA1UdIwSBtDCB
sYAUhk+4bRgqGzyPJzQp8IGfum5hDuGhgY2kgYowgYcxCzAJBgNVBAYTAkNIMQww
CgYDVQQIEwNadWcxDDAKBgNVBAcTA1p1ZzEYMBYGA1UEChMPUGVyZmVjdCBQcml2
YWN5MRgwFgYDVQQDEw9QZXJmZWN0IFByaXZhY3kxKDAmBgkqhkiG9w0BCQEWGWFk
bWluQHBlcmZlY3QtcHJpdmFjeS5jb22CCQD6EbXEqmmvaTANBgkqhkiG9w0BAQ0F
AAOCAgEAcsggmnqRDS51dZ+ouOlQkJcMQxUOCEGZKmmKDb6YpW7KkzWQMX+zb4nk
q7qAtAXUQ+XPXPDuiPiDhe0rPoEcVPRzG+Wy3BdQkTPICCjLhhVYXRdf85GjIZ1q
GvQMkDBX8yK4/waFNVcD8oVlJCgTZPjaWvnO9dl9S3m0swaXxIfNRaxfTyqlXHpa
Ri4AFEUGQWkSHjIqp71Ua1PJFoG9sMATAFmB6ye2HfcZUpzbenyr6KAtR5G5LpdP
kEj1wWxmeXT3yKfGAsfAhVu7blmY+fraulJ+hG9gozGOwJb5IjF61rG9nPlhDdDI
lyhggLG/aOY8tIvCXWc3R0UaX2CGd4E3bx3aTMx+YT+/jUmruJb1lKxyxXcVh0Fz
WXzLuPXW7Mb4WsluYABG0lk+vJ+fyUwkSjXc+6nYI0BPZ/0NQRa44OajlHBluI6D
D5gGReHu+vma5aHtyI/xBnbavKg3DkoIIqQIfHyx/JhCDGq+k9BjtXbQPz5jMspA
1/0FuiqbNlZs1sDdWe66apR3voC7TzmmzwdgbFY7wTeEGCedbFjJZUoFWAVq1pG1
vPrr2BsCNL1OTijK+6FylvTO+31Q0Ag+t28JmVe5M1EXnZPhIyFfWC4T7GK7W0rW
vaM9LVttPoZo9+bOgfOjxylv9HC/WPn/IyWcYMMtkp6mYW0OOr0=
-----END CERTIFICATE-----
