Certificate:
    Data:
        Version: 3 (0x2)
        Serial Number:
            d7:74:d7:dd:9e:a2:03:34
    Signature Algorithm: sha512WithRSAEncryption
        Issuer: C=CH, ST=Zug, L=Zug, O=Perfect Privacy, CN=Perfect Privacy/emailAddress=admin@perfect-privacy.com
        Validity
            Not Before: Jun 12 00:00:00 2024 GMT
            Not After : Feb  7 00:00:00 2026 GMT
        Subject: C=CH, ST=Zug, O=Perfect Privacy, CN=Client_stockholm.perfect-privacy.com/emailAddress=admin@perfect-privacy.com
        Subject Public Key Info:
            Public Key Algorithm: rsaEncryption
                Public-Key: (4096 bit)
                Modulus:
                    00:b8:86:8b:81:43:0e:c4:e6:67:06:ab:68:0f:85:
                    e9:da:33:63:85:67:eb:67:5d:7b:46:d2:f5:32:73:
                    30:fd:11:18:39:35:31:1d:39:71:96:f2:a1:fb:4a:
                    37:93:c1:24:c6:da:49:f0:1a:05:62:de:97:05:32:
                    9d:30:ae:3b:98:2c:4e:ef:7e:81:ac:67:66:92:3d:
                    04:31:8a:eb:c0:ca:5b:4a:0a:a5:f9:32:ad:cd:32:
                    6f:ff:c7:25:ec:08:d2:c6:e7:a6:fb:e2:56:b4:95:
                    5e:21:d2:c7:2a:d3:8f:98:f1:c5:d9:46:7a:a0:de:
                    34:ac:1a:65:05:4f:db:0b:ee:21:56:ee:b0:f5:1c:
                    80:9b:7d:3a:0e:19:0a:f7:11:68:2d:06:2b:52:74:
                    29:15:3c:f7:3d:8b:86:25:e7:82:fa:65:68:fe:fb:
                    6e:c1:37:39:c6:39:61:6a:9e:91:65:98:b2:1f:37:
                    45:bd:57:a7:e9:35:c5:5c:9d:85:ea:a8:de:5d:17:
                    1b:1a:5a:a5:83:d6:cc:49:de:41:81:68:f0:54:c7:
                    ad:f0:62:d0:23:92:b5:db:55:d1:5d:ea:9f:ae:2f:
                    94:5c:92:7f:28:e8:76:26:0d:04:a9:07:ef:d1:14:
                    2f:75:3f:86:88:f1:e6:88:e2:e5:3d:90:af:49:9d:
                    42:40:5f:6b:c2:40:7c:59:fe:0e:14:6b:3b:07:2e:
                    cb:11:cc:fe:c6:2e:b5:3e:7e:ca:77:d8:77:60:06:
                    03:6e:03:e0:9c:c8:9f:18:1e:cf:ca:14:3c:cf:ed:
                    30:1c:f8:28:b9:f8:c5:3c:e4:84:76:04:8d:6d:6f:
                    3c:35:6f:ed:47:16:93:7b:ce:29:20:a3:b1:b7:d1:
                    ed:13:e5:82:34:74:06:55:4b:d6:ba:b2:a2:23:fa:
                    5c:8d:41:3b:1e:c3:98:f4:00:46:91:ce:1a:f0:1f:
                    9b:e5:59:43:59:27:19:71:f0:76:86:0f:53:c4:b9:
                    42:3b:a8:a5:55:9f:e2:47:34:37:80:24:de:d7:fb:
                    29:75:6d:c5:c1:ef:3e:5e:72:c3:09:0a:10:3b:bf:
                    65:e6:81:a1:84:ab:34:3b:2b:bf:f8:d3:a0:32:19:
                    83:4a:6c:7e:f4:8c:ec:1c:55:e6:5a:22:b1:44:2f:
                    b3:32:47:d9:09:49:f4:2b:73:25:91:4f:61:3b:ce:
                    65:39:57:d9:1d:0b:d7:b3:24:29:17:b1:8a:2f:b5:
                    52:26:b6:f8:cb:73:95:9b:bb:cd:30:97:38:43:67:
                    53:a0:19:8d:b4:25:32:41:7c:df:e4:2c:61:0f:c9:
                    3d:53:c8:80:a6:45:ce:f2:10:14:8a:8f:d1:49:93:
                    3a:c9:9d
                Exponent: 65537 (0x10001)
        X509v3 extensions:
            X509v3 Basic Constraints: 
                CA:FALSE
            Netscape Comment: 
                VPN User Certificate
            Netscape Cert Type: 
                SSL Client
            X509v3 Key Usage: 
                Digital Signature
            X509v3 Extended Key Usage: 
                TLS Web Client Authentication
            X509v3 Subject Key Identifier: 
                C0:6C:0B:DA:8E:3D:95:4D:B0:CE:F9:A2:6F:36:62:B7:B0:95:3A:2F
            X509v3 Authority Key Identifier: 
                keyid:86:4F:B8:6D:18:2A:1B:3C:8F:27:34:29:F0:81:9F:BA:6E:61:0E:E1
                DirName:/C=CH/ST=Zug/L=Zug/O=Perfect Privacy/CN=Perfect Privacy/emailAddress=admin@perfect-privacy.com
                serial:FA:11:B5:C4:AA:69:AF:69

    Signature Algorithm: sha512WithRSAEncryption
         4a:a2:aa:5e:d7:f0:4a:69:94:b9:2b:41:d7:30:d7:be:46:da:
         e7:cc:4e:2f:ca:ee:7a:80:83:25:cb:9c:f2:be:75:3d:16:44:
         cd:3f:55:5b:ca:a2:ad:14:25:5d:4f:17:19:28:b5:79:89:03:
         e1:9f:1c:30:e8:1f:32:2c:1a:56:03:78:46:98:04:04:0a:e8:
         0d:87:ba:b3:48:69:96:00:f5:ac:28:bd:96:11:31:30:04:80:
         35:d8:7e:62:e3:2f:84:7d:70:9c:9f:63:b5:a8:84:8a:f1:4a:
         24:79:c2:07:2e:88:2f:60:2d:98:59:59:ac:18:20:94:58:46:
         d6:0e:5d:47:48:4b:0c:a2:f6:ed:29:25:db:66:f6:25:b4:1a:
         66:51:33:16:96:f0:73:19:a5:4a:28:42:02:5d:37:e7:e4:26:
         8f:fd:1c:47:a8:4b:76:b8:17:61:17:28:24:e6:d3:85:13:bc:
         d9:fb:db:93:19:5e:e9:48:aa:e1:eb:08:25:fe:cb:d0:93:7d:
         36:37:e0:c0:38:e6:55:4c:24:36:ba:01:dc:c9:89:5b:37:61:
         19:4f:65:c5:d3:0f:ca:21:8f:e5:71:10:35:d6:25:8c:98:1d:
         b9:73:18:b5:a2:dd:32:2a:bb:f2:24:cd:e7:d6:1c:f1:46:38:
         78:36:a1:5c:4d:21:32:bd:71:40:15:71:bf:52:2b:68:45:0e:
         aa:93:50:72:01:f0:4d:35:ea:ab:94:e3:52:72:35:c3:70:d7:
         eb:b2:f2:cf:03:76:82:80:0b:c3:11:d4:b0:71:2a:7d:1a:1d:
         67:d9:88:11:df:c6:90:d8:b7:e9:7a:96:58:e7:e0:94:81:64:
         3e:26:0d:8a:9e:04:93:1e:13:3c:88:96:6a:dc:11:52:e9:ce:
         29:07:d4:b5:5d:0a:a0:e8:3f:31:81:1e:7d:f8:c2:c3:b9:b5:
         db:54:5f:b4:d5:11:75:ea:de:1c:de:62:4c:d7:46:bb:8a:21:
         7a:6b:1d:8d:35:bb:98:7a:81:ec:e7:1e:cf:5f:96:e9:00:0d:
         6a:b0:31:03:62:b0:db:aa:4b:8c:94:5a:af:e3:7f:3d:bf:ca:
         78:87:9b:53:a8:75:cf:5d:0e:28:8d:ff:8c:94:e8:c3:69:8a:
         34:b9:cd:b2:da:2b:7e:1d:81:67:02:ab:ae:7b:03:b2:c5:f8:
         f2:74:f7:d5:88:87:5a:1a:92:9f:80:92:bc:77:ec:93:40:e5:
         8c:c1:a6:94:b8:46:61:b4:6c:a6:a8:86:fe:98:2c:cf:51:8e:
         c2:99:17:12:d5:56:cb:b6:07:ce:24:38:3d:04:28:6e:1c:fd:
         0b:a7:a2:10:a5:94:0a:71
-----BEGIN CERTIFICATE-----
MIIG4zCCBMugAwIBAgIJANd0192eogM0MA0GCSqGSIb3DQEBDQUAMIGHMQswCQYD
VQQGEwJDSDEMMAoGA1UECBMDWnVnMQwwCgYDVQQHEwNadWcxGDAWBgNVBAoTD1Bl
cmZlY3QgUHJpdmFjeTEYMBYGA1UEAxMPUGVyZmVjdCBQcml2YWN5MSgwJgYJKoZI
hvcNAQkBFhlhZG1pbkBwZXJmZWN0LXByaXZhY3kuY29tMB4XDTI0MDYxMjAwMDAw
MFoXDTI2MDIwNzAwMDAwMFowgY4xCzAJBgNVBAYTAkNIMQwwCgYDVQQIEwNadWcx
GDAWBgNVBAoTD1BlcmZlY3QgUHJpdmFjeTEtMCsGA1UEAxQkQ2xpZW50X3N0b2Nr
aG9sbS5wZXJmZWN0LXByaXZhY3kuY29tMSgwJgYJKoZIhvcNAQkBFhlhZG1pbkBw
ZXJmZWN0LXByaXZhY3kuY29tMIICIjANBgkqhkiG9w0BAQEFAAOCAg8AMIICCgKC
AgEAuIaLgUMOxOZnBqtoD4Xp2jNjhWfrZ117RtL1MnMw/REYOTUxHTlxlvKh+0o3
k8EkxtpJ8BoFYt6XBTKdMK47mCxO736BrGdmkj0EMYrrwMpbSgql+TKtzTJv/8cl
7AjSxuem++JWtJVeIdLHKtOPmPHF2UZ6oN40rBplBU/bC+4hVu6w9RyAm306DhkK
9xFoLQYrUnQpFTz3PYuGJeeC+mVo/vtuwTc5xjlhap6RZZiyHzdFvVen6TXFXJ2F
6qjeXRcbGlqlg9bMSd5BgWjwVMet8GLQI5K121XRXeqfri+UXJJ/KOh2Jg0EqQfv
0RQvdT+GiPHmiOLlPZCvSZ1CQF9rwkB8Wf4OFGs7By7LEcz+xi61Pn7Kd9h3YAYD
bgPgnMifGB7PyhQ8z+0wHPgoufjFPOSEdgSNbW88NW/tRxaTe84pIKOxt9HtE+WC
NHQGVUvWurKiI/pcjUE7HsOY9ABGkc4a8B+b5VlDWScZcfB2hg9TxLlCO6ilVZ/i
RzQ3gCTe1/spdW3Fwe8+XnLDCQoQO79l5oGhhKs0Oyu/+NOgMhmDSmx+9IzsHFXm
WiKxRC+zMkfZCUn0K3MlkU9hO85lOVfZHQvXsyQpF7GKL7VSJrb4y3OVm7vNMJc4
Q2dToBmNtCUyQXzf5CxhD8k9U8iApkXO8hAUio/RSZM6yZ0CAwEAAaOCAUcwggFD
MAkGA1UdEwQCMAAwIwYJYIZIAYb4QgENBBYWFFZQTiBVc2VyIENlcnRpZmljYXRl
MBEGCWCGSAGG+EIBAQQEAwIHgDALBgNVHQ8EBAMCB4AwEwYDVR0lBAwwCgYIKwYB
BQUHAwIwHQYDVR0OBBYEFMBsC9qOPZVNsM75om82YrewlTovMIG8BgNVHSMEgbQw
gbGAFIZPuG0YKhs8jyc0KfCBn7puYQ7hoYGNpIGKMIGHMQswCQYDVQQGEwJDSDEM
MAoGA1UECBMDWnVnMQwwCgYDVQQHEwNadWcxGDAWBgNVBAoTD1BlcmZlY3QgUHJp
dmFjeTEYMBYGA1UEAxMPUGVyZmVjdCBQcml2YWN5MSgwJgYJKoZIhvcNAQkBFhlh
ZG1pbkBwZXJmZWN0LXByaXZhY3kuY29tggkA+hG1xKppr2kwDQYJKoZIhvcNAQEN
BQADggIBAEqiql7X8EpplLkrQdcw175G2ufMTi/K7nqAgyXLnPK+dT0WRM0/VVvK
oq0UJV1PFxkotXmJA+GfHDDoHzIsGlYDeEaYBAQK6A2HurNIaZYA9awovZYRMTAE
gDXYfmLjL4R9cJyfY7WohIrxSiR5wgcuiC9gLZhZWawYIJRYRtYOXUdISwyi9u0p
Jdtm9iW0GmZRMxaW8HMZpUooQgJdN+fkJo/9HEeoS3a4F2EXKCTm04UTvNn725MZ
XulIquHrCCX+y9CTfTY34MA45lVMJDa6AdzJiVs3YRlPZcXTD8ohj+VxEDXWJYyY
HblzGLWi3TIqu/IkzefWHPFGOHg2oVxNITK9cUAVcb9SK2hFDqqTUHIB8E016quU
41JyNcNw1+uy8s8DdoKAC8MR1LBxKn0aHWfZiBHfxpDYt+l6lljn4JSBZD4mDYqe
BJMeEzyIlmrcEVLpzikH1LVdCqDoPzGBHn34wsO5tdtUX7TVEXXq3hzeYkzXRruK
IXprHY01u5h6geznHs9flukADWqwMQNisNuqS4yUWq/jfz2/yniHm1Oodc9dDiiN
/4yU6MNpijS5zbLaK34dgWcCq657A7LF+PJ099WIh1oakp+Akrx37JNA5YzBppS4
RmG0bKaohv6YLM9RjsKZFxLVVsu2B84kOD0EKG4c/QunohCllApx
-----END CERTIFICATE-----
