Certificate:
    Data:
        Version: 3 (0x2)
        Serial Number: 7764622906693505382 (0x6bc17b651853d166)
    Signature Algorithm: sha512WithRSAEncryption
        Issuer: C=CH, ST=Zug, L=Zug, O=Perfect Privacy, CN=Perfect Privacy/emailAddress=admin@perfect-privacy.com
        Validity
            Not Before: Jul 26 00:00:00 2023 GMT
            Not After : Mar 22 00:00:00 2025 GMT
        Subject: C=CH, ST=Zug, O=Perfect Privacy, CN=Client_singapore.perfect-privacy.com/emailAddress=admin@perfect-privacy.com
        Subject Public Key Info:
            Public Key Algorithm: rsaEncryption
                Public-Key: (4096 bit)
                Modulus:
                    00:ce:a5:99:c1:69:e9:d4:d8:40:a1:15:13:84:e0:
                    39:92:61:c2:ba:d6:8c:4f:5a:97:28:7e:8a:97:3d:
                    80:00:b2:56:9f:59:d8:74:3b:f4:9b:24:8c:6b:22:
                    77:a1:bb:df:0a:8e:9e:85:30:01:9a:89:29:58:d2:
                    47:81:83:d1:80:ae:63:4b:3f:b3:2a:5e:84:16:60:
                    a5:0e:bb:11:c9:9d:2d:e6:73:f5:1a:69:9b:3a:d5:
                    87:13:77:35:5c:cf:bc:64:6b:de:8f:bf:c9:59:69:
                    0c:98:4f:cd:9d:61:ca:59:05:ab:c7:b4:28:e1:af:
                    e7:d0:09:ba:0b:b5:e2:b1:51:8e:48:c6:df:d6:35:
                    c5:13:07:c9:94:e4:e0:92:c4:ac:2d:41:6a:53:e3:
                    aa:04:2b:83:82:9b:cf:9e:19:44:35:24:10:35:8e:
                    9d:3d:0b:c7:12:91:7c:cc:93:62:c2:6b:64:6f:f4:
                    96:be:9c:86:01:fd:c7:d6:05:06:0d:63:45:40:c0:
                    e7:32:ed:7c:6d:c7:fd:fc:fc:2c:1d:58:ec:3b:b0:
                    62:41:23:71:42:95:a4:e7:53:aa:32:00:b5:34:ec:
                    7c:d4:bd:27:9e:f1:9d:39:5e:d4:55:a0:c4:58:4f:
                    99:7a:bd:65:dd:98:05:8a:56:cb:b0:3e:87:3f:c3:
                    66:ea:e1:8f:97:67:3b:c0:1a:93:42:29:bf:9b:67:
                    ef:5b:4c:77:45:fa:68:ea:a9:25:9f:01:60:8a:71:
                    15:30:93:a2:f1:01:72:cc:96:12:ec:ba:14:8d:91:
                    f0:61:c4:2c:26:e9:fb:9a:00:4d:21:39:d6:12:0d:
                    6e:76:38:b2:b0:bc:10:1e:a4:eb:a0:ab:1e:84:9f:
                    d6:4f:67:d4:7d:0f:40:53:a6:ce:4e:ec:c4:d1:9b:
                    0f:07:f7:9d:79:77:46:08:f7:07:86:b9:68:89:fd:
                    63:0a:09:bd:71:cb:c3:c1:3c:4d:00:11:7e:2a:d6:
                    24:64:6b:e6:9c:bc:92:41:ec:2a:07:f6:3b:35:17:
                    e5:06:1f:8c:3e:01:0a:8e:37:90:e1:40:24:fa:b0:
                    a7:ec:50:ec:7e:01:22:96:26:56:f6:7f:db:6f:30:
                    0e:b1:22:5d:43:a5:42:d7:6f:d0:e9:e8:ac:6c:84:
                    70:2f:f0:bd:8f:16:88:df:b4:e0:81:68:e2:ff:dd:
                    f4:7f:8a:1b:91:11:4d:07:3b:75:1a:79:37:6b:92:
                    db:04:2a:a8:4a:df:a9:58:87:05:72:2e:ff:14:61:
                    6f:c8:67:dc:bc:6d:07:cf:ab:b8:28:17:9a:34:ff:
                    6d:bd:1b:1a:61:78:90:df:f8:68:3f:3b:40:5e:41:
                    c4:0d:f7
                Exponent: 65537 (0x10001)
        X509v3 extensions:
            X509v3 Basic Constraints: 
                CA:FALSE
            Netscape Comment: 
                VPN User Certificate
            Netscape Cert Type: 
                SSL Client
            X509v3 Key Usage: 
                Digital Signature
            X509v3 Extended Key Usage: 
                TLS Web Client Authentication
            X509v3 Subject Key Identifier: 
                BF:C2:85:34:47:4E:78:E3:21:0D:41:AE:CC:12:3F:93:6B:2C:78:97
            X509v3 Authority Key Identifier: 
                keyid:86:4F:B8:6D:18:2A:1B:3C:8F:27:34:29:F0:81:9F:BA:6E:61:0E:E1
                DirName:/C=CH/ST=Zug/L=Zug/O=Perfect Privacy/CN=Perfect Privacy/emailAddress=admin@perfect-privacy.com
                serial:FA:11:B5:C4:AA:69:AF:69

    Signature Algorithm: sha512WithRSAEncryption
         8b:df:cf:47:6a:ee:7d:47:93:52:c9:f9:fd:01:7d:cf:9b:fe:
         e9:00:16:0f:3f:ec:7a:d0:68:af:6c:f0:20:7d:8c:6b:6f:b9:
         cd:a7:11:71:22:8e:1d:43:bf:70:15:c4:c8:57:04:db:5a:c9:
         73:3f:c9:b3:f1:22:27:62:62:d4:6e:9e:3c:6d:12:97:d8:60:
         8e:46:a9:3c:2a:45:ec:53:36:28:53:07:f9:63:9f:d4:c2:8b:
         2f:73:a1:1b:57:fd:d1:31:44:f3:c4:d2:be:e3:58:1f:64:df:
         e8:19:c9:6c:15:b2:1a:5b:d9:c4:fa:97:44:4f:f4:fa:0b:5e:
         0e:13:97:56:5d:da:3d:7f:3e:2f:62:da:d1:53:72:b0:38:6b:
         90:3e:66:3b:c7:9d:cf:c7:63:53:22:ff:c0:64:86:84:fd:01:
         e4:fd:66:5a:5c:91:b1:dd:88:c4:62:68:f1:c7:99:3b:68:55:
         6c:9d:ef:4b:8f:00:aa:c3:dc:1b:50:ef:d1:47:ef:4e:40:a9:
         54:db:72:d6:49:9d:d8:a2:df:d7:04:c3:86:78:15:3a:cf:17:
         54:90:2f:dd:fd:5b:0c:6a:73:84:86:3f:5a:03:42:8c:bc:d0:
         3b:a1:6e:2d:37:78:24:0d:6e:41:23:f4:fe:30:79:bc:e3:d7:
         32:77:7a:8d:c8:03:64:32:88:39:b9:b4:4d:e5:64:a2:91:9f:
         58:86:68:93:b2:21:a0:97:35:62:c2:6d:37:74:17:97:35:1b:
         b7:58:76:71:0f:a3:a2:cd:40:8f:fe:4a:da:38:f2:90:44:12:
         c4:d7:f1:19:dc:be:34:fa:26:c9:6c:77:85:da:6e:7a:f7:1d:
         a2:50:48:94:6a:27:ca:33:69:bf:da:ac:39:4e:0b:d3:60:22:
         36:8e:50:cb:7e:b3:d1:53:8d:12:99:d0:69:70:fc:be:eb:e8:
         0d:68:77:95:1c:32:13:17:cf:23:c8:2f:a8:cb:09:ee:7e:9c:
         69:d0:90:d2:5f:e1:a9:a0:a5:3b:5f:72:20:fc:bb:2c:f4:42:
         14:b6:b5:44:41:a3:3a:7f:d9:9a:6c:07:e6:13:03:fa:00:dc:
         1f:6f:cc:29:18:9f:34:63:fb:07:76:d8:85:7c:f9:42:fa:a1:
         a3:79:00:8c:22:24:92:b1:c8:65:9d:6f:1c:d1:e9:fe:f6:6d:
         44:0e:f7:ee:65:8b:56:99:f1:d1:3d:e2:0e:85:16:cc:4e:05:
         bc:09:1d:8c:d5:67:cf:07:e0:1a:5a:c1:62:8a:73:fb:8c:cc:
         06:5e:3d:38:59:87:ed:8c:53:41:98:c4:89:6f:1a:18:f2:0c:
         96:ca:e5:e4:34:e0:48:67
-----BEGIN CERTIFICATE-----
MIIG4jCCBMqgAwIBAgIIa8F7ZRhT0WYwDQYJKoZIhvcNAQENBQAwgYcxCzAJBgNV
BAYTAkNIMQwwCgYDVQQIEwNadWcxDDAKBgNVBAcTA1p1ZzEYMBYGA1UEChMPUGVy
ZmVjdCBQcml2YWN5MRgwFgYDVQQDEw9QZXJmZWN0IFByaXZhY3kxKDAmBgkqhkiG
9w0BCQEWGWFkbWluQHBlcmZlY3QtcHJpdmFjeS5jb20wHhcNMjMwNzI2MDAwMDAw
WhcNMjUwMzIyMDAwMDAwWjCBjjELMAkGA1UEBhMCQ0gxDDAKBgNVBAgTA1p1ZzEY
MBYGA1UEChMPUGVyZmVjdCBQcml2YWN5MS0wKwYDVQQDFCRDbGllbnRfc2luZ2Fw
b3JlLnBlcmZlY3QtcHJpdmFjeS5jb20xKDAmBgkqhkiG9w0BCQEWGWFkbWluQHBl
cmZlY3QtcHJpdmFjeS5jb20wggIiMA0GCSqGSIb3DQEBAQUAA4ICDwAwggIKAoIC
AQDOpZnBaenU2EChFROE4DmSYcK61oxPWpcofoqXPYAAslafWdh0O/SbJIxrIneh
u98Kjp6FMAGaiSlY0keBg9GArmNLP7MqXoQWYKUOuxHJnS3mc/UaaZs61YcTdzVc
z7xka96Pv8lZaQyYT82dYcpZBavHtCjhr+fQCboLteKxUY5Ixt/WNcUTB8mU5OCS
xKwtQWpT46oEK4OCm8+eGUQ1JBA1jp09C8cSkXzMk2LCa2Rv9Ja+nIYB/cfWBQYN
Y0VAwOcy7Xxtx/38/CwdWOw7sGJBI3FClaTnU6oyALU07HzUvSee8Z05XtRVoMRY
T5l6vWXdmAWKVsuwPoc/w2bq4Y+XZzvAGpNCKb+bZ+9bTHdF+mjqqSWfAWCKcRUw
k6LxAXLMlhLsuhSNkfBhxCwm6fuaAE0hOdYSDW52OLKwvBAepOugqx6En9ZPZ9R9
D0BTps5O7MTRmw8H9515d0YI9weGuWiJ/WMKCb1xy8PBPE0AEX4q1iRka+acvJJB
7CoH9js1F+UGH4w+AQqON5DhQCT6sKfsUOx+ASKWJlb2f9tvMA6xIl1DpULXb9Dp
6KxshHAv8L2PFojftOCBaOL/3fR/ihuREU0HO3UaeTdrktsEKqhK36lYhwVyLv8U
YW/IZ9y8bQfPq7goF5o0/229GxpheJDf+Gg/O0BeQcQN9wIDAQABo4IBRzCCAUMw
CQYDVR0TBAIwADAjBglghkgBhvhCAQ0EFhYUVlBOIFVzZXIgQ2VydGlmaWNhdGUw
EQYJYIZIAYb4QgEBBAQDAgeAMAsGA1UdDwQEAwIHgDATBgNVHSUEDDAKBggrBgEF
BQcDAjAdBgNVHQ4EFgQUv8KFNEdOeOMhDUGuzBI/k2sseJcwgbwGA1UdIwSBtDCB
sYAUhk+4bRgqGzyPJzQp8IGfum5hDuGhgY2kgYowgYcxCzAJBgNVBAYTAkNIMQww
CgYDVQQIEwNadWcxDDAKBgNVBAcTA1p1ZzEYMBYGA1UEChMPUGVyZmVjdCBQcml2
YWN5MRgwFgYDVQQDEw9QZXJmZWN0IFByaXZhY3kxKDAmBgkqhkiG9w0BCQEWGWFk
bWluQHBlcmZlY3QtcHJpdmFjeS5jb22CCQD6EbXEqmmvaTANBgkqhkiG9w0BAQ0F
AAOCAgEAi9/PR2rufUeTUsn5/QF9z5v+6QAWDz/setBor2zwIH2Ma2+5zacRcSKO
HUO/cBXEyFcE21rJcz/Js/EiJ2Ji1G6ePG0Sl9hgjkapPCpF7FM2KFMH+WOf1MKL
L3OhG1f90TFE88TSvuNYH2Tf6BnJbBWyGlvZxPqXRE/0+gteDhOXVl3aPX8+L2La
0VNysDhrkD5mO8edz8djUyL/wGSGhP0B5P1mWlyRsd2IxGJo8ceZO2hVbJ3vS48A
qsPcG1Dv0UfvTkCpVNty1kmd2KLf1wTDhngVOs8XVJAv3f1bDGpzhIY/WgNCjLzQ
O6FuLTd4JA1uQSP0/jB5vOPXMnd6jcgDZDKIObm0TeVkopGfWIZok7IhoJc1YsJt
N3QXlzUbt1h2cQ+jos1Aj/5K2jjykEQSxNfxGdy+NPomyWx3hdpuevcdolBIlGon
yjNpv9qsOU4L02AiNo5Qy36z0VONEpnQaXD8vuvoDWh3lRwyExfPI8gvqMsJ7n6c
adCQ0l/hqaClO19yIPy7LPRCFLa1REGjOn/ZmmwH5hMD+gDcH2/MKRifNGP7B3bY
hXz5Qvqho3kAjCIkkrHIZZ1vHNHp/vZtRA737mWLVpnx0T3iDoUWzE4FvAkdjNVn
zwfgGlrBYopz+4zMBl49OFmH7YxTQZjEiW8aGPIMlsrl5DTgSGc=
-----END CERTIFICATE-----
