Certificate:
    Data:
        Version: 3 (0x2)
        Serial Number: 3861518520417563875 (0x3596dea29714b4e3)
    Signature Algorithm: sha512WithRSAEncryption
        Issuer: C=CH, ST=Zug, L=Zug, O=Perfect Privacy, CN=Perfect Privacy/emailAddress=admin@perfect-privacy.com
        Validity
            Not Before: Jul 30 00:00:00 2023 GMT
            Not After : Mar 26 00:00:00 2025 GMT
        Subject: C=CH, ST=Zug, O=Perfect Privacy, CN=Client_stockholm.perfect-privacy.com/emailAddress=admin@perfect-privacy.com
        Subject Public Key Info:
            Public Key Algorithm: rsaEncryption
                Public-Key: (4096 bit)
                Modulus:
                    00:d7:33:d0:b7:ed:8a:6b:cc:64:54:fd:e8:82:3a:
                    90:41:bb:35:2b:80:5d:06:67:7b:02:96:bf:01:a3:
                    50:5d:c8:62:d6:03:4b:89:92:6e:d7:a6:2b:5a:77:
                    ce:fc:e3:cf:b0:3b:77:da:0b:21:ac:ce:61:93:d0:
                    30:19:c5:e4:1b:89:fd:17:3b:5b:7f:48:21:ff:1f:
                    0c:3d:21:3b:e9:7e:5c:95:c0:f7:e4:4e:d6:95:74:
                    16:6d:9e:8f:96:7c:4d:d0:a7:46:ef:97:e0:d6:f3:
                    8b:15:7d:26:8c:ef:e9:5d:02:1b:de:0b:ec:63:01:
                    fb:97:e0:f8:b6:a5:34:f1:54:24:54:71:bc:04:20:
                    df:b3:7d:95:11:b5:e4:53:3c:f8:04:3c:7b:3a:9b:
                    03:b6:de:e2:21:aa:a7:2a:75:ff:53:db:77:78:0b:
                    b7:b0:c6:4f:c7:b2:05:ef:ff:e2:7a:59:0f:b2:e9:
                    90:ac:97:57:63:8b:20:75:d0:76:0a:79:68:43:e8:
                    0c:61:c2:9b:93:7c:8c:94:fb:66:d7:55:be:a8:bd:
                    1f:1a:d9:5c:03:10:4e:27:7a:a6:6a:3a:31:43:ea:
                    91:ec:61:54:1d:cf:99:03:ce:fc:22:f1:2f:04:0a:
                    3a:fb:31:21:01:7d:99:38:7e:48:2f:82:62:df:67:
                    00:74:4a:cb:43:11:06:21:2a:5a:e4:40:39:b6:d3:
                    77:52:c5:86:a4:e6:00:63:a3:26:79:94:4e:13:ab:
                    2e:f2:3b:9d:26:22:7c:b8:4e:f5:33:3e:b7:bd:6a:
                    08:48:b6:a2:09:e8:84:33:24:18:6f:bb:ef:2f:8b:
                    ac:8c:87:1a:34:0a:fb:76:7d:b4:75:e6:d7:56:2b:
                    7e:1d:87:cc:c6:b7:f3:5b:1e:1b:1c:67:6c:83:fc:
                    f8:a2:fb:21:77:73:de:03:dc:77:c8:a7:50:95:5e:
                    82:d7:d9:75:f1:44:71:96:da:20:f0:18:d4:7e:45:
                    6a:30:06:f2:0a:0f:47:a0:91:62:7f:0d:ae:40:fa:
                    f9:0e:42:ef:4b:27:a0:86:50:8f:3e:78:01:65:73:
                    66:d1:cc:24:af:17:b8:82:cc:89:19:56:b4:61:c6:
                    ee:e3:b5:25:e2:19:85:28:22:78:7f:9c:06:e3:19:
                    44:c1:8b:b4:31:5e:28:15:3b:20:76:e6:a1:ff:91:
                    e3:93:46:6f:04:02:eb:c9:d4:05:d6:8b:60:12:f1:
                    0f:11:68:4e:7e:ce:9e:ac:e2:36:58:aa:49:5f:c0:
                    b5:00:0f:01:40:8b:8b:f2:c3:b9:f4:27:d8:aa:fc:
                    5c:a1:6a:3c:57:d1:98:ef:00:cd:95:60:22:c5:5f:
                    c5:37:79
                Exponent: 65537 (0x10001)
        X509v3 extensions:
            X509v3 Basic Constraints: 
                CA:FALSE
            Netscape Comment: 
                VPN User Certificate
            Netscape Cert Type: 
                SSL Client
            X509v3 Key Usage: 
                Digital Signature
            X509v3 Extended Key Usage: 
                TLS Web Client Authentication
            X509v3 Subject Key Identifier: 
                4B:62:2B:AF:67:36:12:8F:4F:36:34:E1:0F:7C:4D:73:43:55:F0:AF
            X509v3 Authority Key Identifier: 
                keyid:86:4F:B8:6D:18:2A:1B:3C:8F:27:34:29:F0:81:9F:BA:6E:61:0E:E1
                DirName:/C=CH/ST=Zug/L=Zug/O=Perfect Privacy/CN=Perfect Privacy/emailAddress=admin@perfect-privacy.com
                serial:FA:11:B5:C4:AA:69:AF:69

    Signature Algorithm: sha512WithRSAEncryption
         6e:71:28:b6:48:0c:48:9c:8f:b8:b0:ad:92:e1:30:78:d5:a6:
         ee:50:bf:11:f8:b0:0c:f0:4e:ed:0b:c7:00:57:b7:bd:a7:d6:
         82:2a:6b:a6:92:cd:88:b6:b3:08:3d:ec:80:b6:e3:ff:c4:d2:
         9c:b1:c8:b7:db:52:57:9c:ad:08:2a:e4:18:25:c1:0e:71:57:
         90:98:8a:75:f4:15:3f:b0:6e:21:a7:0f:52:de:13:75:21:d7:
         eb:0d:fd:c7:9d:0e:84:f1:f2:57:1b:e3:22:75:68:8d:76:ba:
         64:46:d6:77:74:15:0d:85:93:ab:3e:9a:08:fe:f9:8c:af:d9:
         4e:d5:41:c4:49:18:04:14:6e:6f:de:26:ee:02:36:9e:a0:db:
         d4:d0:3d:ee:91:d6:3b:af:ea:55:fc:9b:f3:3f:9f:ba:4e:c0:
         b1:52:62:fb:f6:bd:04:09:7a:eb:6d:c1:e8:8e:1c:ed:1a:44:
         7f:03:6b:a0:1c:1a:69:76:45:d4:e0:31:1a:bb:4c:5f:6f:f1:
         6b:2b:d3:76:c3:6c:2f:97:5a:6f:8e:76:b1:97:ac:18:4f:66:
         72:31:29:2d:de:12:8f:aa:ad:ad:cf:05:1f:31:b3:56:13:f5:
         67:e2:3e:91:64:38:26:c0:aa:e7:38:ca:ab:fe:79:58:35:01:
         89:ff:00:97:34:c6:2d:25:03:d3:95:cd:93:61:a2:fa:b9:0f:
         90:42:21:a8:9e:97:66:d9:f0:e0:e5:15:42:e7:66:21:f7:a8:
         6a:32:c0:95:31:47:5d:e2:7c:7f:0d:20:b2:a9:ce:47:5b:5b:
         c3:09:a1:85:f2:bf:09:4c:fd:b0:66:1c:26:16:80:d9:7c:05:
         fd:f7:a7:07:ce:5e:4f:b8:f2:b7:d1:44:9e:97:ee:30:ff:db:
         57:4b:71:6b:d9:de:3d:d0:f5:83:04:94:27:48:ff:d7:50:6c:
         2e:e8:e5:a6:74:87:5d:d0:d9:b6:ed:39:93:6e:de:9f:cf:69:
         8a:81:71:c7:bf:7a:b2:35:01:49:19:b9:49:82:79:cd:ff:a5:
         81:3b:02:db:f2:6a:66:d7:48:63:42:89:98:12:ec:f1:a1:81:
         9f:25:49:6a:05:b1:4c:01:d4:b4:cd:3a:ad:44:e6:7e:42:fb:
         41:f9:75:ce:8b:87:e0:0c:16:27:56:e6:ec:84:a8:79:6d:9e:
         32:dd:4c:bc:39:50:5e:26:b9:0c:83:4c:0c:04:cf:0d:fc:a6:
         0a:a0:70:6c:5d:85:72:fc:9f:a7:e4:aa:31:bc:75:11:bb:08:
         fa:e9:2a:f2:87:47:b6:2e:14:32:7b:c1:a0:f6:da:7f:93:7f:
         0e:f3:4a:44:fb:57:20:ef
-----BEGIN CERTIFICATE-----
MIIG4jCCBMqgAwIBAgIINZbeopcUtOMwDQYJKoZIhvcNAQENBQAwgYcxCzAJBgNV
BAYTAkNIMQwwCgYDVQQIEwNadWcxDDAKBgNVBAcTA1p1ZzEYMBYGA1UEChMPUGVy
ZmVjdCBQcml2YWN5MRgwFgYDVQQDEw9QZXJmZWN0IFByaXZhY3kxKDAmBgkqhkiG
9w0BCQEWGWFkbWluQHBlcmZlY3QtcHJpdmFjeS5jb20wHhcNMjMwNzMwMDAwMDAw
WhcNMjUwMzI2MDAwMDAwWjCBjjELMAkGA1UEBhMCQ0gxDDAKBgNVBAgTA1p1ZzEY
MBYGA1UEChMPUGVyZmVjdCBQcml2YWN5MS0wKwYDVQQDFCRDbGllbnRfc3RvY2to
b2xtLnBlcmZlY3QtcHJpdmFjeS5jb20xKDAmBgkqhkiG9w0BCQEWGWFkbWluQHBl
cmZlY3QtcHJpdmFjeS5jb20wggIiMA0GCSqGSIb3DQEBAQUAA4ICDwAwggIKAoIC
AQDXM9C37YprzGRU/eiCOpBBuzUrgF0GZ3sClr8Bo1BdyGLWA0uJkm7Xpitad878
48+wO3faCyGszmGT0DAZxeQbif0XO1t/SCH/Hww9ITvpflyVwPfkTtaVdBZtno+W
fE3Qp0bvl+DW84sVfSaM7+ldAhveC+xjAfuX4Pi2pTTxVCRUcbwEIN+zfZURteRT
PPgEPHs6mwO23uIhqqcqdf9T23d4C7ewxk/HsgXv/+J6WQ+y6ZCsl1djiyB10HYK
eWhD6AxhwpuTfIyU+2bXVb6ovR8a2VwDEE4neqZqOjFD6pHsYVQdz5kDzvwi8S8E
Cjr7MSEBfZk4fkgvgmLfZwB0SstDEQYhKlrkQDm203dSxYak5gBjoyZ5lE4Tqy7y
O50mIny4TvUzPre9aghItqIJ6IQzJBhvu+8vi6yMhxo0Cvt2fbR15tdWK34dh8zG
t/NbHhscZ2yD/Pii+yF3c94D3HfIp1CVXoLX2XXxRHGW2iDwGNR+RWowBvIKD0eg
kWJ/Da5A+vkOQu9LJ6CGUI8+eAFlc2bRzCSvF7iCzIkZVrRhxu7jtSXiGYUoInh/
nAbjGUTBi7QxXigVOyB25qH/keOTRm8EAuvJ1AXWi2AS8Q8RaE5+zp6s4jZYqklf
wLUADwFAi4vyw7n0J9iq/FyhajxX0ZjvAM2VYCLFX8U3eQIDAQABo4IBRzCCAUMw
CQYDVR0TBAIwADAjBglghkgBhvhCAQ0EFhYUVlBOIFVzZXIgQ2VydGlmaWNhdGUw
EQYJYIZIAYb4QgEBBAQDAgeAMAsGA1UdDwQEAwIHgDATBgNVHSUEDDAKBggrBgEF
BQcDAjAdBgNVHQ4EFgQUS2Irr2c2Eo9PNjThD3xNc0NV8K8wgbwGA1UdIwSBtDCB
sYAUhk+4bRgqGzyPJzQp8IGfum5hDuGhgY2kgYowgYcxCzAJBgNVBAYTAkNIMQww
CgYDVQQIEwNadWcxDDAKBgNVBAcTA1p1ZzEYMBYGA1UEChMPUGVyZmVjdCBQcml2
YWN5MRgwFgYDVQQDEw9QZXJmZWN0IFByaXZhY3kxKDAmBgkqhkiG9w0BCQEWGWFk
bWluQHBlcmZlY3QtcHJpdmFjeS5jb22CCQD6EbXEqmmvaTANBgkqhkiG9w0BAQ0F
AAOCAgEAbnEotkgMSJyPuLCtkuEweNWm7lC/EfiwDPBO7QvHAFe3vafWgiprppLN
iLazCD3sgLbj/8TSnLHIt9tSV5ytCCrkGCXBDnFXkJiKdfQVP7BuIacPUt4TdSHX
6w39x50OhPHyVxvjInVojXa6ZEbWd3QVDYWTqz6aCP75jK/ZTtVBxEkYBBRub94m
7gI2nqDb1NA97pHWO6/qVfyb8z+fuk7AsVJi+/a9BAl6623B6I4c7RpEfwNroBwa
aXZF1OAxGrtMX2/xayvTdsNsL5dab452sZesGE9mcjEpLd4Sj6qtrc8FHzGzVhP1
Z+I+kWQ4JsCq5zjKq/55WDUBif8AlzTGLSUD05XNk2Gi+rkPkEIhqJ6XZtnw4OUV
QudmIfeoajLAlTFHXeJ8fw0gsqnOR1tbwwmhhfK/CUz9sGYcJhaA2XwF/fenB85e
T7jyt9FEnpfuMP/bV0txa9nePdD1gwSUJ0j/11BsLujlpnSHXdDZtu05k27en89p
ioFxx796sjUBSRm5SYJ5zf+lgTsC2/JqZtdIY0KJmBLs8aGBnyVJagWxTAHUtM06
rUTmfkL7Qfl1zouH4AwWJ1bm7ISoeW2eMt1MvDlQXia5DINMDATPDfymCqBwbF2F
cvyfp+SqMbx1EbsI+ukq8odHti4UMnvBoPbaf5N/DvNKRPtXIO8=
-----END CERTIFICATE-----
