Certificate:
    Data:
        Version: 3 (0x2)
        Serial Number:
            ac:1a:ad:38:5d:ef:49:67
    Signature Algorithm: sha512WithRSAEncryption
        Issuer: C=CH, ST=Zug, L=Zug, O=Perfect Privacy, CN=Perfect Privacy/emailAddress=admin@perfect-privacy.com
        Validity
            Not Before: Jan 29 00:00:00 2023 GMT
            Not After : Sep 25 00:00:00 2024 GMT
        Subject: C=CH, ST=Zug, O=Perfect Privacy, CN=Client_stockholm.perfect-privacy.com/emailAddress=admin@perfect-privacy.com
        Subject Public Key Info:
            Public Key Algorithm: rsaEncryption
                Public-Key: (4096 bit)
                Modulus:
                    00:c3:e4:b7:63:f4:b7:95:76:15:d6:fc:f2:87:bc:
                    e0:a1:6f:3a:b3:3d:9c:f9:4c:bf:0c:70:23:ab:5d:
                    80:27:cd:e6:d5:59:3f:ce:f9:5b:93:ce:0e:68:d4:
                    f6:d3:11:0c:a5:31:96:31:74:aa:a4:18:17:75:a5:
                    89:e7:d1:40:59:df:5a:0c:1d:f3:ef:d7:a8:1b:c2:
                    94:f9:86:f0:a4:37:bd:2c:92:f0:13:f9:b3:42:34:
                    69:70:94:1e:75:76:6a:fe:4a:83:2b:30:fb:8a:ba:
                    cb:33:14:3d:75:f3:44:31:ba:26:77:0d:b7:1f:a9:
                    a9:bb:4d:64:4e:9c:fe:4e:1f:12:0f:82:b6:b6:e7:
                    b4:91:c3:ca:d9:38:4f:95:17:07:d3:9f:d9:f4:f4:
                    c8:b3:ef:67:9b:39:f8:45:95:64:e7:70:b8:4b:8c:
                    01:23:ba:36:9f:51:71:7b:63:f3:74:f2:65:89:e1:
                    f0:2a:44:5f:4e:f7:53:32:94:87:41:cd:f9:45:89:
                    2f:20:d0:88:1b:02:5d:97:27:77:e8:68:79:24:6d:
                    46:fb:b6:80:18:2b:ca:91:4a:c9:09:b2:f6:50:51:
                    ae:f9:f5:6f:58:be:52:48:24:b8:4c:30:95:cf:b1:
                    e3:23:c5:2f:e4:33:1e:8c:b9:f7:6c:32:8e:5b:d6:
                    b8:cc:43:d4:60:95:f1:b2:6e:8c:f2:44:d0:87:52:
                    09:ab:22:70:f3:82:34:60:64:0e:8d:bf:c3:bf:fc:
                    a1:4d:ae:69:ac:40:0f:92:fa:ed:c6:90:7f:17:62:
                    08:2b:4f:87:85:94:28:d9:2f:b0:b5:4f:44:70:d1:
                    23:7f:24:67:da:f2:71:fd:05:72:d7:99:7e:4e:53:
                    f4:ad:76:c7:b2:e9:b8:38:51:1f:4d:98:19:df:d4:
                    d8:62:99:13:a1:1e:a2:64:75:1e:69:5c:b1:75:0a:
                    1e:53:0c:28:1d:56:60:49:75:94:a1:3a:16:82:45:
                    e3:1f:6d:a0:43:7c:da:34:da:e8:73:80:f8:2c:32:
                    85:a3:0e:14:a1:aa:47:c4:59:2a:51:0d:94:af:d3:
                    a8:84:d6:7f:5e:28:52:82:e8:22:16:85:f2:ca:4d:
                    c0:03:e9:21:c1:8c:46:0e:a2:ce:6e:a6:8c:dd:a6:
                    03:a9:e7:b2:2b:bc:28:44:51:e7:ac:ab:ae:20:21:
                    52:97:f5:8b:19:a1:f3:cd:49:08:bb:c7:69:f4:c5:
                    71:42:97:b2:68:03:fd:f2:0e:cf:2c:da:e8:fe:ab:
                    6d:d6:2b:52:1a:13:53:98:84:d9:53:85:fa:14:aa:
                    b1:29:4e:35:db:e1:ea:8d:d6:28:8d:bd:40:a1:77:
                    04:54:c5
                Exponent: 65537 (0x10001)
        X509v3 extensions:
            X509v3 Basic Constraints: 
                CA:FALSE
            Netscape Comment: 
                VPN User Certificate
            Netscape Cert Type: 
                SSL Client
            X509v3 Key Usage: 
                Digital Signature
            X509v3 Extended Key Usage: 
                TLS Web Client Authentication
            X509v3 Subject Key Identifier: 
                C2:ED:E2:DE:10:28:E9:7D:65:1D:EB:8B:A6:5F:40:91:56:20:1B:31
            X509v3 Authority Key Identifier: 
                keyid:86:4F:B8:6D:18:2A:1B:3C:8F:27:34:29:F0:81:9F:BA:6E:61:0E:E1
                DirName:/C=CH/ST=Zug/L=Zug/O=Perfect Privacy/CN=Perfect Privacy/emailAddress=admin@perfect-privacy.com
                serial:FA:11:B5:C4:AA:69:AF:69

    Signature Algorithm: sha512WithRSAEncryption
         08:7e:d4:c7:81:1f:e8:cd:63:01:e2:d2:da:ee:01:95:cf:4d:
         05:c9:34:70:7d:3e:f7:ee:1e:00:96:4b:25:77:af:a3:50:1e:
         bf:2d:2c:02:3a:8c:21:e6:0f:7d:c0:00:42:92:67:10:25:9f:
         77:fe:69:48:58:8b:6a:f3:b2:63:31:2d:bf:bb:1a:8c:a8:b2:
         bd:9a:d7:fe:9a:e3:54:ac:84:18:a6:70:b6:60:92:a3:dd:83:
         d3:4e:d4:25:16:38:ae:f6:68:8a:6b:f0:a6:e8:61:e1:c2:64:
         f5:6b:fb:93:eb:53:25:a1:4e:a2:d4:9c:41:2e:78:dc:32:13:
         28:6b:ee:e8:09:25:fe:a5:f3:fb:a7:e5:70:f7:fd:90:e9:8d:
         0e:c5:f0:73:0e:03:6d:65:d6:07:49:87:10:54:b3:84:58:47:
         71:9f:68:f1:2d:10:7b:46:92:06:e2:d3:0a:69:19:4e:49:a9:
         61:d5:5d:33:27:79:05:e5:f2:47:ff:40:c2:ea:af:da:1d:02:
         82:be:26:b4:e2:cc:c0:fd:10:7e:96:53:40:14:23:64:b2:8e:
         e2:41:e8:6c:e8:7a:4e:d2:b1:23:39:53:0b:19:b5:9e:0f:66:
         d1:9e:73:44:c3:d2:01:1f:22:b2:09:88:38:46:2d:8d:25:8e:
         95:03:ef:02:b5:b7:4c:e2:38:c6:2f:8e:49:27:2c:5e:dd:29:
         77:7d:2f:6e:43:e8:8e:03:8f:65:f0:47:03:97:a0:7b:01:fc:
         43:38:af:3d:1d:73:3c:a6:79:09:d7:3f:80:25:6c:1b:28:d4:
         cf:99:c6:df:83:6b:e3:a5:34:80:d7:b4:3d:40:5d:49:8d:58:
         f9:be:2d:92:e9:c1:16:f7:ea:69:ee:1d:e3:ae:2c:e5:eb:34:
         85:3c:c6:bb:9e:b8:e9:78:87:c1:68:9b:e3:79:85:10:8b:6c:
         12:c8:0d:f9:37:8c:56:44:02:48:4c:b0:28:a4:cc:1f:56:a1:
         4b:32:ad:c3:e5:86:ce:26:36:6a:ea:8f:c1:0c:e6:7f:51:94:
         da:54:aa:da:49:10:c5:62:69:36:ce:09:34:85:c1:62:11:2c:
         49:69:12:cc:4c:7e:b7:a4:68:72:2f:a4:de:58:fe:8d:1b:23:
         b1:b2:e4:9f:0d:da:22:0c:b0:35:a6:85:4c:eb:d0:c5:95:f2:
         9f:91:c2:d2:16:72:fc:30:37:60:f2:7d:11:50:d8:dd:fe:30:
         d4:68:5c:30:09:33:44:44:1f:ca:e5:a6:d2:f1:72:f6:ff:ab:
         09:d8:29:3f:8c:71:f8:d4:a7:08:73:1f:02:b5:ec:b0:94:aa:
         58:9f:81:ca:ff:d8:47:db
-----BEGIN CERTIFICATE-----
MIIG4zCCBMugAwIBAgIJAKwarThd70lnMA0GCSqGSIb3DQEBDQUAMIGHMQswCQYD
VQQGEwJDSDEMMAoGA1UECBMDWnVnMQwwCgYDVQQHEwNadWcxGDAWBgNVBAoTD1Bl
cmZlY3QgUHJpdmFjeTEYMBYGA1UEAxMPUGVyZmVjdCBQcml2YWN5MSgwJgYJKoZI
hvcNAQkBFhlhZG1pbkBwZXJmZWN0LXByaXZhY3kuY29tMB4XDTIzMDEyOTAwMDAw
MFoXDTI0MDkyNTAwMDAwMFowgY4xCzAJBgNVBAYTAkNIMQwwCgYDVQQIEwNadWcx
GDAWBgNVBAoTD1BlcmZlY3QgUHJpdmFjeTEtMCsGA1UEAxQkQ2xpZW50X3N0b2Nr
aG9sbS5wZXJmZWN0LXByaXZhY3kuY29tMSgwJgYJKoZIhvcNAQkBFhlhZG1pbkBw
ZXJmZWN0LXByaXZhY3kuY29tMIICIjANBgkqhkiG9w0BAQEFAAOCAg8AMIICCgKC
AgEAw+S3Y/S3lXYV1vzyh7zgoW86sz2c+Uy/DHAjq12AJ83m1Vk/zvlbk84OaNT2
0xEMpTGWMXSqpBgXdaWJ59FAWd9aDB3z79eoG8KU+YbwpDe9LJLwE/mzQjRpcJQe
dXZq/kqDKzD7irrLMxQ9dfNEMbomdw23H6mpu01kTpz+Th8SD4K2tue0kcPK2ThP
lRcH05/Z9PTIs+9nmzn4RZVk53C4S4wBI7o2n1Fxe2PzdPJlieHwKkRfTvdTMpSH
Qc35RYkvINCIGwJdlyd36Gh5JG1G+7aAGCvKkUrJCbL2UFGu+fVvWL5SSCS4TDCV
z7HjI8Uv5DMejLn3bDKOW9a4zEPUYJXxsm6M8kTQh1IJqyJw84I0YGQOjb/Dv/yh
Ta5prEAPkvrtxpB/F2IIK0+HhZQo2S+wtU9EcNEjfyRn2vJx/QVy15l+TlP0rXbH
sum4OFEfTZgZ39TYYpkToR6iZHUeaVyxdQoeUwwoHVZgSXWUoToWgkXjH22gQ3za
NNroc4D4LDKFow4UoapHxFkqUQ2Ur9OohNZ/XihSgugiFoXyyk3AA+khwYxGDqLO
bqaM3aYDqeeyK7woRFHnrKuuICFSl/WLGaHzzUkIu8dp9MVxQpeyaAP98g7PLNro
/qtt1itSGhNTmITZU4X6FKqxKU412+HqjdYojb1AoXcEVMUCAwEAAaOCAUcwggFD
MAkGA1UdEwQCMAAwIwYJYIZIAYb4QgENBBYWFFZQTiBVc2VyIENlcnRpZmljYXRl
MBEGCWCGSAGG+EIBAQQEAwIHgDALBgNVHQ8EBAMCB4AwEwYDVR0lBAwwCgYIKwYB
BQUHAwIwHQYDVR0OBBYEFMLt4t4QKOl9ZR3ri6ZfQJFWIBsxMIG8BgNVHSMEgbQw
gbGAFIZPuG0YKhs8jyc0KfCBn7puYQ7hoYGNpIGKMIGHMQswCQYDVQQGEwJDSDEM
MAoGA1UECBMDWnVnMQwwCgYDVQQHEwNadWcxGDAWBgNVBAoTD1BlcmZlY3QgUHJp
dmFjeTEYMBYGA1UEAxMPUGVyZmVjdCBQcml2YWN5MSgwJgYJKoZIhvcNAQkBFhlh
ZG1pbkBwZXJmZWN0LXByaXZhY3kuY29tggkA+hG1xKppr2kwDQYJKoZIhvcNAQEN
BQADggIBAAh+1MeBH+jNYwHi0truAZXPTQXJNHB9PvfuHgCWSyV3r6NQHr8tLAI6
jCHmD33AAEKSZxAln3f+aUhYi2rzsmMxLb+7Goyosr2a1/6a41SshBimcLZgkqPd
g9NO1CUWOK72aIpr8KboYeHCZPVr+5PrUyWhTqLUnEEueNwyEyhr7ugJJf6l8/un
5XD3/ZDpjQ7F8HMOA21l1gdJhxBUs4RYR3GfaPEtEHtGkgbi0wppGU5JqWHVXTMn
eQXl8kf/QMLqr9odAoK+JrTizMD9EH6WU0AUI2SyjuJB6Gzoek7SsSM5UwsZtZ4P
ZtGec0TD0gEfIrIJiDhGLY0ljpUD7wK1t0ziOMYvjkknLF7dKXd9L25D6I4Dj2Xw
RwOXoHsB/EM4rz0dczymeQnXP4AlbBso1M+Zxt+Da+OlNIDXtD1AXUmNWPm+LZLp
wRb36mnuHeOuLOXrNIU8xrueuOl4h8Fom+N5hRCLbBLIDfk3jFZEAkhMsCikzB9W
oUsyrcPlhs4mNmrqj8EM5n9RlNpUqtpJEMViaTbOCTSFwWIRLElpEsxMfrekaHIv
pN5Y/o0bI7Gy5J8N2iIMsDWmhUzr0MWV8p+RwtIWcvwwN2DyfRFQ2N3+MNRoXDAJ
M0REH8rlptLxcvb/qwnYKT+McfjUpwhzHwK17LCUqlifgcr/2Efb
-----END CERTIFICATE-----
