Certificate:
    Data:
        Version: 3 (0x2)
        Serial Number:
            d6:25:20:b6:4a:30:59:28
    Signature Algorithm: sha512WithRSAEncryption
        Issuer: C=CH, ST=Zug, L=Zug, O=Perfect Privacy, CN=Perfect Privacy/emailAddress=admin@perfect-privacy.com
        Validity
            Not Before: Mar 13 00:00:00 2023 GMT
            Not After : Nov  7 00:00:00 2024 GMT
        Subject: C=CH, ST=Zug, O=Perfect Privacy, CN=Client_singapore.perfect-privacy.com/emailAddress=admin@perfect-privacy.com
        Subject Public Key Info:
            Public Key Algorithm: rsaEncryption
                Public-Key: (4096 bit)
                Modulus:
                    00:fd:74:36:76:91:af:11:fb:8c:54:9c:e6:8f:6c:
                    3c:48:1e:b9:ab:06:84:14:46:1e:ec:20:d0:ae:f9:
                    a9:d0:53:a1:f9:9d:65:7f:55:be:7b:31:91:7a:3f:
                    05:de:6e:84:34:ad:01:1c:52:61:1a:38:39:65:53:
                    7c:e1:a3:dd:03:1b:3a:a1:f9:6c:dd:a9:54:e2:61:
                    e0:be:36:84:a8:6f:c7:15:84:fe:98:ad:bd:77:7f:
                    9b:7c:38:ac:45:53:3c:9f:35:d3:88:b0:18:36:09:
                    6c:72:26:60:89:43:42:5d:26:a4:f0:a8:79:24:3c:
                    f9:f7:1b:bf:cf:fc:6a:cc:4e:f3:b7:53:e8:47:a2:
                    1b:6a:3c:8d:b5:91:c5:d5:8c:e2:9f:ad:be:49:bc:
                    33:d0:5b:42:93:34:a2:f5:89:70:93:7a:b3:1d:5e:
                    e0:17:87:af:c8:0b:93:9a:5f:88:c4:01:64:2f:4f:
                    33:5c:b7:a6:f8:72:cd:06:1a:62:6d:c3:71:dd:95:
                    ba:d1:8c:2e:9f:40:bb:c9:af:80:a2:36:d8:9c:3b:
                    ff:4a:19:c1:79:c1:91:18:11:23:80:db:ed:be:19:
                    a6:52:fe:bf:b0:a3:db:46:f5:18:a7:b6:90:95:2b:
                    85:a7:3c:1f:eb:8c:0f:ca:d6:aa:69:36:cf:cd:53:
                    e7:ac:3d:a5:b1:4b:77:4f:62:e7:cd:59:a4:92:92:
                    47:72:fb:2d:92:0e:6e:0d:56:21:0e:2c:bf:5a:28:
                    82:43:f2:f9:95:9a:79:fd:ff:66:15:16:18:5f:d4:
                    33:e6:cc:76:3a:3d:f8:6f:ef:55:e1:3d:d3:47:9e:
                    0b:9b:6b:f1:67:67:9b:b2:9f:f3:ce:a5:b7:74:7b:
                    70:14:78:ab:09:b4:7d:18:d9:68:70:79:7d:8c:8d:
                    42:a2:ed:72:8c:25:e5:65:f2:13:65:96:7f:d5:f6:
                    b2:e3:bd:40:6e:be:13:ac:63:67:a2:fa:04:6e:d0:
                    93:ba:30:fb:ba:8f:d2:21:be:8b:f4:b9:05:fa:2c:
                    c0:1b:e5:da:f0:e1:f4:ed:0c:b5:cf:33:61:6f:78:
                    7c:71:73:a1:57:81:44:91:a9:a6:e2:65:f0:22:73:
                    34:61:4b:b6:b9:7b:95:e6:33:d4:3d:63:d5:5b:73:
                    24:ad:64:bb:5e:c5:d4:fb:93:72:07:9b:a1:be:bf:
                    76:66:ec:30:a7:f4:08:f7:69:43:cc:3f:63:de:cf:
                    94:41:2d:70:3c:30:f8:f7:c4:03:1f:44:ab:45:4c:
                    da:b7:82:52:ca:6a:0c:72:8e:a0:71:5d:7a:8e:eb:
                    1d:6b:1a:c2:2e:0e:a7:81:52:0e:d6:67:41:f3:9c:
                    79:81:ad
                Exponent: 65537 (0x10001)
        X509v3 extensions:
            X509v3 Basic Constraints: 
                CA:FALSE
            Netscape Comment: 
                VPN User Certificate
            Netscape Cert Type: 
                SSL Client
            X509v3 Key Usage: 
                Digital Signature
            X509v3 Extended Key Usage: 
                TLS Web Client Authentication
            X509v3 Subject Key Identifier: 
                EB:6C:93:6C:E1:C0:A0:A7:E5:9C:4C:C4:EA:C4:0E:FC:CB:89:B5:19
            X509v3 Authority Key Identifier: 
                keyid:86:4F:B8:6D:18:2A:1B:3C:8F:27:34:29:F0:81:9F:BA:6E:61:0E:E1
                DirName:/C=CH/ST=Zug/L=Zug/O=Perfect Privacy/CN=Perfect Privacy/emailAddress=admin@perfect-privacy.com
                serial:FA:11:B5:C4:AA:69:AF:69

    Signature Algorithm: sha512WithRSAEncryption
         77:37:bf:44:0c:14:cc:66:5b:07:32:dd:c6:34:5d:6c:fe:1a:
         8a:9a:89:34:f3:1d:14:f9:5c:a0:be:cb:0a:89:3b:e5:b2:a5:
         e7:7a:d3:00:09:58:f2:82:0c:7b:6c:a5:35:ce:de:a2:c8:76:
         c7:90:e0:86:4f:6a:94:3c:51:6f:6f:f4:6b:ed:a7:5c:38:33:
         fd:fa:5c:23:d8:db:71:9c:2a:65:ad:e6:d5:e7:34:fd:71:ef:
         67:bd:4a:f2:11:5f:f3:db:4f:fb:ac:e2:b3:15:e4:2c:3f:32:
         d3:f8:84:dc:54:41:2e:61:00:86:fa:83:4c:18:cb:b1:fd:17:
         69:f7:ec:6b:9e:d7:8a:5d:98:ac:40:ac:0a:5b:04:b1:37:da:
         8a:10:0f:9d:b7:4f:1b:b4:e6:bf:af:15:14:cf:ac:5d:e3:66:
         9b:71:4d:e9:1a:14:90:02:cb:d2:8a:55:9d:dd:03:b0:cc:1f:
         e9:96:9a:ac:78:6c:01:e4:b6:54:3a:cc:50:08:64:b2:07:63:
         58:99:63:9e:6f:25:8e:dd:b8:38:13:66:34:75:ad:56:79:20:
         6e:db:72:71:6a:f1:91:ef:5d:89:b3:02:63:7d:3d:5a:94:b0:
         0e:8c:8f:3a:ad:32:9e:a8:2e:3f:77:25:19:65:7f:4a:07:18:
         35:8c:94:48:f6:b0:30:a0:42:a6:f1:07:1a:a6:2e:a2:27:a9:
         0a:47:07:22:62:88:4e:cf:65:c2:37:a7:52:14:05:ae:d7:5e:
         15:b4:17:67:64:2b:2f:2b:22:79:d2:ef:44:0d:09:79:6d:f6:
         f8:c2:f8:24:0d:6b:2b:db:50:7a:12:5c:bd:3c:81:24:29:fe:
         34:bb:26:20:07:98:71:b1:88:fb:f9:05:e8:03:5e:8b:6f:84:
         a5:df:7d:5e:ee:4e:5c:50:99:fc:0c:d6:aa:60:a3:e6:10:5a:
         9e:39:9c:ba:6f:b0:02:a5:65:67:af:12:42:e2:6c:c0:a1:e1:
         de:6d:c8:b9:5a:c4:92:88:0a:0a:95:20:49:53:d5:12:a3:cc:
         19:11:1c:cc:1c:ab:63:ec:b1:b6:83:78:63:27:e2:42:ab:92:
         14:b9:91:2b:44:74:e2:bd:ca:dd:aa:c5:ae:28:2f:ae:14:fa:
         5c:9d:66:ca:7b:b7:a5:5d:a3:c3:83:f9:81:d1:48:b9:df:cd:
         3e:c7:47:35:d5:06:3d:b9:1b:22:a0:b9:c0:b6:3e:1e:8b:83:
         35:90:ee:e9:6b:f0:5f:2e:95:58:28:a9:4a:45:72:c6:6b:4c:
         18:fc:74:42:cb:c7:c3:08:f0:05:44:5a:60:c0:38:f0:df:6c:
         46:3b:43:05:95:99:43:e6
-----BEGIN CERTIFICATE-----
MIIG4zCCBMugAwIBAgIJANYlILZKMFkoMA0GCSqGSIb3DQEBDQUAMIGHMQswCQYD
VQQGEwJDSDEMMAoGA1UECBMDWnVnMQwwCgYDVQQHEwNadWcxGDAWBgNVBAoTD1Bl
cmZlY3QgUHJpdmFjeTEYMBYGA1UEAxMPUGVyZmVjdCBQcml2YWN5MSgwJgYJKoZI
hvcNAQkBFhlhZG1pbkBwZXJmZWN0LXByaXZhY3kuY29tMB4XDTIzMDMxMzAwMDAw
MFoXDTI0MTEwNzAwMDAwMFowgY4xCzAJBgNVBAYTAkNIMQwwCgYDVQQIEwNadWcx
GDAWBgNVBAoTD1BlcmZlY3QgUHJpdmFjeTEtMCsGA1UEAxQkQ2xpZW50X3Npbmdh
cG9yZS5wZXJmZWN0LXByaXZhY3kuY29tMSgwJgYJKoZIhvcNAQkBFhlhZG1pbkBw
ZXJmZWN0LXByaXZhY3kuY29tMIICIjANBgkqhkiG9w0BAQEFAAOCAg8AMIICCgKC
AgEA/XQ2dpGvEfuMVJzmj2w8SB65qwaEFEYe7CDQrvmp0FOh+Z1lf1W+ezGRej8F
3m6ENK0BHFJhGjg5ZVN84aPdAxs6ofls3alU4mHgvjaEqG/HFYT+mK29d3+bfDis
RVM8nzXTiLAYNglsciZgiUNCXSak8Kh5JDz59xu/z/xqzE7zt1PoR6IbajyNtZHF
1Yzin62+Sbwz0FtCkzSi9Ylwk3qzHV7gF4evyAuTml+IxAFkL08zXLem+HLNBhpi
bcNx3ZW60Ywun0C7ya+AojbYnDv/ShnBecGRGBEjgNvtvhmmUv6/sKPbRvUYp7aQ
lSuFpzwf64wPytaqaTbPzVPnrD2lsUt3T2LnzVmkkpJHcvstkg5uDVYhDiy/WiiC
Q/L5lZp5/f9mFRYYX9Qz5sx2Oj34b+9V4T3TR54Lm2vxZ2ebsp/zzqW3dHtwFHir
CbR9GNlocHl9jI1Cou1yjCXlZfITZZZ/1fay471Abr4TrGNnovoEbtCTujD7uo/S
Ib6L9LkF+izAG+Xa8OH07Qy1zzNhb3h8cXOhV4FEkamm4mXwInM0YUu2uXuV5jPU
PWPVW3MkrWS7XsXU+5NyB5uhvr92Zuwwp/QI92lDzD9j3s+UQS1wPDD498QDH0Sr
RUzat4JSymoMco6gcV16jusdaxrCLg6ngVIO1mdB85x5ga0CAwEAAaOCAUcwggFD
MAkGA1UdEwQCMAAwIwYJYIZIAYb4QgENBBYWFFZQTiBVc2VyIENlcnRpZmljYXRl
MBEGCWCGSAGG+EIBAQQEAwIHgDALBgNVHQ8EBAMCB4AwEwYDVR0lBAwwCgYIKwYB
BQUHAwIwHQYDVR0OBBYEFOtsk2zhwKCn5ZxMxOrEDvzLibUZMIG8BgNVHSMEgbQw
gbGAFIZPuG0YKhs8jyc0KfCBn7puYQ7hoYGNpIGKMIGHMQswCQYDVQQGEwJDSDEM
MAoGA1UECBMDWnVnMQwwCgYDVQQHEwNadWcxGDAWBgNVBAoTD1BlcmZlY3QgUHJp
dmFjeTEYMBYGA1UEAxMPUGVyZmVjdCBQcml2YWN5MSgwJgYJKoZIhvcNAQkBFhlh
ZG1pbkBwZXJmZWN0LXByaXZhY3kuY29tggkA+hG1xKppr2kwDQYJKoZIhvcNAQEN
BQADggIBAHc3v0QMFMxmWwcy3cY0XWz+GoqaiTTzHRT5XKC+ywqJO+Wyped60wAJ
WPKCDHtspTXO3qLIdseQ4IZPapQ8UW9v9Gvtp1w4M/36XCPY23GcKmWt5tXnNP1x
72e9SvIRX/PbT/us4rMV5Cw/MtP4hNxUQS5hAIb6g0wYy7H9F2n37Gue14pdmKxA
rApbBLE32ooQD523Txu05r+vFRTPrF3jZptxTekaFJACy9KKVZ3dA7DMH+mWmqx4
bAHktlQ6zFAIZLIHY1iZY55vJY7duDgTZjR1rVZ5IG7bcnFq8ZHvXYmzAmN9PVqU
sA6MjzqtMp6oLj93JRllf0oHGDWMlEj2sDCgQqbxBxqmLqInqQpHByJiiE7PZcI3
p1IUBa7XXhW0F2dkKy8rInnS70QNCXlt9vjC+CQNayvbUHoSXL08gSQp/jS7JiAH
mHGxiPv5BegDXotvhKXffV7uTlxQmfwM1qpgo+YQWp45nLpvsAKlZWevEkLibMCh
4d5tyLlaxJKICgqVIElT1RKjzBkRHMwcq2PssbaDeGMn4kKrkhS5kStEdOK9yt2q
xa4oL64U+lydZsp7t6Vdo8OD+YHRSLnfzT7HRzXVBj25GyKgucC2Ph6LgzWQ7ulr
8F8ulVgoqUpFcsZrTBj8dELLx8MI8AVEWmDAOPDfbEY7QwWVmUPm
-----END CERTIFICATE-----
