Certificate:
    Data:
        Version: 3 (0x2)
        Serial Number:
            cc:f9:62:51:39:73:05:3d
    Signature Algorithm: sha512WithRSAEncryption
        Issuer: C=CH, ST=Zug, L=Zug, O=Perfect Privacy, CN=Perfect Privacy/emailAddress=admin@perfect-privacy.com
        Validity
            Not Before: Jun  1 00:00:00 2024 GMT
            Not After : Jan 27 00:00:00 2026 GMT
        Subject: C=CH, ST=Zug, O=Perfect Privacy, CN=Client_sydney.perfect-privacy.com/emailAddress=admin@perfect-privacy.com
        Subject Public Key Info:
            Public Key Algorithm: rsaEncryption
                Public-Key: (4096 bit)
                Modulus:
                    00:c9:f1:d7:51:f7:86:36:1b:66:db:ef:42:52:8f:
                    a6:44:a3:ae:86:f3:c8:71:1a:10:a1:85:d3:2d:3a:
                    2a:2c:2d:6e:3c:eb:ef:94:6f:21:a4:38:94:be:45:
                    be:f6:dd:19:58:b9:28:2e:69:cb:7b:94:3e:bb:1c:
                    8e:09:1b:fc:21:ab:b0:d5:22:00:d2:a5:88:2a:37:
                    aa:a3:ed:f1:0f:0b:6e:1d:f1:f4:d6:9c:0b:e3:cd:
                    e9:dd:1d:fe:d2:0f:03:64:39:bb:17:46:7d:51:38:
                    c5:50:61:2f:62:a4:aa:b6:b2:e8:86:cb:c7:66:8b:
                    63:ba:ae:18:cd:bd:6f:da:f2:63:91:40:83:c2:cc:
                    1c:82:c3:64:46:39:ca:df:43:e3:c5:5c:db:b3:4c:
                    8d:5a:da:42:a8:70:16:c8:d9:e4:a5:ce:d4:2f:63:
                    84:54:40:2e:a0:2f:37:5e:31:c1:db:9c:c7:b3:62:
                    8f:9a:95:b7:a7:65:2c:0b:5b:c0:92:6c:c4:55:1c:
                    35:9c:98:00:23:c3:cb:a8:b4:92:9e:3a:dc:f9:c8:
                    a9:71:90:c4:97:d5:99:b6:59:5c:2e:5b:74:d0:7e:
                    76:ea:e8:36:90:bd:67:a2:1a:14:e7:ae:82:da:67:
                    8d:91:ae:98:e2:a9:0d:08:c1:87:a7:ff:30:d7:bd:
                    c2:07:6c:9b:11:89:ed:50:56:61:bc:50:56:cd:37:
                    e3:bf:80:eb:bb:a9:3d:6b:16:bd:0d:a1:a5:5c:ad:
                    dc:90:34:26:b3:0e:64:7a:08:f1:83:7c:f7:f7:67:
                    ed:9d:65:48:cf:21:84:4d:02:22:31:64:f8:90:80:
                    ea:f9:08:58:f7:f7:ae:1e:0e:d4:58:62:11:fe:23:
                    5f:00:1b:95:60:ad:75:51:25:3d:db:33:14:31:91:
                    8e:24:dc:16:72:c3:82:13:81:2e:26:11:30:6c:5c:
                    09:2b:44:a1:86:88:ab:31:2c:8a:8a:b4:6a:25:2d:
                    8f:6b:03:fe:0d:33:53:43:a1:87:01:0b:a1:d6:8c:
                    63:97:36:51:3c:22:50:af:96:2e:3d:96:06:1d:ea:
                    52:77:04:9e:d3:61:8e:7b:93:ec:c0:8f:c8:8d:e9:
                    70:c2:1b:3c:de:5b:5f:f2:06:b2:7d:40:b3:e2:91:
                    2a:f9:34:01:8b:54:8b:71:a6:12:ca:e4:c7:5d:12:
                    d3:e4:95:49:80:13:37:e1:f2:d1:f5:3b:1e:4b:1a:
                    f8:b6:2d:b3:0b:b0:c0:fb:a7:b2:d3:52:65:6f:4f:
                    7f:4a:29:b9:bd:6c:b6:19:ba:a2:ef:8c:91:57:49:
                    35:ec:74:55:cb:6d:a7:08:0f:fd:4e:af:5c:0e:f2:
                    a5:38:ab
                Exponent: 65537 (0x10001)
        X509v3 extensions:
            X509v3 Basic Constraints: 
                CA:FALSE
            Netscape Comment: 
                VPN User Certificate
            Netscape Cert Type: 
                SSL Client
            X509v3 Key Usage: 
                Digital Signature
            X509v3 Extended Key Usage: 
                TLS Web Client Authentication
            X509v3 Subject Key Identifier: 
                15:92:20:EB:DA:65:83:1B:4D:85:F6:0C:B5:7C:31:D6:25:D0:B4:F1
            X509v3 Authority Key Identifier: 
                keyid:86:4F:B8:6D:18:2A:1B:3C:8F:27:34:29:F0:81:9F:BA:6E:61:0E:E1
                DirName:/C=CH/ST=Zug/L=Zug/O=Perfect Privacy/CN=Perfect Privacy/emailAddress=admin@perfect-privacy.com
                serial:FA:11:B5:C4:AA:69:AF:69

    Signature Algorithm: sha512WithRSAEncryption
         5e:68:4c:de:8b:22:a7:37:4c:7c:f8:e9:5c:82:6b:85:c0:9c:
         b7:00:41:43:d2:c9:46:51:21:97:6d:f3:21:03:cf:e7:cd:a7:
         89:0a:23:07:8c:d7:2d:bc:73:9b:d5:25:67:fc:42:65:07:fb:
         2e:3e:ea:d3:ab:bd:52:0d:9a:4e:1a:03:8c:75:0c:c6:a0:00:
         c3:80:e9:a6:17:c5:32:58:a7:4a:83:9b:d8:5b:fc:35:78:ee:
         e1:ec:bf:c6:b1:7e:e5:48:38:db:7c:1a:d9:4f:0f:d1:d2:13:
         16:14:58:0e:de:34:01:2a:62:05:c0:b5:82:c8:a3:7e:f5:47:
         ab:4c:47:35:56:51:2c:74:24:81:63:f3:c3:04:20:9a:f2:79:
         29:3e:9a:ba:1b:b5:78:ee:f5:8d:b5:db:53:2a:81:61:90:31:
         51:79:88:6c:da:93:91:63:fd:ae:61:b1:e3:7f:68:db:c0:56:
         96:57:55:d4:fc:4e:82:5f:54:02:ff:63:e3:a8:1d:f5:30:29:
         a9:1e:08:5d:50:0c:8d:7f:b6:de:07:f0:89:46:03:4c:3f:6b:
         45:2b:aa:50:23:35:bb:27:1f:bd:4b:43:73:70:50:a5:ed:af:
         6f:dd:68:78:75:21:c9:e6:ff:78:36:c3:13:44:d9:cb:dd:13:
         5b:0f:61:e1:75:77:d4:22:a2:7f:06:03:3a:01:27:ad:64:7c:
         20:32:9e:53:a4:01:e2:ff:df:29:a7:08:02:ac:d5:38:83:07:
         3e:ba:4e:a2:e9:be:58:6e:ba:9b:39:2f:69:ab:74:f3:e7:29:
         29:cc:20:5d:3e:60:77:30:61:84:9a:02:cd:7d:d8:a2:73:b3:
         f1:24:82:c1:15:8c:fb:13:38:e1:5d:c1:eb:c2:b8:89:96:6c:
         c5:88:95:45:5e:3b:6f:e9:eb:44:c8:02:83:6d:03:a4:f9:69:
         e7:c3:f4:4d:99:1c:6c:44:46:89:f8:a4:a4:48:bf:6c:83:af:
         d5:0e:67:ec:1a:e0:06:58:11:b1:02:68:99:75:ca:82:b6:42:
         32:aa:38:fd:f6:38:b9:55:f1:a6:82:04:e8:a6:4e:a5:eb:05:
         54:cd:05:83:56:01:1f:65:40:fa:9d:a6:01:ad:88:95:53:73:
         15:b5:7d:53:b0:13:7c:af:df:f3:a7:76:cf:79:37:30:c9:2f:
         12:7d:f0:b2:95:cb:c2:41:35:15:76:ac:3a:c6:ac:dd:99:f0:
         f3:93:07:7d:bc:15:b0:b7:91:15:bf:a1:8d:6b:b1:42:93:fe:
         8b:84:d1:1c:ba:29:bf:ed:9c:44:4a:32:03:c6:14:41:9d:11:
         c9:3f:7a:57:6a:fe:47:70
-----BEGIN CERTIFICATE-----
MIIG4DCCBMigAwIBAgIJAMz5YlE5cwU9MA0GCSqGSIb3DQEBDQUAMIGHMQswCQYD
VQQGEwJDSDEMMAoGA1UECBMDWnVnMQwwCgYDVQQHEwNadWcxGDAWBgNVBAoTD1Bl
cmZlY3QgUHJpdmFjeTEYMBYGA1UEAxMPUGVyZmVjdCBQcml2YWN5MSgwJgYJKoZI
hvcNAQkBFhlhZG1pbkBwZXJmZWN0LXByaXZhY3kuY29tMB4XDTI0MDYwMTAwMDAw
MFoXDTI2MDEyNzAwMDAwMFowgYsxCzAJBgNVBAYTAkNIMQwwCgYDVQQIEwNadWcx
GDAWBgNVBAoTD1BlcmZlY3QgUHJpdmFjeTEqMCgGA1UEAxQhQ2xpZW50X3N5ZG5l
eS5wZXJmZWN0LXByaXZhY3kuY29tMSgwJgYJKoZIhvcNAQkBFhlhZG1pbkBwZXJm
ZWN0LXByaXZhY3kuY29tMIICIjANBgkqhkiG9w0BAQEFAAOCAg8AMIICCgKCAgEA
yfHXUfeGNhtm2+9CUo+mRKOuhvPIcRoQoYXTLToqLC1uPOvvlG8hpDiUvkW+9t0Z
WLkoLmnLe5Q+uxyOCRv8Iauw1SIA0qWIKjeqo+3xDwtuHfH01pwL483p3R3+0g8D
ZDm7F0Z9UTjFUGEvYqSqtrLohsvHZotjuq4Yzb1v2vJjkUCDwswcgsNkRjnK30Pj
xVzbs0yNWtpCqHAWyNnkpc7UL2OEVEAuoC83XjHB25zHs2KPmpW3p2UsC1vAkmzE
VRw1nJgAI8PLqLSSnjrc+cipcZDEl9WZtllcLlt00H526ug2kL1nohoU566C2meN
ka6Y4qkNCMGHp/8w173CB2ybEYntUFZhvFBWzTfjv4Dru6k9axa9DaGlXK3ckDQm
sw5kegjxg3z392ftnWVIzyGETQIiMWT4kIDq+QhY9/euHg7UWGIR/iNfABuVYK11
USU92zMUMZGOJNwWcsOCE4EuJhEwbFwJK0ShhoirMSyKirRqJS2PawP+DTNTQ6GH
AQuh1oxjlzZRPCJQr5YuPZYGHepSdwSe02GOe5PswI/Ijelwwhs83ltf8gayfUCz
4pEq+TQBi1SLcaYSyuTHXRLT5JVJgBM34fLR9TseSxr4ti2zC7DA+6ey01Jlb09/
Sim5vWy2Gbqi74yRV0k17HRVy22nCA/9Tq9cDvKlOKsCAwEAAaOCAUcwggFDMAkG
A1UdEwQCMAAwIwYJYIZIAYb4QgENBBYWFFZQTiBVc2VyIENlcnRpZmljYXRlMBEG
CWCGSAGG+EIBAQQEAwIHgDALBgNVHQ8EBAMCB4AwEwYDVR0lBAwwCgYIKwYBBQUH
AwIwHQYDVR0OBBYEFBWSIOvaZYMbTYX2DLV8MdYl0LTxMIG8BgNVHSMEgbQwgbGA
FIZPuG0YKhs8jyc0KfCBn7puYQ7hoYGNpIGKMIGHMQswCQYDVQQGEwJDSDEMMAoG
A1UECBMDWnVnMQwwCgYDVQQHEwNadWcxGDAWBgNVBAoTD1BlcmZlY3QgUHJpdmFj
eTEYMBYGA1UEAxMPUGVyZmVjdCBQcml2YWN5MSgwJgYJKoZIhvcNAQkBFhlhZG1p
bkBwZXJmZWN0LXByaXZhY3kuY29tggkA+hG1xKppr2kwDQYJKoZIhvcNAQENBQAD
ggIBAF5oTN6LIqc3THz46VyCa4XAnLcAQUPSyUZRIZdt8yEDz+fNp4kKIweM1y28
c5vVJWf8QmUH+y4+6tOrvVINmk4aA4x1DMagAMOA6aYXxTJYp0qDm9hb/DV47uHs
v8axfuVIONt8GtlPD9HSExYUWA7eNAEqYgXAtYLIo371R6tMRzVWUSx0JIFj88ME
IJryeSk+mrobtXju9Y2121MqgWGQMVF5iGzak5Fj/a5hseN/aNvAVpZXVdT8ToJf
VAL/Y+OoHfUwKakeCF1QDI1/tt4H8IlGA0w/a0UrqlAjNbsnH71LQ3NwUKXtr2/d
aHh1Icnm/3g2wxNE2cvdE1sPYeF1d9Qion8GAzoBJ61kfCAynlOkAeL/3ymnCAKs
1TiDBz66TqLpvlhuups5L2mrdPPnKSnMIF0+YHcwYYSaAs192KJzs/EkgsEVjPsT
OOFdwevCuImWbMWIlUVeO2/p60TIAoNtA6T5aefD9E2ZHGxERon4pKRIv2yDr9UO
Z+wa4AZYEbECaJl1yoK2QjKqOP32OLlV8aaCBOimTqXrBVTNBYNWAR9lQPqdpgGt
iJVTcxW1fVOwE3yv3/Onds95NzDJLxJ98LKVy8JBNRV2rDrGrN2Z8POTB328FbC3
kRW/oY1rsUKT/ouE0Ry6Kb/tnERKMgPGFEGdEck/eldq/kdw
-----END CERTIFICATE-----
