Certificate:
    Data:
        Version: 3 (0x2)
        Serial Number: 5118473400533050659 (0x470878705f0ee523)
    Signature Algorithm: sha512WithRSAEncryption
        Issuer: C=CH, ST=Zug, L=Zug, O=Perfect Privacy, CN=Perfect Privacy/emailAddress=admin@perfect-privacy.com
        Validity
            Not Before: Dec  1 00:00:00 2022 GMT
            Not After : Jul 28 00:00:00 2024 GMT
        Subject: C=CH, ST=Zug, O=Perfect Privacy, CN=Client_stockholm.perfect-privacy.com/emailAddress=admin@perfect-privacy.com
        Subject Public Key Info:
            Public Key Algorithm: rsaEncryption
                Public-Key: (4096 bit)
                Modulus:
                    00:eb:df:21:c0:46:c0:2d:1a:62:bb:6c:57:91:e8:
                    13:8d:f1:d6:dd:f0:bc:62:f7:72:d5:ce:e3:ec:35:
                    66:11:c7:3d:53:12:6c:12:76:53:78:5f:2c:23:ca:
                    57:39:ff:fc:6a:ca:5d:dc:51:bc:28:2e:7e:cd:a1:
                    1f:80:19:e7:eb:e3:80:5e:74:9c:b0:38:53:e3:f2:
                    82:ed:a5:0b:79:3a:47:cf:b0:09:1b:d3:50:fe:4d:
                    4f:26:c3:8b:30:de:b6:0d:48:5f:06:05:59:ca:76:
                    59:b5:98:9b:ed:b0:92:91:eb:ff:11:80:dd:cc:9b:
                    51:d7:4d:2b:6f:28:a5:78:f8:b8:c8:3f:48:85:77:
                    4f:67:ff:ec:a9:51:4d:06:ad:e2:12:cb:f8:bd:7f:
                    d2:2f:ef:68:4e:53:03:47:95:d1:6d:2b:98:36:e0:
                    09:3c:33:91:8b:2d:af:03:5c:27:92:f3:89:19:1f:
                    ea:0a:60:7b:6a:4b:46:41:71:02:db:c6:ff:ab:c1:
                    bd:94:e4:a0:e4:93:49:13:ff:00:c3:f8:9b:f1:55:
                    ab:24:03:dc:63:6c:e7:5c:c0:f5:5b:1f:e4:d3:48:
                    01:15:c3:55:4b:6a:3b:09:74:e4:73:3c:34:6c:99:
                    8c:2e:9a:c9:85:c2:2b:90:d3:6d:cf:b3:bd:3f:2c:
                    a1:6f:c5:2b:d4:aa:40:24:28:ba:57:74:71:83:40:
                    a1:03:21:0f:57:6c:12:77:0a:50:20:29:b6:b3:4d:
                    12:e1:4b:b9:98:82:8d:da:8b:3f:ba:a4:72:8a:ee:
                    7c:42:cd:0e:1f:28:53:96:09:65:27:73:44:b0:af:
                    05:6e:92:01:2e:6f:7a:92:e6:f1:f3:a5:f9:6b:c5:
                    49:b3:de:3f:d0:23:bc:9d:c8:47:1e:bf:39:a1:94:
                    57:e5:a6:d4:ab:69:e8:09:52:c6:4e:cf:1f:5f:96:
                    62:00:62:08:08:dc:df:e0:44:0d:6d:28:40:6f:8d:
                    8d:e2:f2:38:45:8c:c5:5e:46:9e:52:4e:73:14:04:
                    42:12:a8:51:53:bc:a8:a0:8f:12:1e:76:cc:36:e0:
                    24:a1:65:ac:af:2b:57:82:57:c4:ad:1e:c4:96:b1:
                    e3:ea:5e:c5:e9:9f:63:3b:7b:28:f6:f6:b9:ac:0f:
                    05:b7:f4:58:60:d5:85:29:74:28:48:1b:a0:4c:cd:
                    bd:b0:64:cf:9e:e6:1f:3c:3f:25:af:62:41:97:37:
                    59:d1:03:b7:9c:db:10:83:97:2b:50:cc:9a:ef:1d:
                    82:0d:a0:de:f8:bf:a4:df:44:1f:16:79:0f:e8:0c:
                    45:14:3d:bf:ef:d5:32:ce:a1:16:9a:45:40:9c:08:
                    2b:62:6b
                Exponent: 65537 (0x10001)
        X509v3 extensions:
            X509v3 Basic Constraints: 
                CA:FALSE
            Netscape Comment: 
                VPN User Certificate
            Netscape Cert Type: 
                SSL Client
            X509v3 Key Usage: 
                Digital Signature
            X509v3 Extended Key Usage: 
                TLS Web Client Authentication
            X509v3 Subject Key Identifier: 
                BC:B6:1C:77:B3:BA:9C:91:EA:A7:7B:AA:90:31:4B:2F:E3:AD:17:72
            X509v3 Authority Key Identifier: 
                keyid:86:4F:B8:6D:18:2A:1B:3C:8F:27:34:29:F0:81:9F:BA:6E:61:0E:E1
                DirName:/C=CH/ST=Zug/L=Zug/O=Perfect Privacy/CN=Perfect Privacy/emailAddress=admin@perfect-privacy.com
                serial:FA:11:B5:C4:AA:69:AF:69

    Signature Algorithm: sha512WithRSAEncryption
         01:8e:63:fa:a0:39:c4:f9:9d:a4:54:ce:0d:c7:13:d5:bf:f4:
         65:e7:7f:97:ee:7f:65:12:3e:2d:ae:47:5f:7d:8e:42:34:e0:
         04:b6:1f:0b:40:9c:77:55:e7:aa:a2:83:f1:24:87:cb:1e:a9:
         e5:98:b9:e6:5e:ea:08:eb:05:07:3e:d1:51:bf:9c:d7:0d:20:
         d8:39:a5:75:e6:4d:bb:c7:48:3e:9a:59:3e:6b:03:f8:22:a6:
         6b:f3:20:46:70:e1:50:71:dd:40:ab:7e:67:1e:6e:06:b1:d9:
         ef:fd:88:dd:61:6d:6d:e7:b8:bd:f8:5c:fb:87:45:b1:d3:78:
         b5:ae:4e:0a:5c:50:b3:62:ed:a5:5b:a2:06:7c:e8:24:13:18:
         25:f5:b0:79:4c:ed:1e:39:82:51:2c:42:14:01:c9:ec:89:e8:
         64:31:9b:86:4d:4a:64:bf:bd:a6:49:c1:b2:5e:4c:44:92:fc:
         c0:db:0c:b7:0e:61:0f:14:4c:f2:a7:74:59:58:55:a9:01:a1:
         3f:ad:fc:3f:fa:9a:10:d8:98:07:ab:ca:62:9b:08:b3:d7:f3:
         ed:60:a9:53:76:ad:11:82:c6:6e:bf:6c:cc:71:1e:4c:8a:77:
         28:63:8d:e6:bb:30:8f:8b:43:eb:ab:fe:41:7f:80:3b:6d:ee:
         28:f3:90:ff:00:09:19:6e:eb:bb:1e:11:fd:6b:d9:c8:fd:08:
         2a:f6:8e:df:08:e5:2a:b5:51:8a:dd:1e:f5:7b:f7:b5:75:53:
         23:9b:82:1b:b4:2c:a7:48:cd:a6:94:14:79:c1:a7:c3:4b:42:
         10:e9:2c:a5:49:db:73:12:1d:89:da:de:16:56:86:88:6c:2b:
         09:0c:ad:19:f8:0a:12:dc:9d:0b:5b:ed:3a:a3:9c:80:51:87:
         54:49:1c:a1:24:ff:3d:35:c2:6a:6d:8f:c7:54:d2:7e:e9:c1:
         08:0a:12:16:cb:21:ac:16:a1:ff:fb:61:29:8a:1c:cd:68:fa:
         3e:02:a5:37:12:fc:7d:59:c7:bc:d4:a6:7b:0f:21:78:c9:e8:
         0c:b7:fd:e5:fe:dc:a5:fb:44:40:19:18:2e:1c:f0:7d:31:62:
         4f:1a:86:b8:46:82:1d:27:4e:37:e1:21:3c:fe:ef:ca:a5:b5:
         12:c8:54:94:4d:24:6f:cb:42:38:7e:52:d6:55:43:3d:b5:49:
         b2:58:e3:41:04:aa:4f:7e:13:c0:a5:34:79:1b:bc:e5:28:f2:
         9a:66:3d:e7:98:88:ff:88:b5:b9:82:3e:b9:c9:25:30:0a:ff:
         41:0d:d8:b3:7d:84:da:45:ac:0f:37:0e:59:13:3b:f1:d1:e2:
         53:69:e6:9d:b7:1c:e2:54
-----BEGIN CERTIFICATE-----
MIIG4jCCBMqgAwIBAgIIRwh4cF8O5SMwDQYJKoZIhvcNAQENBQAwgYcxCzAJBgNV
BAYTAkNIMQwwCgYDVQQIEwNadWcxDDAKBgNVBAcTA1p1ZzEYMBYGA1UEChMPUGVy
ZmVjdCBQcml2YWN5MRgwFgYDVQQDEw9QZXJmZWN0IFByaXZhY3kxKDAmBgkqhkiG
9w0BCQEWGWFkbWluQHBlcmZlY3QtcHJpdmFjeS5jb20wHhcNMjIxMjAxMDAwMDAw
WhcNMjQwNzI4MDAwMDAwWjCBjjELMAkGA1UEBhMCQ0gxDDAKBgNVBAgTA1p1ZzEY
MBYGA1UEChMPUGVyZmVjdCBQcml2YWN5MS0wKwYDVQQDFCRDbGllbnRfc3RvY2to
b2xtLnBlcmZlY3QtcHJpdmFjeS5jb20xKDAmBgkqhkiG9w0BCQEWGWFkbWluQHBl
cmZlY3QtcHJpdmFjeS5jb20wggIiMA0GCSqGSIb3DQEBAQUAA4ICDwAwggIKAoIC
AQDr3yHARsAtGmK7bFeR6BON8dbd8Lxi93LVzuPsNWYRxz1TEmwSdlN4Xywjylc5
//xqyl3cUbwoLn7NoR+AGefr44BedJywOFPj8oLtpQt5OkfPsAkb01D+TU8mw4sw
3rYNSF8GBVnKdlm1mJvtsJKR6/8RgN3Mm1HXTStvKKV4+LjIP0iFd09n/+ypUU0G
reISy/i9f9Iv72hOUwNHldFtK5g24Ak8M5GLLa8DXCeS84kZH+oKYHtqS0ZBcQLb
xv+rwb2U5KDkk0kT/wDD+JvxVaskA9xjbOdcwPVbH+TTSAEVw1VLajsJdORzPDRs
mYwumsmFwiuQ023Ps70/LKFvxSvUqkAkKLpXdHGDQKEDIQ9XbBJ3ClAgKbazTRLh
S7mYgo3aiz+6pHKK7nxCzQ4fKFOWCWUnc0SwrwVukgEub3qS5vHzpflrxUmz3j/Q
I7ydyEcevzmhlFflptSraegJUsZOzx9flmIAYggI3N/gRA1tKEBvjY3i8jhFjMVe
Rp5STnMUBEISqFFTvKigjxIedsw24CShZayvK1eCV8StHsSWsePqXsXpn2M7eyj2
9rmsDwW39Fhg1YUpdChIG6BMzb2wZM+e5h88PyWvYkGXN1nRA7ec2xCDlytQzJrv
HYINoN74v6TfRB8WeQ/oDEUUPb/v1TLOoRaaRUCcCCtiawIDAQABo4IBRzCCAUMw
CQYDVR0TBAIwADAjBglghkgBhvhCAQ0EFhYUVlBOIFVzZXIgQ2VydGlmaWNhdGUw
EQYJYIZIAYb4QgEBBAQDAgeAMAsGA1UdDwQEAwIHgDATBgNVHSUEDDAKBggrBgEF
BQcDAjAdBgNVHQ4EFgQUvLYcd7O6nJHqp3uqkDFLL+OtF3IwgbwGA1UdIwSBtDCB
sYAUhk+4bRgqGzyPJzQp8IGfum5hDuGhgY2kgYowgYcxCzAJBgNVBAYTAkNIMQww
CgYDVQQIEwNadWcxDDAKBgNVBAcTA1p1ZzEYMBYGA1UEChMPUGVyZmVjdCBQcml2
YWN5MRgwFgYDVQQDEw9QZXJmZWN0IFByaXZhY3kxKDAmBgkqhkiG9w0BCQEWGWFk
bWluQHBlcmZlY3QtcHJpdmFjeS5jb22CCQD6EbXEqmmvaTANBgkqhkiG9w0BAQ0F
AAOCAgEAAY5j+qA5xPmdpFTODccT1b/0Zed/l+5/ZRI+La5HX32OQjTgBLYfC0Cc
d1XnqqKD8SSHyx6p5Zi55l7qCOsFBz7RUb+c1w0g2DmldeZNu8dIPppZPmsD+CKm
a/MgRnDhUHHdQKt+Zx5uBrHZ7/2I3WFtbee4vfhc+4dFsdN4ta5OClxQs2LtpVui
BnzoJBMYJfWweUztHjmCUSxCFAHJ7InoZDGbhk1KZL+9pknBsl5MRJL8wNsMtw5h
DxRM8qd0WVhVqQGhP638P/qaENiYB6vKYpsIs9fz7WCpU3atEYLGbr9szHEeTIp3
KGON5rswj4tD66v+QX+AO23uKPOQ/wAJGW7rux4R/WvZyP0IKvaO3wjlKrVRit0e
9Xv3tXVTI5uCG7Qsp0jNppQUecGnw0tCEOkspUnbcxIdidreFlaGiGwrCQytGfgK
EtydC1vtOqOcgFGHVEkcoST/PTXCam2Px1TSfunBCAoSFsshrBah//thKYoczWj6
PgKlNxL8fVnHvNSmew8heMnoDLf95f7cpftEQBkYLhzwfTFiTxqGuEaCHSdON+Eh
PP7vyqW1EshUlE0kb8tCOH5S1lVDPbVJsljjQQSqT34TwKU0eRu85SjymmY955iI
/4i1uYI+ucklMAr/QQ3Ys32E2kWsDzcOWRM78dHiU2nmnbcc4lQ=
-----END CERTIFICATE-----
