Certificate:
    Data:
        Version: 3 (0x2)
        Serial Number:
            b8:56:45:28:63:dd:33:0c
    Signature Algorithm: sha512WithRSAEncryption
        Issuer: C=CH, ST=Zug, L=Zug, O=Perfect Privacy, CN=Perfect Privacy/emailAddress=admin@perfect-privacy.com
        Validity
            Not Before: Jan 16 00:00:00 2023 GMT
            Not After : Sep 12 00:00:00 2024 GMT
        Subject: C=CH, ST=Zug, O=Perfect Privacy, CN=Client_sydney.perfect-privacy.com/emailAddress=admin@perfect-privacy.com
        Subject Public Key Info:
            Public Key Algorithm: rsaEncryption
                Public-Key: (4096 bit)
                Modulus:
                    00:ab:73:63:49:4c:70:15:30:41:12:18:90:5d:65:
                    e6:fe:b5:9b:7b:e6:05:e6:96:f8:db:fe:e7:88:38:
                    6d:d6:d7:e9:64:1a:0f:51:c4:31:8e:0f:17:5c:4b:
                    ad:b5:e8:b9:ed:8d:ef:eb:78:d2:2f:a9:f8:96:a6:
                    c0:8a:43:d2:66:34:d0:02:31:3d:5d:24:e0:9b:50:
                    0c:bc:2d:0f:03:83:94:99:58:bb:04:e8:f6:d2:c9:
                    b3:46:c8:94:4f:07:53:22:9e:2b:e1:2d:d5:44:8a:
                    91:db:5a:64:fa:c9:a3:63:48:bf:e7:a5:e6:03:67:
                    96:54:28:7d:35:0e:43:05:97:28:fa:e2:0c:95:85:
                    ae:45:07:70:3c:41:6e:b6:40:b3:42:af:d9:ec:b2:
                    88:d0:3e:c7:b7:a7:00:42:40:97:bc:9f:4d:c9:b0:
                    aa:8e:e6:e3:61:63:f0:17:d1:83:89:71:63:a5:f4:
                    bc:d1:13:54:a4:28:80:a2:ed:8b:2e:45:61:d8:4d:
                    a8:8d:9f:31:86:36:41:ef:72:f8:5b:87:5c:a3:b9:
                    59:5a:ba:d3:89:05:9e:d3:c8:96:ee:7a:ef:fe:c7:
                    11:8d:88:7b:e0:d0:2b:c3:a6:90:18:57:f2:f6:38:
                    bf:d0:36:7c:07:30:5b:da:14:db:df:5b:64:50:af:
                    05:4c:31:20:92:f0:5b:18:c9:96:df:4b:ee:ff:7e:
                    37:62:a2:c6:5d:7e:75:b3:e2:f5:49:35:0f:87:04:
                    1a:b4:e4:c3:60:c5:01:fa:88:5c:b6:46:20:6b:2c:
                    26:b6:57:ca:81:69:ea:6a:ca:2c:16:3c:17:27:f5:
                    37:8b:1a:3c:6c:34:48:e1:8f:51:2e:4a:75:62:1a:
                    e8:5e:ed:8e:e2:57:cb:41:d7:68:ac:cb:dc:0a:31:
                    55:3b:e9:37:91:66:dc:d9:7e:0a:81:c1:d7:5f:ec:
                    69:9e:60:49:a7:c7:47:61:04:a2:9c:09:54:cf:c2:
                    2e:4c:d1:13:51:ee:f1:b6:3a:bd:bc:de:37:f8:14:
                    d5:e7:b0:9d:43:a2:b7:29:a5:5d:67:43:85:64:f8:
                    d6:2a:0b:da:c6:d3:70:cb:6d:d6:72:1c:91:ae:a6:
                    26:47:f0:7b:05:f2:5a:fb:91:cf:2c:01:29:0c:5c:
                    5b:d6:d4:96:0c:b3:0e:88:d6:d2:53:17:69:50:03:
                    a3:e7:2c:87:31:8f:7c:3f:47:e4:59:a1:09:d7:8b:
                    30:56:88:7e:fc:d4:92:97:7f:d3:f6:19:a6:56:5d:
                    54:aa:d2:2c:db:ef:e4:a6:c0:81:2b:9b:64:61:cb:
                    72:02:f6:af:b1:31:14:c1:bd:f6:5d:f2:a5:d7:fb:
                    2d:da:41
                Exponent: 65537 (0x10001)
        X509v3 extensions:
            X509v3 Basic Constraints: 
                CA:FALSE
            Netscape Comment: 
                VPN User Certificate
            Netscape Cert Type: 
                SSL Client
            X509v3 Key Usage: 
                Digital Signature
            X509v3 Extended Key Usage: 
                TLS Web Client Authentication
            X509v3 Subject Key Identifier: 
                72:AF:08:0B:2F:C8:D3:E3:5F:5B:98:03:C2:EB:39:62:DB:95:C5:74
            X509v3 Authority Key Identifier: 
                keyid:86:4F:B8:6D:18:2A:1B:3C:8F:27:34:29:F0:81:9F:BA:6E:61:0E:E1
                DirName:/C=CH/ST=Zug/L=Zug/O=Perfect Privacy/CN=Perfect Privacy/emailAddress=admin@perfect-privacy.com
                serial:FA:11:B5:C4:AA:69:AF:69

    Signature Algorithm: sha512WithRSAEncryption
         22:ee:f7:45:a1:5f:a0:76:fe:ec:cd:ea:15:c9:b5:89:6c:df:
         c0:3f:5a:ed:dd:c1:3b:66:20:fb:17:9a:c9:aa:4d:cf:c5:fe:
         de:9d:2b:06:f6:85:3f:51:08:0e:a0:fe:78:c3:fd:41:bc:1b:
         62:19:8e:a5:11:22:f6:4d:f6:56:b2:f8:65:ef:43:53:ec:73:
         2d:76:ea:d7:d2:6f:ff:6e:4c:d7:47:7c:4d:aa:85:4c:6d:71:
         2f:c7:1a:05:ff:a4:cc:16:a4:79:4d:6e:a3:a1:d8:9d:1f:f4:
         6c:41:fd:0e:e3:e4:cc:88:6b:54:6c:b0:06:59:09:ae:1c:c1:
         6f:b2:70:4e:56:87:06:81:44:86:e6:47:81:df:8e:8b:3b:68:
         55:b0:3e:30:58:50:25:40:88:7f:ff:97:d5:83:c6:d4:35:e0:
         5c:10:59:2d:35:fa:fb:2e:af:fe:82:c9:10:1a:e2:3e:29:53:
         51:15:dc:26:66:ac:88:47:c3:e7:d9:1e:16:bf:28:7a:24:10:
         7b:20:21:e7:53:87:dc:85:95:70:36:8c:57:9a:a3:5a:f1:66:
         c3:b7:71:21:70:f7:c2:55:4c:48:0b:84:dc:a1:e1:4b:bd:51:
         82:52:9a:8c:14:32:7c:8b:3d:de:1a:22:29:8f:cd:1d:1c:fb:
         a4:4d:b5:ee:ae:80:40:fa:84:90:5e:a9:e7:ab:23:93:d8:bf:
         18:46:b1:b1:5d:19:1a:74:94:cf:3a:13:7e:39:c5:2a:53:dc:
         3c:0c:1f:95:ba:c7:a2:7e:3b:1f:d1:80:94:77:f9:80:cc:57:
         2a:a1:27:f1:0c:9e:2d:86:e8:19:35:f0:87:e3:9d:6b:e3:e2:
         82:9a:38:77:90:92:cd:46:29:00:b8:04:68:8d:6e:00:7d:96:
         b5:6c:ee:2c:46:c0:c1:6a:0e:4c:4f:ad:24:ff:4a:ba:f2:28:
         dc:cc:5a:37:ba:07:e2:78:fc:3e:8a:47:be:ee:c3:46:20:9a:
         5e:54:69:bd:a1:71:6b:b2:a1:2e:5b:88:2e:39:e8:74:1b:0a:
         f5:d5:cb:ad:98:8f:dd:d0:2f:db:c8:35:61:bf:cc:b2:0d:f4:
         bd:d0:d8:17:f9:26:48:05:ae:f1:a7:9d:fb:e8:33:5f:69:c7:
         d2:11:7c:09:07:be:22:33:f0:38:36:e1:33:4d:fc:6d:ff:e1:
         04:c8:1e:18:37:84:61:0c:09:7b:68:41:92:6e:a8:a9:de:30:
         0e:86:c1:de:00:ee:44:b4:d6:70:45:a1:bf:f8:17:e5:31:35:
         ee:ed:03:38:48:76:c2:51:a3:39:9f:54:61:3f:d4:35:d6:64:
         b5:4c:4b:df:1c:4a:4c:cd
-----BEGIN CERTIFICATE-----
MIIG4DCCBMigAwIBAgIJALhWRShj3TMMMA0GCSqGSIb3DQEBDQUAMIGHMQswCQYD
VQQGEwJDSDEMMAoGA1UECBMDWnVnMQwwCgYDVQQHEwNadWcxGDAWBgNVBAoTD1Bl
cmZlY3QgUHJpdmFjeTEYMBYGA1UEAxMPUGVyZmVjdCBQcml2YWN5MSgwJgYJKoZI
hvcNAQkBFhlhZG1pbkBwZXJmZWN0LXByaXZhY3kuY29tMB4XDTIzMDExNjAwMDAw
MFoXDTI0MDkxMjAwMDAwMFowgYsxCzAJBgNVBAYTAkNIMQwwCgYDVQQIEwNadWcx
GDAWBgNVBAoTD1BlcmZlY3QgUHJpdmFjeTEqMCgGA1UEAxQhQ2xpZW50X3N5ZG5l
eS5wZXJmZWN0LXByaXZhY3kuY29tMSgwJgYJKoZIhvcNAQkBFhlhZG1pbkBwZXJm
ZWN0LXByaXZhY3kuY29tMIICIjANBgkqhkiG9w0BAQEFAAOCAg8AMIICCgKCAgEA
q3NjSUxwFTBBEhiQXWXm/rWbe+YF5pb42/7niDht1tfpZBoPUcQxjg8XXEuttei5
7Y3v63jSL6n4lqbAikPSZjTQAjE9XSTgm1AMvC0PA4OUmVi7BOj20smzRsiUTwdT
Ip4r4S3VRIqR21pk+smjY0i/56XmA2eWVCh9NQ5DBZco+uIMlYWuRQdwPEFutkCz
Qq/Z7LKI0D7Ht6cAQkCXvJ9NybCqjubjYWPwF9GDiXFjpfS80RNUpCiAou2LLkVh
2E2ojZ8xhjZB73L4W4dco7lZWrrTiQWe08iW7nrv/scRjYh74NArw6aQGFfy9ji/
0DZ8BzBb2hTb31tkUK8FTDEgkvBbGMmW30vu/343YqLGXX51s+L1STUPhwQatOTD
YMUB+ohctkYgaywmtlfKgWnqasosFjwXJ/U3ixo8bDRI4Y9RLkp1YhroXu2O4lfL
QddorMvcCjFVO+k3kWbc2X4KgcHXX+xpnmBJp8dHYQSinAlUz8IuTNETUe7xtjq9
vN43+BTV57CdQ6K3KaVdZ0OFZPjWKgvaxtNwy23WchyRrqYmR/B7BfJa+5HPLAEp
DFxb1tSWDLMOiNbSUxdpUAOj5yyHMY98P0fkWaEJ14swVoh+/NSSl3/T9hmmVl1U
qtIs2+/kpsCBK5tkYctyAvavsTEUwb32XfKl1/st2kECAwEAAaOCAUcwggFDMAkG
A1UdEwQCMAAwIwYJYIZIAYb4QgENBBYWFFZQTiBVc2VyIENlcnRpZmljYXRlMBEG
CWCGSAGG+EIBAQQEAwIHgDALBgNVHQ8EBAMCB4AwEwYDVR0lBAwwCgYIKwYBBQUH
AwIwHQYDVR0OBBYEFHKvCAsvyNPjX1uYA8LrOWLblcV0MIG8BgNVHSMEgbQwgbGA
FIZPuG0YKhs8jyc0KfCBn7puYQ7hoYGNpIGKMIGHMQswCQYDVQQGEwJDSDEMMAoG
A1UECBMDWnVnMQwwCgYDVQQHEwNadWcxGDAWBgNVBAoTD1BlcmZlY3QgUHJpdmFj
eTEYMBYGA1UEAxMPUGVyZmVjdCBQcml2YWN5MSgwJgYJKoZIhvcNAQkBFhlhZG1p
bkBwZXJmZWN0LXByaXZhY3kuY29tggkA+hG1xKppr2kwDQYJKoZIhvcNAQENBQAD
ggIBACLu90WhX6B2/uzN6hXJtYls38A/Wu3dwTtmIPsXmsmqTc/F/t6dKwb2hT9R
CA6g/njD/UG8G2IZjqURIvZN9lay+GXvQ1Pscy126tfSb/9uTNdHfE2qhUxtcS/H
GgX/pMwWpHlNbqOh2J0f9GxB/Q7j5MyIa1RssAZZCa4cwW+ycE5WhwaBRIbmR4Hf
jos7aFWwPjBYUCVAiH//l9WDxtQ14FwQWS01+vsur/6CyRAa4j4pU1EV3CZmrIhH
w+fZHha/KHokEHsgIedTh9yFlXA2jFeao1rxZsO3cSFw98JVTEgLhNyh4Uu9UYJS
mowUMnyLPd4aIimPzR0c+6RNte6ugED6hJBeqeerI5PYvxhGsbFdGRp0lM86E345
xSpT3DwMH5W6x6J+Ox/RgJR3+YDMVyqhJ/EMni2G6Bk18IfjnWvj4oKaOHeQks1G
KQC4BGiNbgB9lrVs7ixGwMFqDkxPrST/SrryKNzMWje6B+J4/D6KR77uw0Ygml5U
ab2hcWuyoS5biC456HQbCvXVy62Yj93QL9vINWG/zLIN9L3Q2Bf5JkgFrvGnnfvo
M19px9IRfAkHviIz8Dg24TNN/G3/4QTIHhg3hGEMCXtoQZJuqKneMA6Gwd4A7kS0
1nBFob/4F+UxNe7tAzhIdsJRozmfVGE/1DXWZLVMS98cSkzN
-----END CERTIFICATE-----
