Certificate:
    Data:
        Version: 3 (0x2)
        Serial Number:
            c6:74:08:14:31:fa:e9:b1
    Signature Algorithm: sha512WithRSAEncryption
        Issuer: C=CH, ST=Zug, L=Zug, O=Perfect Privacy, CN=Perfect Privacy/emailAddress=admin@perfect-privacy.com
        Validity
            Not Before: Mar 13 00:00:00 2023 GMT
            Not After : Nov  7 00:00:00 2024 GMT
        Subject: C=CH, ST=Zug, O=Perfect Privacy, CN=Client_sydney.perfect-privacy.com/emailAddress=admin@perfect-privacy.com
        Subject Public Key Info:
            Public Key Algorithm: rsaEncryption
                Public-Key: (4096 bit)
                Modulus:
                    00:b3:ef:95:b7:85:09:a2:87:b1:d2:c7:af:00:69:
                    58:21:5f:b5:52:a4:f9:f7:2c:24:78:94:ca:76:86:
                    35:d5:d7:9d:c3:66:22:86:74:c1:99:ca:87:55:5a:
                    72:39:d9:33:29:39:ad:b0:5d:8f:7f:15:7a:ea:8a:
                    7b:0e:e2:72:a2:f4:bb:e2:c7:25:ec:28:8b:36:cc:
                    be:2c:9c:cc:95:f1:0a:e1:89:62:b6:b9:17:a1:a1:
                    f9:d8:3b:1d:73:22:88:10:e1:91:68:f3:b3:15:fb:
                    ac:e2:ae:c0:ae:24:95:6d:1e:ad:5e:05:c1:12:c1:
                    32:b4:a0:49:20:60:cc:4a:fc:e5:3e:85:e4:b9:b4:
                    28:ab:71:62:5e:a8:c5:50:12:ff:42:3f:d4:35:d3:
                    a7:81:0b:7f:df:f0:28:25:12:7d:13:52:be:1a:4c:
                    71:27:b3:b6:9e:fd:b3:6c:17:6c:e6:f1:ee:7f:d2:
                    ab:d2:85:16:b1:1b:f1:39:14:c7:01:31:cf:a2:c5:
                    7c:9c:1c:7a:50:28:28:02:fd:03:6c:87:ed:1b:90:
                    f2:96:35:bc:06:be:73:58:0e:21:57:38:bd:61:4e:
                    3c:e8:28:42:6a:ac:4d:67:13:02:34:ee:a1:ab:9f:
                    92:25:99:f8:c8:7b:1c:b2:81:9e:a9:f9:5f:a5:78:
                    9b:ee:20:0d:8e:68:64:cc:2f:64:e1:7c:d5:ca:53:
                    ca:ff:80:f6:c3:bc:75:4b:ac:db:92:29:e2:4d:35:
                    e6:5e:da:ab:cf:ab:12:46:09:98:99:04:30:2f:70:
                    e8:3a:d8:64:e7:f6:14:59:3f:13:68:5d:26:2c:ba:
                    26:94:f7:74:4d:0e:09:b3:12:4c:c0:d2:4b:f2:4c:
                    9d:ab:78:44:1d:fa:bd:29:48:94:ae:87:9e:72:ea:
                    0c:df:96:0d:ff:a8:e8:98:9b:11:df:1f:2e:7f:f8:
                    5f:6d:74:51:30:08:e8:cb:71:a2:c0:8d:5f:1e:80:
                    32:c1:60:72:c9:c7:04:83:45:01:12:35:c0:7a:46:
                    99:a4:39:87:7a:ed:6f:36:c6:89:8c:93:78:fd:52:
                    1f:df:81:ba:df:0b:0d:b2:68:84:ae:69:88:6b:1c:
                    99:b3:a2:dd:2b:1c:e1:ee:60:9d:e1:74:bc:0b:33:
                    be:c9:e0:25:c7:16:3e:ad:b4:d5:65:00:00:3a:60:
                    5c:ba:a7:62:ac:54:b7:4f:46:f9:32:4a:e4:52:fc:
                    8b:30:66:36:7c:c5:53:34:75:21:0c:f6:84:5a:fd:
                    30:55:70:5e:01:3d:9d:8c:28:22:83:a4:c9:b2:5e:
                    f2:a3:34:d1:2b:81:ee:2f:6f:c6:bd:7e:53:66:e3:
                    88:53:51
                Exponent: 65537 (0x10001)
        X509v3 extensions:
            X509v3 Basic Constraints: 
                CA:FALSE
            Netscape Comment: 
                VPN User Certificate
            Netscape Cert Type: 
                SSL Client
            X509v3 Key Usage: 
                Digital Signature
            X509v3 Extended Key Usage: 
                TLS Web Client Authentication
            X509v3 Subject Key Identifier: 
                8A:05:EF:42:E9:E9:0F:EF:B9:DF:33:B6:CB:F1:07:B9:6E:E5:6B:4F
            X509v3 Authority Key Identifier: 
                keyid:86:4F:B8:6D:18:2A:1B:3C:8F:27:34:29:F0:81:9F:BA:6E:61:0E:E1
                DirName:/C=CH/ST=Zug/L=Zug/O=Perfect Privacy/CN=Perfect Privacy/emailAddress=admin@perfect-privacy.com
                serial:FA:11:B5:C4:AA:69:AF:69

    Signature Algorithm: sha512WithRSAEncryption
         9e:93:93:17:b1:4a:b6:b4:1c:8c:98:f4:07:a2:c4:1d:67:80:
         a4:bd:4c:3c:0e:ca:42:81:92:ef:1e:03:37:bb:13:8d:cd:8c:
         22:54:53:a8:01:6f:51:81:0f:e8:1c:1e:ea:a9:83:02:31:da:
         de:f4:64:a2:99:f8:c2:23:d7:50:af:8f:f0:e2:f2:bf:11:66:
         a6:0b:2f:ed:bd:58:ea:56:28:cf:80:22:8c:fd:85:0a:d5:23:
         82:1a:fd:ad:4d:ea:5b:78:22:94:5e:97:06:cb:cf:83:56:ad:
         7a:63:f7:07:e5:17:9e:26:d7:37:cd:e7:dc:8f:ae:00:64:43:
         06:ea:6c:54:e3:b0:ea:10:8a:40:07:74:68:ea:68:6b:8f:ee:
         03:53:7c:19:b2:9b:8d:c0:80:01:6e:bf:0d:38:a8:ce:ce:39:
         ff:9b:f9:c6:11:e0:1f:01:46:88:ff:f1:bf:84:2f:3f:b1:3a:
         85:08:d3:b6:6a:e0:f6:73:62:e2:8b:e3:33:9c:07:3d:17:9a:
         9a:4a:f5:aa:fd:6e:c8:5f:46:36:2e:fd:da:e0:7b:51:fd:ac:
         0c:3e:73:67:cb:f5:9a:26:42:02:e7:f0:6f:ca:02:01:a3:f1:
         20:04:d6:11:18:34:6e:a2:fd:62:fe:6c:df:f9:34:dd:f9:4e:
         03:c0:dc:f0:d7:e3:98:e0:a5:65:69:19:71:dd:30:6f:e4:fd:
         b3:fc:55:53:0c:4e:55:a2:fd:22:3e:5f:6c:da:b7:09:37:5a:
         00:0e:2b:bc:06:7c:e3:c6:50:ac:ae:d8:61:89:72:c7:63:b0:
         bf:ff:47:93:62:94:70:20:9b:02:4d:b5:10:e8:78:87:02:8e:
         63:9c:ce:a4:a0:b5:83:ea:5e:af:3a:ee:5f:e4:ec:57:99:9b:
         e0:bc:2c:be:03:17:c5:57:8d:4c:29:80:61:e1:0c:0f:65:78:
         9e:7f:2d:e5:5b:77:9b:2f:fd:30:be:33:cd:c3:8c:df:bf:06:
         f3:7e:9d:81:a4:d9:30:7e:d7:3d:2e:de:25:ce:e7:5a:d2:9a:
         44:ce:8a:c6:53:b6:c7:8b:fb:63:3d:8d:4b:82:1d:e2:06:78:
         63:1a:19:d9:c1:ae:82:08:85:74:2e:77:49:bb:a3:eb:f8:45:
         8a:ac:80:d2:a9:f3:f3:56:ae:45:13:b1:a9:d0:43:4d:f8:d9:
         b4:db:cd:27:e0:96:8b:5c:4a:b5:e4:e2:75:f8:1a:8e:9f:5d:
         b8:dc:5c:8d:49:44:eb:be:67:e1:4e:b6:a3:c8:e6:1d:74:66:
         04:59:16:19:a1:ef:7e:e3:0f:ed:ef:7c:bb:25:20:ce:6c:ea:
         fd:38:dc:af:06:e8:b6:45
-----BEGIN CERTIFICATE-----
MIIG4DCCBMigAwIBAgIJAMZ0CBQx+umxMA0GCSqGSIb3DQEBDQUAMIGHMQswCQYD
VQQGEwJDSDEMMAoGA1UECBMDWnVnMQwwCgYDVQQHEwNadWcxGDAWBgNVBAoTD1Bl
cmZlY3QgUHJpdmFjeTEYMBYGA1UEAxMPUGVyZmVjdCBQcml2YWN5MSgwJgYJKoZI
hvcNAQkBFhlhZG1pbkBwZXJmZWN0LXByaXZhY3kuY29tMB4XDTIzMDMxMzAwMDAw
MFoXDTI0MTEwNzAwMDAwMFowgYsxCzAJBgNVBAYTAkNIMQwwCgYDVQQIEwNadWcx
GDAWBgNVBAoTD1BlcmZlY3QgUHJpdmFjeTEqMCgGA1UEAxQhQ2xpZW50X3N5ZG5l
eS5wZXJmZWN0LXByaXZhY3kuY29tMSgwJgYJKoZIhvcNAQkBFhlhZG1pbkBwZXJm
ZWN0LXByaXZhY3kuY29tMIICIjANBgkqhkiG9w0BAQEFAAOCAg8AMIICCgKCAgEA
s++Vt4UJooex0sevAGlYIV+1UqT59ywkeJTKdoY11dedw2YihnTBmcqHVVpyOdkz
KTmtsF2PfxV66op7DuJyovS74scl7CiLNsy+LJzMlfEK4YlitrkXoaH52DsdcyKI
EOGRaPOzFfus4q7AriSVbR6tXgXBEsEytKBJIGDMSvzlPoXkubQoq3FiXqjFUBL/
Qj/UNdOngQt/3/AoJRJ9E1K+GkxxJ7O2nv2zbBds5vHuf9Kr0oUWsRvxORTHATHP
osV8nBx6UCgoAv0DbIftG5DyljW8Br5zWA4hVzi9YU486ChCaqxNZxMCNO6hq5+S
JZn4yHscsoGeqflfpXib7iANjmhkzC9k4XzVylPK/4D2w7x1S6zbkiniTTXmXtqr
z6sSRgmYmQQwL3DoOthk5/YUWT8TaF0mLLomlPd0TQ4JsxJMwNJL8kydq3hEHfq9
KUiUroeecuoM35YN/6jomJsR3x8uf/hfbXRRMAjoy3GiwI1fHoAywWByyccEg0UB
EjXAekaZpDmHeu1vNsaJjJN4/VIf34G63wsNsmiErmmIaxyZs6LdKxzh7mCd4XS8
CzO+yeAlxxY+rbTVZQAAOmBcuqdirFS3T0b5MkrkUvyLMGY2fMVTNHUhDPaEWv0w
VXBeAT2djCgig6TJsl7yozTRK4HuL2/GvX5TZuOIU1ECAwEAAaOCAUcwggFDMAkG
A1UdEwQCMAAwIwYJYIZIAYb4QgENBBYWFFZQTiBVc2VyIENlcnRpZmljYXRlMBEG
CWCGSAGG+EIBAQQEAwIHgDALBgNVHQ8EBAMCB4AwEwYDVR0lBAwwCgYIKwYBBQUH
AwIwHQYDVR0OBBYEFIoF70Lp6Q/vud8ztsvxB7lu5WtPMIG8BgNVHSMEgbQwgbGA
FIZPuG0YKhs8jyc0KfCBn7puYQ7hoYGNpIGKMIGHMQswCQYDVQQGEwJDSDEMMAoG
A1UECBMDWnVnMQwwCgYDVQQHEwNadWcxGDAWBgNVBAoTD1BlcmZlY3QgUHJpdmFj
eTEYMBYGA1UEAxMPUGVyZmVjdCBQcml2YWN5MSgwJgYJKoZIhvcNAQkBFhlhZG1p
bkBwZXJmZWN0LXByaXZhY3kuY29tggkA+hG1xKppr2kwDQYJKoZIhvcNAQENBQAD
ggIBAJ6TkxexSra0HIyY9AeixB1ngKS9TDwOykKBku8eAze7E43NjCJUU6gBb1GB
D+gcHuqpgwIx2t70ZKKZ+MIj11Cvj/Di8r8RZqYLL+29WOpWKM+AIoz9hQrVI4Ia
/a1N6lt4IpRelwbLz4NWrXpj9wflF54m1zfN59yPrgBkQwbqbFTjsOoQikAHdGjq
aGuP7gNTfBmym43AgAFuvw04qM7OOf+b+cYR4B8BRoj/8b+ELz+xOoUI07Zq4PZz
YuKL4zOcBz0XmppK9ar9bshfRjYu/drge1H9rAw+c2fL9ZomQgLn8G/KAgGj8SAE
1hEYNG6i/WL+bN/5NN35TgPA3PDX45jgpWVpGXHdMG/k/bP8VVMMTlWi/SI+X2za
twk3WgAOK7wGfOPGUKyu2GGJcsdjsL//R5NilHAgmwJNtRDoeIcCjmOczqSgtYPq
Xq867l/k7FeZm+C8LL4DF8VXjUwpgGHhDA9leJ5/LeVbd5sv/TC+M83DjN+/BvN+
nYGk2TB+1z0u3iXO51rSmkTOisZTtseL+2M9jUuCHeIGeGMaGdnBroIIhXQud0m7
o+v4RYqsgNKp8/NWrkUTsanQQ0342bTbzSfglotcSrXk4nX4Go6fXbjcXI1JROu+
Z+FOtqPI5h10ZgRZFhmh737jD+3vfLslIM5s6v043K8G6LZF
-----END CERTIFICATE-----
