Certificate:
    Data:
        Version: 3 (0x2)
        Serial Number: 8483972906730934026 (0x75bd20689dbc4f0a)
    Signature Algorithm: sha512WithRSAEncryption
        Issuer: C=CH, ST=Zug, L=Zug, O=Perfect Privacy, CN=Perfect Privacy/emailAddress=admin@perfect-privacy.com
        Validity
            Not Before: Jul 24 00:00:00 2023 GMT
            Not After : Mar 20 00:00:00 2025 GMT
        Subject: C=CH, ST=Zug, O=Perfect Privacy, CN=Client_sydney.perfect-privacy.com/emailAddress=admin@perfect-privacy.com
        Subject Public Key Info:
            Public Key Algorithm: rsaEncryption
                Public-Key: (4096 bit)
                Modulus:
                    00:e1:e9:2d:7e:b5:13:74:d5:d7:8d:a0:52:43:75:
                    f1:38:2c:5c:c6:1d:3e:90:eb:b6:a5:1b:09:ed:98:
                    09:a3:47:b5:a1:86:38:29:ec:2d:16:28:5b:b5:17:
                    ec:8f:b3:ec:80:db:13:96:de:e6:e1:2c:be:c8:9a:
                    5d:e1:6b:23:65:19:a6:69:88:fe:e3:6d:5c:6b:91:
                    bf:61:45:03:57:9a:e5:b6:ba:25:fd:52:27:3c:6d:
                    f7:d8:3f:1a:4d:9d:41:56:94:29:15:73:3c:4f:43:
                    b6:99:6b:97:00:63:98:d3:21:59:40:17:48:60:01:
                    26:09:92:5d:3c:59:58:10:da:4d:8c:bf:bf:61:1e:
                    c8:3d:67:54:91:fc:25:03:e5:53:63:bd:84:b2:cc:
                    80:c6:12:d7:99:d6:08:30:d7:d4:d5:c1:19:22:b8:
                    ef:68:ee:f4:39:c0:7d:98:13:52:b5:a2:b2:88:d3:
                    32:a0:2e:05:5f:89:aa:4f:68:a1:df:a9:e7:68:4f:
                    9f:af:1a:15:38:1f:20:e7:96:b5:42:d4:ba:cc:b3:
                    c7:32:0e:eb:bd:00:64:f5:79:f9:76:29:55:45:7d:
                    cc:b4:f0:46:5e:24:1d:29:40:1b:7d:6a:3f:e3:5f:
                    b7:0e:32:17:ea:c3:9e:b2:85:48:7c:e1:a0:87:f5:
                    b4:55:18:e8:ac:7f:a8:34:98:04:27:88:83:d2:2d:
                    14:79:6e:bf:96:98:88:b1:30:99:8a:1e:db:ed:45:
                    ad:b4:e0:08:77:e7:41:52:aa:e7:d1:c1:24:f2:8a:
                    34:91:e8:aa:e0:cb:6f:40:4a:79:61:18:25:ef:bd:
                    8f:28:53:88:5d:90:1f:2f:38:fd:26:0e:a2:e5:c3:
                    66:72:4e:41:75:87:87:a1:48:77:17:6e:be:a9:04:
                    68:47:c9:72:03:db:c4:7d:66:94:7b:35:1a:6e:56:
                    f3:0c:7d:92:38:f7:b1:67:ea:5a:32:7c:b2:a1:6d:
                    d0:02:96:9d:f4:0f:b6:4e:96:51:e2:79:5e:fd:9c:
                    69:02:44:b7:57:9a:95:28:cf:bd:a5:68:e2:51:5c:
                    d4:4c:bd:d7:f6:cf:94:91:90:1f:ab:8d:7f:11:ac:
                    50:ed:ab:81:46:ac:a7:cd:5b:dd:0f:2b:dc:86:56:
                    ba:1e:bf:e8:d0:82:f1:5e:33:31:2c:04:6d:1b:f1:
                    1d:b4:d9:e9:fb:ab:24:db:27:fb:cc:35:77:88:eb:
                    c4:2a:94:34:2b:44:1e:2d:7a:0e:7e:5e:38:40:9f:
                    c7:5e:04:fc:c2:85:be:37:0a:0b:66:2b:79:ad:76:
                    78:06:0c:c2:d1:28:17:31:a8:6f:51:b7:fa:06:b8:
                    ce:0b:77
                Exponent: 65537 (0x10001)
        X509v3 extensions:
            X509v3 Basic Constraints: 
                CA:FALSE
            Netscape Comment: 
                VPN User Certificate
            Netscape Cert Type: 
                SSL Client
            X509v3 Key Usage: 
                Digital Signature
            X509v3 Extended Key Usage: 
                TLS Web Client Authentication
            X509v3 Subject Key Identifier: 
                37:93:70:EE:65:2F:A3:7A:F4:AF:E4:25:9A:C4:01:4F:AC:B5:F3:55
            X509v3 Authority Key Identifier: 
                keyid:86:4F:B8:6D:18:2A:1B:3C:8F:27:34:29:F0:81:9F:BA:6E:61:0E:E1
                DirName:/C=CH/ST=Zug/L=Zug/O=Perfect Privacy/CN=Perfect Privacy/emailAddress=admin@perfect-privacy.com
                serial:FA:11:B5:C4:AA:69:AF:69

    Signature Algorithm: sha512WithRSAEncryption
         52:7f:2d:4a:47:5c:3d:96:fb:ee:70:0b:3b:44:e4:a9:a8:ce:
         55:4e:62:e8:85:42:17:c2:0d:83:1a:b4:1c:18:92:f0:ad:0e:
         9a:bf:91:b8:fd:12:92:c9:74:29:22:77:fa:ba:f8:5f:97:14:
         02:08:a5:6b:a4:af:5d:94:17:51:f3:94:71:1f:bf:e0:ff:d5:
         3b:84:01:2f:0a:5a:88:bd:ae:27:09:d0:ef:e6:89:d0:36:bf:
         02:ce:c4:04:5c:e6:d5:95:56:8f:e2:10:92:2b:a2:54:7b:08:
         bd:bd:dc:28:bf:87:a6:48:5a:73:d0:b2:dc:a6:f2:c7:62:5b:
         69:d2:2c:97:5c:38:6c:18:55:e3:98:cc:ff:ef:79:eb:68:05:
         6e:ce:67:1d:c1:6c:da:50:10:b3:92:f6:01:d9:29:f6:43:73:
         5a:11:a3:17:94:59:80:30:13:1d:81:32:3a:d5:37:53:67:09:
         ad:08:21:4c:d9:35:b5:5e:58:06:d8:f7:88:ca:1d:5e:33:6c:
         19:aa:e0:41:a5:3a:39:17:54:aa:31:09:c8:ab:e2:eb:86:e9:
         af:1b:05:92:70:52:d2:af:ff:28:68:66:85:0a:3e:0b:b4:8f:
         6b:e7:75:7a:42:68:fa:77:ec:80:39:dd:55:d9:2c:9d:91:46:
         99:f7:a5:84:ce:80:40:96:36:ad:4c:e5:6a:2b:2c:e8:f1:af:
         36:46:41:95:85:12:cc:14:1d:e7:97:50:e9:56:68:e7:54:9f:
         f5:29:60:6a:01:47:1f:5e:bb:cf:d6:32:98:b0:1f:0c:d5:1f:
         1d:69:af:19:8f:a4:74:56:73:78:b1:8f:81:84:b3:d6:5a:e1:
         31:5a:d1:18:f8:32:42:44:d2:d9:e6:b5:e2:7d:3d:bb:9d:c0:
         db:a7:75:72:9e:3d:8c:41:0f:c0:a4:64:bd:79:b5:47:ad:00:
         d2:a6:86:4f:57:75:e9:88:12:f7:8f:6c:36:ae:e7:1d:34:c8:
         88:77:93:c3:03:60:ca:b6:4a:4b:f4:6c:ea:f8:d8:af:c5:f7:
         af:dd:f1:d8:a5:0b:d2:07:d0:9d:a6:4c:5a:dd:47:67:f5:6b:
         eb:5c:7e:30:b3:7a:5d:92:0a:15:e7:ec:5e:04:bf:09:66:20:
         93:4e:c1:f7:84:02:f1:aa:33:8f:e6:94:14:ad:f4:32:9d:a6:
         e7:28:d3:b1:bf:f4:f6:67:84:73:b6:f8:d3:b5:50:76:43:cd:
         ce:53:e1:5d:3b:40:5b:19:77:62:df:43:fd:86:b4:3b:2c:23:
         a5:9c:03:12:3a:cd:68:54:f2:11:59:48:de:e0:45:05:f5:60:
         cf:fa:d6:a7:45:09:fb:9a
-----BEGIN CERTIFICATE-----
MIIG3zCCBMegAwIBAgIIdb0gaJ28TwowDQYJKoZIhvcNAQENBQAwgYcxCzAJBgNV
BAYTAkNIMQwwCgYDVQQIEwNadWcxDDAKBgNVBAcTA1p1ZzEYMBYGA1UEChMPUGVy
ZmVjdCBQcml2YWN5MRgwFgYDVQQDEw9QZXJmZWN0IFByaXZhY3kxKDAmBgkqhkiG
9w0BCQEWGWFkbWluQHBlcmZlY3QtcHJpdmFjeS5jb20wHhcNMjMwNzI0MDAwMDAw
WhcNMjUwMzIwMDAwMDAwWjCBizELMAkGA1UEBhMCQ0gxDDAKBgNVBAgTA1p1ZzEY
MBYGA1UEChMPUGVyZmVjdCBQcml2YWN5MSowKAYDVQQDFCFDbGllbnRfc3lkbmV5
LnBlcmZlY3QtcHJpdmFjeS5jb20xKDAmBgkqhkiG9w0BCQEWGWFkbWluQHBlcmZl
Y3QtcHJpdmFjeS5jb20wggIiMA0GCSqGSIb3DQEBAQUAA4ICDwAwggIKAoICAQDh
6S1+tRN01deNoFJDdfE4LFzGHT6Q67alGwntmAmjR7Whhjgp7C0WKFu1F+yPs+yA
2xOW3ubhLL7Iml3hayNlGaZpiP7jbVxrkb9hRQNXmuW2uiX9Uic8bffYPxpNnUFW
lCkVczxPQ7aZa5cAY5jTIVlAF0hgASYJkl08WVgQ2k2Mv79hHsg9Z1SR/CUD5VNj
vYSyzIDGEteZ1ggw19TVwRkiuO9o7vQ5wH2YE1K1orKI0zKgLgVfiapPaKHfqedo
T5+vGhU4HyDnlrVC1LrMs8cyDuu9AGT1efl2KVVFfcy08EZeJB0pQBt9aj/jX7cO
Mhfqw56yhUh84aCH9bRVGOisf6g0mAQniIPSLRR5br+WmIixMJmKHtvtRa204Ah3
50FSqufRwSTyijSR6Krgy29ASnlhGCXvvY8oU4hdkB8vOP0mDqLlw2ZyTkF1h4eh
SHcXbr6pBGhHyXID28R9ZpR7NRpuVvMMfZI497Fn6loyfLKhbdAClp30D7ZOllHi
eV79nGkCRLdXmpUoz72laOJRXNRMvdf2z5SRkB+rjX8RrFDtq4FGrKfNW90PK9yG
Vroev+jQgvFeMzEsBG0b8R202en7qyTbJ/vMNXeI68QqlDQrRB4teg5+XjhAn8de
BPzChb43CgtmK3mtdngGDMLRKBcxqG9Rt/oGuM4LdwIDAQABo4IBRzCCAUMwCQYD
VR0TBAIwADAjBglghkgBhvhCAQ0EFhYUVlBOIFVzZXIgQ2VydGlmaWNhdGUwEQYJ
YIZIAYb4QgEBBAQDAgeAMAsGA1UdDwQEAwIHgDATBgNVHSUEDDAKBggrBgEFBQcD
AjAdBgNVHQ4EFgQUN5Nw7mUvo3r0r+QlmsQBT6y181UwgbwGA1UdIwSBtDCBsYAU
hk+4bRgqGzyPJzQp8IGfum5hDuGhgY2kgYowgYcxCzAJBgNVBAYTAkNIMQwwCgYD
VQQIEwNadWcxDDAKBgNVBAcTA1p1ZzEYMBYGA1UEChMPUGVyZmVjdCBQcml2YWN5
MRgwFgYDVQQDEw9QZXJmZWN0IFByaXZhY3kxKDAmBgkqhkiG9w0BCQEWGWFkbWlu
QHBlcmZlY3QtcHJpdmFjeS5jb22CCQD6EbXEqmmvaTANBgkqhkiG9w0BAQ0FAAOC
AgEAUn8tSkdcPZb77nALO0TkqajOVU5i6IVCF8INgxq0HBiS8K0Omr+RuP0Sksl0
KSJ3+rr4X5cUAgila6SvXZQXUfOUcR+/4P/VO4QBLwpaiL2uJwnQ7+aJ0Da/As7E
BFzm1ZVWj+IQkiuiVHsIvb3cKL+Hpkhac9Cy3Kbyx2JbadIsl1w4bBhV45jM/+95
62gFbs5nHcFs2lAQs5L2Adkp9kNzWhGjF5RZgDATHYEyOtU3U2cJrQghTNk1tV5Y
Btj3iModXjNsGargQaU6ORdUqjEJyKvi64bprxsFknBS0q//KGhmhQo+C7SPa+d1
ekJo+nfsgDndVdksnZFGmfelhM6AQJY2rUzlaiss6PGvNkZBlYUSzBQd55dQ6VZo
51Sf9SlgagFHH167z9YymLAfDNUfHWmvGY+kdFZzeLGPgYSz1lrhMVrRGPgyQkTS
2ea14n09u53A26d1cp49jEEPwKRkvXm1R60A0qaGT1d16YgS949sNq7nHTTIiHeT
wwNgyrZKS/Rs6vjYr8X3r93x2KUL0gfQnaZMWt1HZ/Vr61x+MLN6XZIKFefsXgS/
CWYgk07B94QC8aozj+aUFK30Mp2m5yjTsb/09meEc7b407VQdkPNzlPhXTtAWxl3
Yt9D/Ya0OywjpZwDEjrNaFTyEVlI3uBFBfVgz/rWp0UJ+5o=
-----END CERTIFICATE-----
