Certificate:
    Data:
        Version: 3 (0x2)
        Serial Number: 6259840347376960417 (0x56df6ba1400fc3a1)
    Signature Algorithm: sha512WithRSAEncryption
        Issuer: C=CH, ST=Zug, L=Zug, O=Perfect Privacy, CN=Perfect Privacy/emailAddress=admin@perfect-privacy.com
        Validity
            Not Before: Jun 28 00:00:00 2023 GMT
            Not After : Feb 22 00:00:00 2025 GMT
        Subject: C=CH, ST=Zug, O=Perfect Privacy, CN=Client_tokyo.perfect-privacy.com/emailAddress=admin@perfect-privacy.com
        Subject Public Key Info:
            Public Key Algorithm: rsaEncryption
                Public-Key: (4096 bit)
                Modulus:
                    00:b6:b5:1d:08:4a:f2:d8:af:43:aa:c0:38:0b:67:
                    62:b7:63:0d:b4:51:b5:7a:a2:d3:6e:00:f8:2e:b1:
                    86:8e:2f:ce:94:ca:32:06:a1:8f:75:ea:af:5d:84:
                    25:5d:ab:5b:fb:f4:a0:8b:5d:c1:a3:a2:5c:67:66:
                    8e:fe:e7:8b:32:6e:a4:03:ec:7c:cf:bb:d4:bf:93:
                    1d:a3:ac:7e:48:8d:ee:a1:20:3e:c7:94:85:af:5d:
                    5b:d8:18:e5:d0:24:49:88:f3:05:10:52:e3:32:1a:
                    1f:98:dd:20:8e:47:d7:1e:e3:f0:ca:de:d1:7d:fd:
                    a9:11:33:ce:4c:99:22:f1:b4:ff:81:56:2e:32:22:
                    22:6d:5a:4e:2a:34:90:70:0d:56:5e:0a:d1:f4:8a:
                    58:80:b7:4e:4a:aa:2a:4f:70:60:66:c2:26:38:c9:
                    a4:61:bd:c9:a5:a0:ed:91:37:08:3f:65:b2:c1:c4:
                    6f:0f:40:da:e9:b6:f4:93:42:b2:8c:34:37:b3:09:
                    11:78:47:8d:5e:41:d7:b2:1d:48:60:2f:fb:17:71:
                    53:7f:4f:92:5b:92:15:10:11:d3:15:e4:18:d7:1a:
                    de:82:1f:f6:8d:39:6a:32:8d:2f:fc:03:6b:8a:0f:
                    67:48:82:58:37:aa:c4:6e:d6:b0:94:e0:6f:fd:c6:
                    ba:c9:6d:ff:0c:84:3e:a6:f5:24:03:61:03:a9:e4:
                    dd:18:c1:ea:f4:21:91:95:9f:cd:48:f9:a1:5c:e1:
                    c7:08:26:58:cc:6a:ed:1c:51:43:88:ad:85:97:8e:
                    51:da:45:d8:8b:78:ee:0e:12:11:c6:ba:1f:7e:39:
                    d6:f0:1d:d0:38:5b:5f:3f:0a:ec:bb:d6:1a:dd:c8:
                    8b:ca:4d:d8:b0:42:e6:75:07:0c:e0:df:97:21:e9:
                    8a:8e:a8:54:c5:42:df:b4:8d:8e:31:fe:39:8b:62:
                    42:2d:b4:14:3d:5b:8c:65:81:a8:97:99:46:4e:b3:
                    d0:c6:89:67:17:24:08:ee:d6:5d:fb:65:9a:c6:f1:
                    b4:d1:8b:b3:29:dc:1a:d1:35:12:3d:83:55:06:9f:
                    64:55:c7:3e:8f:53:a5:c0:b7:34:78:16:ad:ca:41:
                    02:cf:a3:c9:8e:b5:7b:cc:26:80:c9:b8:b7:69:8b:
                    90:c2:90:d5:99:35:c0:38:35:65:2f:3c:c0:31:dd:
                    61:b5:23:49:42:3e:7e:f3:04:dd:5d:6b:cb:12:ff:
                    1d:22:cc:92:83:45:66:7d:6d:08:c4:bb:02:ec:85:
                    2b:c9:9e:2f:ab:f9:03:c2:ae:cf:56:71:28:1f:4d:
                    58:44:c7:18:6e:ba:ff:5c:7b:e8:1d:41:89:c8:9a:
                    4a:f0:69
                Exponent: 65537 (0x10001)
        X509v3 extensions:
            X509v3 Basic Constraints: 
                CA:FALSE
            Netscape Comment: 
                VPN User Certificate
            Netscape Cert Type: 
                SSL Client
            X509v3 Key Usage: 
                Digital Signature
            X509v3 Extended Key Usage: 
                TLS Web Client Authentication
            X509v3 Subject Key Identifier: 
                9A:BD:3C:5B:7E:A1:DB:37:78:83:E0:CF:66:C7:99:50:56:DA:15:C9
            X509v3 Authority Key Identifier: 
                keyid:86:4F:B8:6D:18:2A:1B:3C:8F:27:34:29:F0:81:9F:BA:6E:61:0E:E1
                DirName:/C=CH/ST=Zug/L=Zug/O=Perfect Privacy/CN=Perfect Privacy/emailAddress=admin@perfect-privacy.com
                serial:FA:11:B5:C4:AA:69:AF:69

    Signature Algorithm: sha512WithRSAEncryption
         2f:2b:59:53:d6:59:f3:a0:e6:6c:e9:a9:c3:31:de:ec:15:ac:
         94:0b:13:2c:82:4f:d0:94:d0:be:ac:78:eb:dd:ad:68:e0:c6:
         ba:73:81:83:29:e7:71:d8:07:57:c6:bf:f2:34:5d:d8:d6:11:
         65:fe:4c:f4:a9:e0:3f:f5:fb:34:a5:7c:13:69:04:fe:b5:2e:
         e5:16:e5:a1:52:3b:d5:bd:c8:c2:29:1d:92:3e:19:1d:c8:b5:
         58:ef:b1:4c:ae:8a:ab:4f:3c:d1:2e:69:1d:0d:7a:be:dd:02:
         9c:a2:4c:aa:bc:04:bc:3c:7d:de:08:b6:11:9a:fd:6d:26:2f:
         f4:75:21:37:65:ec:5e:42:b8:c4:5b:99:db:e6:39:bf:32:08:
         54:51:76:8c:30:fc:49:bc:d1:36:40:be:9b:3f:02:2f:ac:52:
         12:ea:76:6d:c4:df:54:46:b2:b9:79:85:69:4d:9f:97:c7:2d:
         b0:1f:3b:24:00:14:f6:fc:ed:b1:b8:a4:78:d0:e9:63:5e:30:
         f4:c6:19:07:c1:10:d3:fc:55:5d:27:a0:a5:a5:33:3b:dc:c3:
         db:a3:65:c3:a0:10:3a:7a:29:84:ee:2f:ec:90:aa:29:48:47:
         71:f8:91:42:2a:70:26:ae:4c:b6:8e:e9:02:43:85:e2:27:5f:
         f7:c1:a7:84:13:62:ae:05:a7:2a:a7:54:4a:15:ac:72:f7:e1:
         1f:11:af:f1:c7:0f:93:28:9c:10:71:e5:cc:99:1d:d0:60:7f:
         66:1e:a8:9b:2a:fa:65:28:03:0e:32:e8:21:95:49:2f:10:f2:
         04:f1:19:72:51:1a:0b:3c:dc:0c:61:88:05:49:4d:32:7f:f0:
         79:71:56:72:02:84:19:0e:ff:3f:0e:21:61:2c:e9:ab:2b:2d:
         8d:71:b6:3f:22:a9:7f:ad:e5:ce:2b:b2:cd:62:e2:a6:0e:5e:
         cb:ee:df:1c:d9:c0:cf:82:60:c8:88:e7:06:7b:cc:e7:9b:70:
         eb:a7:14:ed:ae:06:ee:ce:c5:28:5c:3b:2a:01:43:6e:da:45:
         45:da:3d:a4:84:bf:2a:8e:5e:1e:e0:e4:40:48:e3:ea:bb:1b:
         39:c0:b1:02:d9:10:f9:be:a5:6c:35:63:0e:68:cd:3a:e3:6c:
         6a:7e:fb:bc:33:79:58:dd:fc:b4:ec:e5:fb:3e:54:01:e2:cd:
         35:73:90:51:b6:27:fa:fe:a8:51:cc:6b:8a:58:b3:73:2b:58:
         cb:2e:6a:e3:79:50:b6:88:28:27:7b:8a:16:7f:6c:0e:9c:3a:
         87:c1:51:1d:53:77:28:17:74:ac:46:42:37:ad:a0:23:bf:17:
         52:ec:19:aa:f4:4c:2d:fd
-----BEGIN CERTIFICATE-----
MIIG3jCCBMagAwIBAgIIVt9roUAPw6EwDQYJKoZIhvcNAQENBQAwgYcxCzAJBgNV
BAYTAkNIMQwwCgYDVQQIEwNadWcxDDAKBgNVBAcTA1p1ZzEYMBYGA1UEChMPUGVy
ZmVjdCBQcml2YWN5MRgwFgYDVQQDEw9QZXJmZWN0IFByaXZhY3kxKDAmBgkqhkiG
9w0BCQEWGWFkbWluQHBlcmZlY3QtcHJpdmFjeS5jb20wHhcNMjMwNjI4MDAwMDAw
WhcNMjUwMjIyMDAwMDAwWjCBijELMAkGA1UEBhMCQ0gxDDAKBgNVBAgTA1p1ZzEY
MBYGA1UEChMPUGVyZmVjdCBQcml2YWN5MSkwJwYDVQQDFCBDbGllbnRfdG9reW8u
cGVyZmVjdC1wcml2YWN5LmNvbTEoMCYGCSqGSIb3DQEJARYZYWRtaW5AcGVyZmVj
dC1wcml2YWN5LmNvbTCCAiIwDQYJKoZIhvcNAQEBBQADggIPADCCAgoCggIBALa1
HQhK8tivQ6rAOAtnYrdjDbRRtXqi024A+C6xho4vzpTKMgahj3Xqr12EJV2rW/v0
oItdwaOiXGdmjv7nizJupAPsfM+71L+THaOsfkiN7qEgPseUha9dW9gY5dAkSYjz
BRBS4zIaH5jdII5H1x7j8Mre0X39qREzzkyZIvG0/4FWLjIiIm1aTio0kHANVl4K
0fSKWIC3TkqqKk9wYGbCJjjJpGG9yaWg7ZE3CD9lssHEbw9A2um29JNCsow0N7MJ
EXhHjV5B17IdSGAv+xdxU39PkluSFRAR0xXkGNca3oIf9o05ajKNL/wDa4oPZ0iC
WDeqxG7WsJTgb/3Guslt/wyEPqb1JANhA6nk3RjB6vQhkZWfzUj5oVzhxwgmWMxq
7RxRQ4ithZeOUdpF2It47g4SEca6H3451vAd0DhbXz8K7LvWGt3Ii8pN2LBC5nUH
DODflyHpio6oVMVC37SNjjH+OYtiQi20FD1bjGWBqJeZRk6z0MaJZxckCO7WXftl
msbxtNGLsyncGtE1Ej2DVQafZFXHPo9TpcC3NHgWrcpBAs+jyY61e8wmgMm4t2mL
kMKQ1Zk1wDg1ZS88wDHdYbUjSUI+fvME3V1ryxL/HSLMkoNFZn1tCMS7AuyFK8me
L6v5A8Kuz1ZxKB9NWETHGG66/1x76B1BiciaSvBpAgMBAAGjggFHMIIBQzAJBgNV
HRMEAjAAMCMGCWCGSAGG+EIBDQQWFhRWUE4gVXNlciBDZXJ0aWZpY2F0ZTARBglg
hkgBhvhCAQEEBAMCB4AwCwYDVR0PBAQDAgeAMBMGA1UdJQQMMAoGCCsGAQUFBwMC
MB0GA1UdDgQWBBSavTxbfqHbN3iD4M9mx5lQVtoVyTCBvAYDVR0jBIG0MIGxgBSG
T7htGCobPI8nNCnwgZ+6bmEO4aGBjaSBijCBhzELMAkGA1UEBhMCQ0gxDDAKBgNV
BAgTA1p1ZzEMMAoGA1UEBxMDWnVnMRgwFgYDVQQKEw9QZXJmZWN0IFByaXZhY3kx
GDAWBgNVBAMTD1BlcmZlY3QgUHJpdmFjeTEoMCYGCSqGSIb3DQEJARYZYWRtaW5A
cGVyZmVjdC1wcml2YWN5LmNvbYIJAPoRtcSqaa9pMA0GCSqGSIb3DQEBDQUAA4IC
AQAvK1lT1lnzoOZs6anDMd7sFayUCxMsgk/QlNC+rHjr3a1o4Ma6c4GDKedx2AdX
xr/yNF3Y1hFl/kz0qeA/9fs0pXwTaQT+tS7lFuWhUjvVvcjCKR2SPhkdyLVY77FM
roqrTzzRLmkdDXq+3QKcokyqvAS8PH3eCLYRmv1tJi/0dSE3ZexeQrjEW5nb5jm/
MghUUXaMMPxJvNE2QL6bPwIvrFIS6nZtxN9URrK5eYVpTZ+Xxy2wHzskABT2/O2x
uKR40OljXjD0xhkHwRDT/FVdJ6ClpTM73MPbo2XDoBA6eimE7i/skKopSEdx+JFC
KnAmrky2jukCQ4XiJ1/3waeEE2KuBacqp1RKFaxy9+EfEa/xxw+TKJwQceXMmR3Q
YH9mHqibKvplKAMOMughlUkvEPIE8RlyURoLPNwMYYgFSU0yf/B5cVZyAoQZDv8/
DiFhLOmrKy2NcbY/Iql/reXOK7LNYuKmDl7L7t8c2cDPgmDIiOcGe8znm3DrpxTt
rgbuzsUoXDsqAUNu2kVF2j2khL8qjl4e4ORASOPquxs5wLEC2RD5vqVsNWMOaM06
42xqfvu8M3lY3fy07OX7PlQB4s01c5BRtif6/qhRzGuKWLNzK1jLLmrjeVC2iCgn
e4oWf2wOnDqHwVEdU3coF3SsRkI3raAjvxdS7Bmq9Ewt/Q==
-----END CERTIFICATE-----
