Certificate:
    Data:
        Version: 3 (0x2)
        Serial Number:
            dc:09:a1:79:5b:8c:36:bd
    Signature Algorithm: sha512WithRSAEncryption
        Issuer: C=CH, ST=Zug, L=Zug, O=Perfect Privacy, CN=Perfect Privacy/emailAddress=admin@perfect-privacy.com
        Validity
            Not Before: May 25 00:00:00 2024 GMT
            Not After : Jan 20 00:00:00 2026 GMT
        Subject: C=CH, ST=Zug, O=Perfect Privacy, CN=Client_tokyo.perfect-privacy.com/emailAddress=admin@perfect-privacy.com
        Subject Public Key Info:
            Public Key Algorithm: rsaEncryption
                Public-Key: (4096 bit)
                Modulus:
                    00:a9:8f:3e:ea:2e:08:d1:51:ca:aa:c5:19:34:2c:
                    46:ca:df:4d:06:3d:fe:c4:22:ff:02:cb:ff:9c:42:
                    57:49:42:71:ac:eb:87:77:58:2b:3a:86:a4:55:7c:
                    ca:2b:95:63:47:31:d0:6a:4d:95:47:12:b1:22:ea:
                    b2:8e:99:b2:f3:37:dc:8e:b6:f8:3f:be:09:1e:05:
                    ea:6f:0c:00:95:62:72:20:77:9a:be:3e:71:dc:dd:
                    de:29:bc:35:c1:26:14:4b:a5:ce:ec:07:c6:d3:6d:
                    b2:a8:31:1b:dd:0d:c2:22:d9:4e:16:0c:cd:bf:55:
                    8e:b5:c2:75:92:92:b4:c3:ad:99:fe:52:a3:f7:36:
                    bc:25:aa:59:ef:2c:19:33:2e:45:9f:ca:92:26:86:
                    a4:4d:83:8f:6d:e4:57:ce:49:e7:66:63:1e:eb:08:
                    7b:40:fa:a0:1a:f7:aa:e5:19:8e:2b:47:b6:fe:68:
                    f5:56:7c:5c:7e:bb:53:0e:1a:28:5b:b4:2f:16:a5:
                    07:83:fd:75:52:aa:a1:38:01:4b:71:eb:f6:7b:02:
                    5a:7c:db:d8:0a:d5:a5:c5:45:b5:64:9d:2b:9d:04:
                    d5:0b:89:2e:d0:0f:9b:6d:13:14:46:d9:be:d5:d0:
                    91:ae:0c:6b:d3:36:4f:07:9a:e8:f8:e1:d2:01:0b:
                    ee:17:51:8e:c5:89:10:18:db:31:3a:c0:12:b5:68:
                    c1:8d:41:56:ef:7e:16:43:f2:4e:4b:9c:8b:c5:d6:
                    08:76:6b:85:b6:18:90:ba:52:b4:04:0e:cc:ce:88:
                    f8:38:07:e4:4d:1a:13:69:8e:b8:ce:e9:ab:3e:15:
                    34:1a:24:9f:90:1f:84:92:b8:eb:70:98:e1:73:47:
                    b5:2e:b9:fb:3d:bb:b2:75:5d:bc:1f:d7:76:fd:02:
                    1e:1d:e0:1b:8c:d5:85:55:ce:c5:6e:43:df:dc:ec:
                    26:e3:4e:11:51:77:56:db:c6:bd:29:e9:21:c7:f2:
                    46:5a:91:6d:7e:a0:ac:41:01:14:15:cb:e3:8d:a3:
                    e1:f8:f9:dd:5a:16:0d:0e:4d:45:11:17:a6:27:7e:
                    43:73:20:5c:76:dc:5f:dd:02:87:d4:c5:5c:aa:b1:
                    8b:22:66:16:e5:1f:f2:f1:06:0c:b3:91:31:fc:cc:
                    89:3f:c4:94:b3:1d:f0:d3:f6:e4:e9:1e:cc:68:cb:
                    50:17:c5:80:50:b5:93:f3:50:15:cb:92:19:34:d3:
                    29:5a:9f:68:bc:5c:10:d9:0c:9d:dc:20:17:af:bb:
                    f3:38:a8:2c:3d:2e:5a:f3:b6:d2:fb:2c:37:d9:6b:
                    9a:dd:42:06:28:98:df:3f:5b:7e:7e:63:53:dc:d0:
                    36:f4:bf
                Exponent: 65537 (0x10001)
        X509v3 extensions:
            X509v3 Basic Constraints: 
                CA:FALSE
            Netscape Comment: 
                VPN User Certificate
            Netscape Cert Type: 
                SSL Client
            X509v3 Key Usage: 
                Digital Signature
            X509v3 Extended Key Usage: 
                TLS Web Client Authentication
            X509v3 Subject Key Identifier: 
                CE:4B:67:36:61:4F:EF:65:BE:81:E5:22:F5:E9:0A:9E:63:72:F8:19
            X509v3 Authority Key Identifier: 
                keyid:86:4F:B8:6D:18:2A:1B:3C:8F:27:34:29:F0:81:9F:BA:6E:61:0E:E1
                DirName:/C=CH/ST=Zug/L=Zug/O=Perfect Privacy/CN=Perfect Privacy/emailAddress=admin@perfect-privacy.com
                serial:FA:11:B5:C4:AA:69:AF:69

    Signature Algorithm: sha512WithRSAEncryption
         54:09:79:4b:9c:61:fa:de:fb:8c:ac:d9:c7:f6:91:3f:d3:76:
         cb:d6:40:30:72:53:bb:d6:f0:9c:c8:da:f4:ad:f8:bd:35:6d:
         3d:9e:70:e8:7b:7a:0a:39:a5:6a:26:9e:88:3d:cc:f0:ea:11:
         3f:0a:90:07:87:f4:3b:26:8f:a2:2f:6f:06:ed:14:39:d8:1d:
         e6:9a:59:36:8e:85:9f:ce:bc:7a:94:11:c7:bc:44:b0:2a:bd:
         e3:5a:ff:f1:6d:18:96:a1:c5:79:56:f8:d3:2d:ff:b1:42:de:
         d1:01:46:76:73:44:86:85:af:a2:85:8b:a4:36:93:bc:b3:08:
         b0:e9:25:f2:ee:0d:5f:db:15:35:4b:37:dd:1c:96:e9:43:10:
         32:5e:54:d8:dd:94:29:f5:41:cc:36:6f:ab:a3:4c:43:8d:86:
         45:67:91:ee:f2:55:69:40:1f:4a:09:ad:78:57:33:18:05:7b:
         13:eb:96:ab:3c:cc:37:74:f8:83:5b:fb:0e:00:d3:49:45:35:
         b8:89:3c:37:d4:59:70:07:a7:ef:4d:a3:b2:c0:7b:af:03:6a:
         20:a7:8e:28:6c:6e:f0:f2:2a:20:82:ef:d1:1c:3e:ea:93:6e:
         50:a2:ca:2f:c7:35:fb:91:a3:2f:c6:e5:39:7e:a7:e2:b2:bf:
         b9:17:f0:74:d5:d2:0f:00:ed:d1:47:88:ff:24:3b:4d:0f:97:
         4d:a3:8e:b2:53:1e:de:1e:e6:58:f0:71:be:5a:d3:bc:a7:2c:
         94:1e:f4:30:aa:7c:07:e2:39:22:50:15:65:2d:c1:0d:e0:b9:
         41:56:62:3c:21:f6:36:28:58:ce:1b:f0:e9:53:96:22:9a:d5:
         c4:04:4b:60:17:ae:bf:c0:15:89:62:80:e9:42:59:0f:61:b4:
         c2:9e:a3:d2:4a:f9:50:13:5c:43:f4:04:bb:99:4f:14:52:be:
         e7:e0:35:13:ae:7c:86:b6:7e:65:81:31:ed:8e:ce:fb:75:d4:
         52:32:c1:1d:d7:83:f6:03:16:14:0c:1a:44:33:7f:f2:e4:52:
         d9:1d:25:4d:f0:87:97:45:5c:d4:ad:87:32:5d:d8:e8:42:17:
         40:a9:37:c9:78:18:1a:45:46:49:30:32:c2:89:9f:9a:cc:98:
         96:0d:e8:e1:7f:27:10:41:9e:e3:29:a0:22:f6:2b:c6:3e:52:
         01:b0:39:bc:3c:0c:b3:27:a8:50:04:db:20:10:6f:c1:98:5f:
         01:da:c9:7f:30:cc:87:e9:8e:5e:f3:ce:48:f3:0b:30:79:50:
         09:96:7f:04:2f:04:4c:d5:af:0f:31:77:bd:1e:f8:42:4c:45:
         22:b9:8d:6a:2c:f4:cb:92
-----BEGIN CERTIFICATE-----
MIIG3zCCBMegAwIBAgIJANwJoXlbjDa9MA0GCSqGSIb3DQEBDQUAMIGHMQswCQYD
VQQGEwJDSDEMMAoGA1UECBMDWnVnMQwwCgYDVQQHEwNadWcxGDAWBgNVBAoTD1Bl
cmZlY3QgUHJpdmFjeTEYMBYGA1UEAxMPUGVyZmVjdCBQcml2YWN5MSgwJgYJKoZI
hvcNAQkBFhlhZG1pbkBwZXJmZWN0LXByaXZhY3kuY29tMB4XDTI0MDUyNTAwMDAw
MFoXDTI2MDEyMDAwMDAwMFowgYoxCzAJBgNVBAYTAkNIMQwwCgYDVQQIEwNadWcx
GDAWBgNVBAoTD1BlcmZlY3QgUHJpdmFjeTEpMCcGA1UEAxQgQ2xpZW50X3Rva3lv
LnBlcmZlY3QtcHJpdmFjeS5jb20xKDAmBgkqhkiG9w0BCQEWGWFkbWluQHBlcmZl
Y3QtcHJpdmFjeS5jb20wggIiMA0GCSqGSIb3DQEBAQUAA4ICDwAwggIKAoICAQCp
jz7qLgjRUcqqxRk0LEbK300GPf7EIv8Cy/+cQldJQnGs64d3WCs6hqRVfMorlWNH
MdBqTZVHErEi6rKOmbLzN9yOtvg/vgkeBepvDACVYnIgd5q+PnHc3d4pvDXBJhRL
pc7sB8bTbbKoMRvdDcIi2U4WDM2/VY61wnWSkrTDrZn+UqP3NrwlqlnvLBkzLkWf
ypImhqRNg49t5FfOSedmYx7rCHtA+qAa96rlGY4rR7b+aPVWfFx+u1MOGihbtC8W
pQeD/XVSqqE4AUtx6/Z7Alp829gK1aXFRbVknSudBNULiS7QD5ttExRG2b7V0JGu
DGvTNk8Hmuj44dIBC+4XUY7FiRAY2zE6wBK1aMGNQVbvfhZD8k5LnIvF1gh2a4W2
GJC6UrQEDszOiPg4B+RNGhNpjrjO6as+FTQaJJ+QH4SSuOtwmOFzR7Uuufs9u7J1
Xbwf13b9Ah4d4BuM1YVVzsVuQ9/c7CbjThFRd1bbxr0p6SHH8kZakW1+oKxBARQV
y+ONo+H4+d1aFg0OTUURF6YnfkNzIFx23F/dAofUxVyqsYsiZhblH/LxBgyzkTH8
zIk/xJSzHfDT9uTpHsxoy1AXxYBQtZPzUBXLkhk00ylan2i8XBDZDJ3cIBevu/M4
qCw9LlrzttL7LDfZa5rdQgYomN8/W35+Y1Pc0Db0vwIDAQABo4IBRzCCAUMwCQYD
VR0TBAIwADAjBglghkgBhvhCAQ0EFhYUVlBOIFVzZXIgQ2VydGlmaWNhdGUwEQYJ
YIZIAYb4QgEBBAQDAgeAMAsGA1UdDwQEAwIHgDATBgNVHSUEDDAKBggrBgEFBQcD
AjAdBgNVHQ4EFgQUzktnNmFP72W+geUi9ekKnmNy+BkwgbwGA1UdIwSBtDCBsYAU
hk+4bRgqGzyPJzQp8IGfum5hDuGhgY2kgYowgYcxCzAJBgNVBAYTAkNIMQwwCgYD
VQQIEwNadWcxDDAKBgNVBAcTA1p1ZzEYMBYGA1UEChMPUGVyZmVjdCBQcml2YWN5
MRgwFgYDVQQDEw9QZXJmZWN0IFByaXZhY3kxKDAmBgkqhkiG9w0BCQEWGWFkbWlu
QHBlcmZlY3QtcHJpdmFjeS5jb22CCQD6EbXEqmmvaTANBgkqhkiG9w0BAQ0FAAOC
AgEAVAl5S5xh+t77jKzZx/aRP9N2y9ZAMHJTu9bwnMja9K34vTVtPZ5w6Ht6Cjml
aiaeiD3M8OoRPwqQB4f0OyaPoi9vBu0UOdgd5ppZNo6Fn868epQRx7xEsCq941r/
8W0YlqHFeVb40y3/sULe0QFGdnNEhoWvooWLpDaTvLMIsOkl8u4NX9sVNUs33RyW
6UMQMl5U2N2UKfVBzDZvq6NMQ42GRWeR7vJVaUAfSgmteFczGAV7E+uWqzzMN3T4
g1v7DgDTSUU1uIk8N9RZcAen702jssB7rwNqIKeOKGxu8PIqIILv0Rw+6pNuUKLK
L8c1+5GjL8blOX6n4rK/uRfwdNXSDwDt0UeI/yQ7TQ+XTaOOslMe3h7mWPBxvlrT
vKcslB70MKp8B+I5IlAVZS3BDeC5QVZiPCH2NihYzhvw6VOWIprVxARLYBeuv8AV
iWKA6UJZD2G0wp6j0kr5UBNcQ/QEu5lPFFK+5+A1E658hrZ+ZYEx7Y7O+3XUUjLB
HdeD9gMWFAwaRDN/8uRS2R0lTfCHl0Vc1K2HMl3Y6EIXQKk3yXgYGkVGSTAywomf
msyYlg3o4X8nEEGe4ymgIvYrxj5SAbA5vDwMsyeoUATbIBBvwZhfAdrJfzDMh+mO
XvPOSPMLMHlQCZZ/BC8ETNWvDzF3vR74QkxFIrmNaiz0y5I=
-----END CERTIFICATE-----
