Certificate:
    Data:
        Version: 3 (0x2)
        Serial Number: 1821143998291766959 (0x194600d14f03eeaf)
    Signature Algorithm: sha512WithRSAEncryption
        Issuer: C=CH, ST=Zug, L=Zug, O=Perfect Privacy, CN=Perfect Privacy/emailAddress=admin@perfect-privacy.com
        Validity
            Not Before: Mar  5 00:00:00 2023 GMT
            Not After : Oct 30 00:00:00 2024 GMT
        Subject: C=CH, ST=Zug, O=Perfect Privacy, CN=Client_tokyo.perfect-privacy.com/emailAddress=admin@perfect-privacy.com
        Subject Public Key Info:
            Public Key Algorithm: rsaEncryption
                Public-Key: (4096 bit)
                Modulus:
                    00:aa:f3:0d:20:46:34:01:a0:5a:70:e2:c2:4f:09:
                    4e:ea:80:7b:9a:9c:3c:17:98:ce:64:8a:db:29:af:
                    d6:a0:b7:09:4a:03:c7:aa:b2:57:be:66:7a:d3:fd:
                    3c:37:21:46:1e:e1:13:cb:1b:fa:83:65:4e:de:87:
                    c9:e4:94:09:0b:8e:a3:9b:22:ad:8d:da:93:ed:ae:
                    c7:58:e6:e8:58:99:d7:f4:20:18:b0:db:b4:65:63:
                    28:4f:70:7f:5f:f1:bd:39:b5:d3:b0:ac:df:ab:9c:
                    fa:d4:3c:15:b9:11:b4:6d:a2:6d:bb:76:fe:50:a9:
                    c1:4d:87:82:25:d8:9e:0d:9b:52:ae:57:d0:e8:50:
                    59:7a:6c:f0:d3:b5:d4:9c:66:9a:ce:ad:1e:8f:26:
                    42:44:8e:38:23:ea:b9:6d:e6:b0:71:c1:87:ce:66:
                    c5:5c:85:37:47:f6:f7:d2:83:0c:30:ca:d6:44:93:
                    b9:3c:ad:2f:4d:25:42:b6:fa:df:77:33:14:c0:1e:
                    87:0f:3f:b9:9d:b1:4e:d2:ee:e1:24:71:23:4e:a5:
                    4c:4b:04:96:ec:47:2c:89:fd:eb:f4:34:ac:5f:8e:
                    d6:ca:f0:48:32:ae:e2:97:fc:20:70:7f:d5:5d:a3:
                    8c:6a:99:19:20:d1:3a:b9:20:2e:d5:2d:a1:f5:fe:
                    b5:b7:b6:31:48:19:72:5d:d1:b8:71:2a:7d:25:e2:
                    33:a7:73:b3:08:2b:b9:b7:1d:f5:d5:6c:15:b8:3a:
                    26:50:e2:82:1e:63:b4:9f:9e:37:7a:d4:b6:84:56:
                    a3:77:76:36:08:1d:a8:a1:98:aa:41:89:4e:02:ba:
                    70:13:05:88:d4:35:80:6b:05:06:bf:d8:8e:ff:5d:
                    3b:13:c3:17:3e:e8:e3:ad:ad:a8:22:ac:f6:c0:44:
                    17:5b:74:16:6a:16:30:c9:84:7c:f0:c2:4f:b9:01:
                    c4:8a:f0:03:d5:a0:98:1f:38:b9:63:0b:00:0a:28:
                    8e:7b:42:78:09:e4:3c:c7:d2:e8:96:1e:a2:de:7d:
                    38:22:1f:d8:d5:e6:4b:1d:c4:51:de:88:14:11:77:
                    8d:d5:16:43:8d:00:14:9f:39:f8:9a:0d:14:30:a9:
                    0a:dd:48:d1:14:64:34:6e:b5:ad:b8:77:cf:4c:28:
                    e8:71:c4:d8:45:b1:46:d0:c7:61:bf:ce:5a:05:8d:
                    69:ac:b0:42:73:44:c1:b5:23:26:73:06:04:61:33:
                    3f:7c:00:e9:e8:10:e0:5b:cc:ca:fb:5e:28:10:48:
                    51:55:4d:29:c6:e8:e5:ec:2b:10:fa:35:96:27:db:
                    c6:1e:10:77:30:1d:e5:e3:ea:31:84:4c:17:e1:9d:
                    d3:f1:05
                Exponent: 65537 (0x10001)
        X509v3 extensions:
            X509v3 Basic Constraints: 
                CA:FALSE
            Netscape Comment: 
                VPN User Certificate
            Netscape Cert Type: 
                SSL Client
            X509v3 Key Usage: 
                Digital Signature
            X509v3 Extended Key Usage: 
                TLS Web Client Authentication
            X509v3 Subject Key Identifier: 
                BD:FB:92:01:8D:43:EA:0A:0A:3F:38:8F:EC:60:5D:D5:87:0D:E7:8B
            X509v3 Authority Key Identifier: 
                keyid:86:4F:B8:6D:18:2A:1B:3C:8F:27:34:29:F0:81:9F:BA:6E:61:0E:E1
                DirName:/C=CH/ST=Zug/L=Zug/O=Perfect Privacy/CN=Perfect Privacy/emailAddress=admin@perfect-privacy.com
                serial:FA:11:B5:C4:AA:69:AF:69

    Signature Algorithm: sha512WithRSAEncryption
         48:4e:ea:13:d0:c3:6e:3d:76:e6:82:e5:e5:b6:19:89:08:3e:
         1c:79:c4:28:d0:2f:6e:85:f1:88:86:7e:c2:0f:0f:03:a8:d3:
         e4:5b:10:38:37:75:34:9d:69:2f:93:10:ec:e3:7d:a3:ae:66:
         12:fa:62:fb:6a:e6:b2:51:7d:fe:bd:42:42:99:72:13:fb:b8:
         43:f6:2e:3b:34:31:91:4a:8d:35:fa:ad:6b:41:f7:d6:95:42:
         b1:a2:e1:cb:ea:25:e6:ca:d3:39:bf:ec:19:df:c8:6b:6c:9b:
         0d:7e:97:ee:dd:1d:ef:45:db:75:10:3f:82:56:1f:4b:1b:99:
         90:a9:d1:af:d0:73:96:87:48:8b:22:81:9e:ce:7c:f3:57:16:
         ac:36:50:ac:06:5e:9b:6e:8c:05:f9:61:12:3a:c0:05:d5:bd:
         f0:d2:53:e9:d1:d6:9f:eb:72:b4:80:11:43:3d:9a:78:a0:cd:
         4a:28:bd:e0:2f:e9:53:93:83:22:70:6a:14:9b:d4:43:f9:54:
         18:9d:b0:43:47:32:f6:4e:78:1c:bb:a5:2d:b4:2c:e3:58:95:
         a9:aa:41:35:d2:d1:01:29:11:d6:a9:f5:51:00:92:77:f6:6c:
         57:ae:9f:2c:ee:d2:cf:48:d3:c3:7a:a3:11:e9:ad:8c:a3:94:
         a3:7b:bd:80:e2:64:36:cd:29:5a:0d:0f:db:9e:66:77:a8:9f:
         0b:24:a0:78:fb:f5:0c:a4:dc:19:06:77:d5:89:47:0e:aa:aa:
         eb:c1:17:2c:ac:dc:46:9d:ab:ce:77:cc:d7:a4:11:fb:6e:dc:
         da:15:39:12:03:f7:35:a8:ac:fd:ce:fe:a5:f1:c9:af:43:0c:
         44:f4:48:27:44:88:4d:8a:3a:8e:93:a5:0f:8f:33:48:0c:ff:
         3c:83:af:a0:76:35:63:21:d9:6d:42:ff:18:49:44:af:28:b4:
         51:32:81:d1:53:b3:7c:64:80:6e:ca:8d:cd:20:47:4b:dc:90:
         9a:06:8b:33:01:18:04:f9:7a:66:3d:c0:42:41:e1:5a:45:e4:
         96:09:0f:e9:90:7d:60:df:b4:3b:71:62:4e:56:fa:b0:93:d6:
         83:67:e4:26:de:3e:f8:95:b4:43:c4:7e:24:80:e7:c6:3f:12:
         84:07:20:ca:aa:58:e6:f1:f1:d1:34:f5:dc:00:6e:9f:08:79:
         fe:50:ac:7e:ac:85:72:17:d5:d5:76:aa:0e:f4:b0:e9:92:cd:
         83:4f:97:e1:f1:e5:3d:6e:6c:c0:0c:55:7e:d7:33:fe:9c:7f:
         24:ae:d2:58:85:e1:e0:fa:89:23:15:18:d9:03:7a:04:a2:05:
         82:5f:d5:38:3c:d1:f7:ce
-----BEGIN CERTIFICATE-----
MIIG3jCCBMagAwIBAgIIGUYA0U8D7q8wDQYJKoZIhvcNAQENBQAwgYcxCzAJBgNV
BAYTAkNIMQwwCgYDVQQIEwNadWcxDDAKBgNVBAcTA1p1ZzEYMBYGA1UEChMPUGVy
ZmVjdCBQcml2YWN5MRgwFgYDVQQDEw9QZXJmZWN0IFByaXZhY3kxKDAmBgkqhkiG
9w0BCQEWGWFkbWluQHBlcmZlY3QtcHJpdmFjeS5jb20wHhcNMjMwMzA1MDAwMDAw
WhcNMjQxMDMwMDAwMDAwWjCBijELMAkGA1UEBhMCQ0gxDDAKBgNVBAgTA1p1ZzEY
MBYGA1UEChMPUGVyZmVjdCBQcml2YWN5MSkwJwYDVQQDFCBDbGllbnRfdG9reW8u
cGVyZmVjdC1wcml2YWN5LmNvbTEoMCYGCSqGSIb3DQEJARYZYWRtaW5AcGVyZmVj
dC1wcml2YWN5LmNvbTCCAiIwDQYJKoZIhvcNAQEBBQADggIPADCCAgoCggIBAKrz
DSBGNAGgWnDiwk8JTuqAe5qcPBeYzmSK2ymv1qC3CUoDx6qyV75metP9PDchRh7h
E8sb+oNlTt6HyeSUCQuOo5sirY3ak+2ux1jm6FiZ1/QgGLDbtGVjKE9wf1/xvTm1
07Cs36uc+tQ8FbkRtG2ibbt2/lCpwU2HgiXYng2bUq5X0OhQWXps8NO11Jxmms6t
Ho8mQkSOOCPquW3msHHBh85mxVyFN0f299KDDDDK1kSTuTytL00lQrb633czFMAe
hw8/uZ2xTtLu4SRxI06lTEsEluxHLIn96/Q0rF+O1srwSDKu4pf8IHB/1V2jjGqZ
GSDROrkgLtUtofX+tbe2MUgZcl3RuHEqfSXiM6dzswgrubcd9dVsFbg6JlDigh5j
tJ+eN3rUtoRWo3d2NggdqKGYqkGJTgK6cBMFiNQ1gGsFBr/Yjv9dOxPDFz7o462t
qCKs9sBEF1t0FmoWMMmEfPDCT7kBxIrwA9WgmB84uWMLAAoojntCeAnkPMfS6JYe
ot59OCIf2NXmSx3EUd6IFBF3jdUWQ40AFJ85+JoNFDCpCt1I0RRkNG61rbh3z0wo
6HHE2EWxRtDHYb/OWgWNaaywQnNEwbUjJnMGBGEzP3wA6egQ4FvMyvteKBBIUVVN
Kcbo5ewrEPo1lifbxh4QdzAd5ePqMYRMF+Gd0/EFAgMBAAGjggFHMIIBQzAJBgNV
HRMEAjAAMCMGCWCGSAGG+EIBDQQWFhRWUE4gVXNlciBDZXJ0aWZpY2F0ZTARBglg
hkgBhvhCAQEEBAMCB4AwCwYDVR0PBAQDAgeAMBMGA1UdJQQMMAoGCCsGAQUFBwMC
MB0GA1UdDgQWBBS9+5IBjUPqCgo/OI/sYF3Vhw3nizCBvAYDVR0jBIG0MIGxgBSG
T7htGCobPI8nNCnwgZ+6bmEO4aGBjaSBijCBhzELMAkGA1UEBhMCQ0gxDDAKBgNV
BAgTA1p1ZzEMMAoGA1UEBxMDWnVnMRgwFgYDVQQKEw9QZXJmZWN0IFByaXZhY3kx
GDAWBgNVBAMTD1BlcmZlY3QgUHJpdmFjeTEoMCYGCSqGSIb3DQEJARYZYWRtaW5A
cGVyZmVjdC1wcml2YWN5LmNvbYIJAPoRtcSqaa9pMA0GCSqGSIb3DQEBDQUAA4IC
AQBITuoT0MNuPXbmguXlthmJCD4cecQo0C9uhfGIhn7CDw8DqNPkWxA4N3U0nWkv
kxDs432jrmYS+mL7auayUX3+vUJCmXIT+7hD9i47NDGRSo01+q1rQffWlUKxouHL
6iXmytM5v+wZ38hrbJsNfpfu3R3vRdt1ED+CVh9LG5mQqdGv0HOWh0iLIoGeznzz
VxasNlCsBl6bbowF+WESOsAF1b3w0lPp0daf63K0gBFDPZp4oM1KKL3gL+lTk4Mi
cGoUm9RD+VQYnbBDRzL2Tngcu6UttCzjWJWpqkE10tEBKRHWqfVRAJJ39mxXrp8s
7tLPSNPDeqMR6a2Mo5Sje72A4mQ2zSlaDQ/bnmZ3qJ8LJKB4+/UMpNwZBnfViUcO
qqrrwRcsrNxGnavOd8zXpBH7btzaFTkSA/c1qKz9zv6l8cmvQwxE9EgnRIhNijqO
k6UPjzNIDP88g6+gdjVjIdltQv8YSUSvKLRRMoHRU7N8ZIBuyo3NIEdL3JCaBosz
ARgE+XpmPcBCQeFaReSWCQ/pkH1g37Q7cWJOVvqwk9aDZ+Qm3j74lbRDxH4kgOfG
PxKEByDKqljm8fHRNPXcAG6fCHn+UKx+rIVyF9XVdqoO9LDpks2DT5fh8eU9bmzA
DFV+1zP+nH8krtJYheHg+okjFRjZA3oEogWCX9U4PNH3zg==
-----END CERTIFICATE-----
