Certificate:
    Data:
        Version: 3 (0x2)
        Serial Number: 3483539593187864434 (0x305804cdacf8af72)
    Signature Algorithm: sha512WithRSAEncryption
        Issuer: C=CH, ST=Zug, L=Zug, O=Perfect Privacy, CN=Perfect Privacy/emailAddress=admin@perfect-privacy.com
        Validity
            Not Before: Jan  7 00:00:00 2023 GMT
            Not After : Sep  3 00:00:00 2024 GMT
        Subject: C=CH, ST=Zug, O=Perfect Privacy, CN=Client_tokyo.perfect-privacy.com/emailAddress=admin@perfect-privacy.com
        Subject Public Key Info:
            Public Key Algorithm: rsaEncryption
                Public-Key: (4096 bit)
                Modulus:
                    00:c9:0e:ad:36:23:90:12:a0:d2:d6:9d:e2:f2:1f:
                    b2:4f:da:66:ce:00:10:77:21:b8:f0:dd:68:2a:37:
                    3c:34:7f:03:6e:7a:cc:33:e3:32:65:5a:8d:9b:de:
                    d6:c8:a9:95:ac:20:2b:9c:40:3e:9b:9b:a2:33:51:
                    30:48:84:2a:d4:a5:61:94:c7:3a:c1:27:de:d6:8f:
                    49:56:ea:2b:fa:ab:5b:07:c4:f4:24:cc:b2:b3:59:
                    a2:a9:0a:bd:b1:6d:71:45:9c:dc:3b:08:b4:4d:55:
                    c9:87:02:13:11:b6:7b:b1:4f:24:27:1e:55:62:d4:
                    01:09:c2:ff:b5:0c:8f:b8:c1:53:86:18:6d:ae:4c:
                    8b:a3:73:95:68:2e:87:43:fa:2c:87:03:2a:42:28:
                    47:e0:42:75:8c:5c:af:62:9e:be:e5:52:f8:08:a8:
                    a3:71:03:05:a3:96:62:5c:b6:5f:40:26:c7:c7:d0:
                    3a:d8:7d:ae:c7:34:6b:dd:35:51:3c:d8:f4:70:d9:
                    46:df:dc:7a:ad:4e:08:91:f9:1e:18:df:bc:d5:82:
                    81:85:45:49:4f:11:28:81:f5:47:2e:a6:7e:c8:e9:
                    8f:de:7c:d9:c3:37:71:9d:37:83:6a:db:e9:db:d2:
                    8f:2f:96:fa:8c:51:c5:be:76:db:de:04:01:ef:8b:
                    b8:7c:d9:a3:9e:8e:0a:91:3d:5e:ee:1c:4a:df:27:
                    a0:95:fd:f2:55:cc:d6:0f:d3:9c:9f:9f:7d:a7:40:
                    ae:eb:18:0f:6f:e7:5c:00:85:d9:f1:24:9d:74:55:
                    51:90:d4:27:6e:99:98:07:aa:80:f7:a1:58:24:40:
                    90:94:61:f4:78:a4:23:74:0b:5d:46:a9:87:b0:40:
                    61:36:2e:33:aa:7e:51:91:1d:86:82:9f:72:3e:20:
                    46:4f:3b:c7:2d:ac:4f:a8:90:48:d9:38:a9:a3:00:
                    59:34:69:e1:4b:a2:b0:b2:8c:b9:54:83:48:52:51:
                    4c:83:b9:08:6b:8c:c5:e4:59:bd:0c:95:47:72:e6:
                    7d:3b:64:1d:82:fb:95:76:8a:7c:e2:7d:9b:b0:19:
                    2e:e8:ed:2d:12:c8:92:fb:f8:ee:05:1b:26:87:8b:
                    a7:83:bc:8b:c1:1f:4f:8c:58:ff:94:c6:f9:02:ea:
                    9a:aa:d6:05:e7:1c:72:7d:60:99:b0:11:26:0b:25:
                    13:31:40:d3:bf:bf:4d:0b:61:32:a2:8f:5b:f5:77:
                    c0:8b:b1:69:26:4b:04:2f:19:74:01:53:d7:6c:ca:
                    63:4e:36:e5:6f:5f:b7:5c:ca:89:08:a2:9e:1e:28:
                    ec:fb:71:39:1f:fb:bf:eb:0a:88:4b:81:b8:88:50:
                    57:89:53
                Exponent: 65537 (0x10001)
        X509v3 extensions:
            X509v3 Basic Constraints: 
                CA:FALSE
            Netscape Comment: 
                VPN User Certificate
            Netscape Cert Type: 
                SSL Client
            X509v3 Key Usage: 
                Digital Signature
            X509v3 Extended Key Usage: 
                TLS Web Client Authentication
            X509v3 Subject Key Identifier: 
                96:4F:DF:8F:4D:90:9A:73:9B:C3:BF:36:A5:8E:57:0F:06:01:E2:98
            X509v3 Authority Key Identifier: 
                keyid:86:4F:B8:6D:18:2A:1B:3C:8F:27:34:29:F0:81:9F:BA:6E:61:0E:E1
                DirName:/C=CH/ST=Zug/L=Zug/O=Perfect Privacy/CN=Perfect Privacy/emailAddress=admin@perfect-privacy.com
                serial:FA:11:B5:C4:AA:69:AF:69

    Signature Algorithm: sha512WithRSAEncryption
         9f:53:a4:cd:33:ff:28:6d:60:af:cd:f5:b8:32:69:3d:3d:42:
         0f:b6:95:6d:59:38:d9:29:c2:5c:91:d0:20:3e:63:25:eb:f4:
         1e:d5:0c:4c:12:b1:2b:0e:a1:75:04:e0:9b:4b:e1:25:27:fa:
         09:a4:5a:02:37:42:9d:8b:85:87:6d:0d:2c:a6:4d:ad:91:98:
         8f:af:72:c5:3e:58:20:d0:f0:f8:7f:b3:a5:21:f7:57:4a:d5:
         51:ec:b0:25:2a:86:be:54:a8:da:8e:15:79:a1:3e:98:c8:9c:
         09:b0:52:43:9b:e6:a0:72:8d:27:17:14:05:9c:8f:a6:22:ca:
         d6:b5:d1:cd:e2:3c:c8:01:6a:b6:a6:27:d9:4b:04:1e:03:77:
         da:bc:69:36:10:27:1a:60:50:d2:0f:37:6a:e3:60:28:fd:72:
         fe:4d:6e:94:3b:e4:74:f8:79:59:7b:e5:2e:d4:e8:70:04:78:
         1e:23:e6:72:58:27:2c:ef:62:e2:ed:48:ad:e1:8e:59:bd:fa:
         9c:65:a4:27:c8:a7:b4:05:f0:dc:c5:2d:18:f1:0d:c4:b8:4a:
         d5:c2:06:6c:52:4b:8f:ba:0a:7a:cb:e5:88:3f:2a:13:28:f1:
         22:35:4a:11:32:6b:bf:a1:29:8d:34:f7:51:17:da:a6:09:fe:
         7f:ee:0b:a6:04:a7:c1:18:db:ca:40:8b:00:f2:65:25:1c:f8:
         86:59:bc:bb:4c:87:65:07:49:13:e6:f7:2b:f4:d4:9e:8d:17:
         9f:d6:9b:13:32:c9:04:d0:09:13:be:5e:53:a8:32:98:ae:12:
         c9:4e:c3:0e:26:18:96:96:f2:64:60:32:7d:41:9c:0c:51:e4:
         82:31:5e:3f:ff:1d:5b:89:9c:0c:08:66:61:ad:ea:3f:c0:4a:
         84:24:11:93:26:d1:99:52:52:2a:fa:58:13:e1:8c:17:76:47:
         7a:a5:57:e2:41:40:0b:72:7d:4a:2e:6e:3d:17:46:d6:ae:ce:
         ec:6a:90:59:c3:b9:14:8f:0b:57:81:28:ed:d9:7e:15:a4:a9:
         a0:86:67:6d:87:26:d2:ff:dc:99:67:c6:75:5e:65:30:25:50:
         4c:66:d7:0e:17:f2:31:45:05:02:dd:92:e4:9b:84:f8:da:40:
         64:0c:db:ce:74:ed:1c:b7:1c:d5:fd:12:5f:0e:22:a5:1a:cf:
         9e:0e:d1:51:9b:b3:9c:9d:a1:87:1e:da:ae:7b:89:22:72:a8:
         3c:86:a3:a4:a2:83:f1:a3:b0:a1:61:aa:7e:a1:83:9b:c9:69:
         ea:50:a1:76:26:bf:fd:ea:b8:03:f9:8a:48:fa:6e:78:a1:08:
         80:4e:43:dd:e9:6a:3f:97
-----BEGIN CERTIFICATE-----
MIIG3jCCBMagAwIBAgIIMFgEzaz4r3IwDQYJKoZIhvcNAQENBQAwgYcxCzAJBgNV
BAYTAkNIMQwwCgYDVQQIEwNadWcxDDAKBgNVBAcTA1p1ZzEYMBYGA1UEChMPUGVy
ZmVjdCBQcml2YWN5MRgwFgYDVQQDEw9QZXJmZWN0IFByaXZhY3kxKDAmBgkqhkiG
9w0BCQEWGWFkbWluQHBlcmZlY3QtcHJpdmFjeS5jb20wHhcNMjMwMTA3MDAwMDAw
WhcNMjQwOTAzMDAwMDAwWjCBijELMAkGA1UEBhMCQ0gxDDAKBgNVBAgTA1p1ZzEY
MBYGA1UEChMPUGVyZmVjdCBQcml2YWN5MSkwJwYDVQQDFCBDbGllbnRfdG9reW8u
cGVyZmVjdC1wcml2YWN5LmNvbTEoMCYGCSqGSIb3DQEJARYZYWRtaW5AcGVyZmVj
dC1wcml2YWN5LmNvbTCCAiIwDQYJKoZIhvcNAQEBBQADggIPADCCAgoCggIBAMkO
rTYjkBKg0tad4vIfsk/aZs4AEHchuPDdaCo3PDR/A256zDPjMmVajZve1siplawg
K5xAPpubojNRMEiEKtSlYZTHOsEn3taPSVbqK/qrWwfE9CTMsrNZoqkKvbFtcUWc
3DsItE1VyYcCExG2e7FPJCceVWLUAQnC/7UMj7jBU4YYba5Mi6NzlWguh0P6LIcD
KkIoR+BCdYxcr2KevuVS+Aioo3EDBaOWYly2X0Amx8fQOth9rsc0a901UTzY9HDZ
Rt/ceq1OCJH5HhjfvNWCgYVFSU8RKIH1Ry6mfsjpj9582cM3cZ03g2rb6dvSjy+W
+oxRxb52294EAe+LuHzZo56OCpE9Xu4cSt8noJX98lXM1g/TnJ+ffadArusYD2/n
XACF2fEknXRVUZDUJ26ZmAeqgPehWCRAkJRh9HikI3QLXUaph7BAYTYuM6p+UZEd
hoKfcj4gRk87xy2sT6iQSNk4qaMAWTRp4UuisLKMuVSDSFJRTIO5CGuMxeRZvQyV
R3LmfTtkHYL7lXaKfOJ9m7AZLujtLRLIkvv47gUbJoeLp4O8i8EfT4xY/5TG+QLq
mqrWBecccn1gmbARJgslEzFA07+/TQthMqKPW/V3wIuxaSZLBC8ZdAFT12zKY042
5W9ft1zKiQiinh4o7PtxOR/7v+sKiEuBuIhQV4lTAgMBAAGjggFHMIIBQzAJBgNV
HRMEAjAAMCMGCWCGSAGG+EIBDQQWFhRWUE4gVXNlciBDZXJ0aWZpY2F0ZTARBglg
hkgBhvhCAQEEBAMCB4AwCwYDVR0PBAQDAgeAMBMGA1UdJQQMMAoGCCsGAQUFBwMC
MB0GA1UdDgQWBBSWT9+PTZCac5vDvzaljlcPBgHimDCBvAYDVR0jBIG0MIGxgBSG
T7htGCobPI8nNCnwgZ+6bmEO4aGBjaSBijCBhzELMAkGA1UEBhMCQ0gxDDAKBgNV
BAgTA1p1ZzEMMAoGA1UEBxMDWnVnMRgwFgYDVQQKEw9QZXJmZWN0IFByaXZhY3kx
GDAWBgNVBAMTD1BlcmZlY3QgUHJpdmFjeTEoMCYGCSqGSIb3DQEJARYZYWRtaW5A
cGVyZmVjdC1wcml2YWN5LmNvbYIJAPoRtcSqaa9pMA0GCSqGSIb3DQEBDQUAA4IC
AQCfU6TNM/8obWCvzfW4Mmk9PUIPtpVtWTjZKcJckdAgPmMl6/Qe1QxMErErDqF1
BOCbS+ElJ/oJpFoCN0Kdi4WHbQ0spk2tkZiPr3LFPlgg0PD4f7OlIfdXStVR7LAl
Koa+VKjajhV5oT6YyJwJsFJDm+agco0nFxQFnI+mIsrWtdHN4jzIAWq2pifZSwQe
A3favGk2ECcaYFDSDzdq42Ao/XL+TW6UO+R0+HlZe+Uu1OhwBHgeI+ZyWCcs72Li
7Uit4Y5ZvfqcZaQnyKe0BfDcxS0Y8Q3EuErVwgZsUkuPugp6y+WIPyoTKPEiNUoR
Mmu/oSmNNPdRF9qmCf5/7gumBKfBGNvKQIsA8mUlHPiGWby7TIdlB0kT5vcr9NSe
jRef1psTMskE0AkTvl5TqDKYrhLJTsMOJhiWlvJkYDJ9QZwMUeSCMV4//x1biZwM
CGZhreo/wEqEJBGTJtGZUlIq+lgT4YwXdkd6pVfiQUALcn1KLm49F0bWrs7sapBZ
w7kUjwtXgSjt2X4VpKmghmdthybS/9yZZ8Z1XmUwJVBMZtcOF/IxRQUC3ZLkm4T4
2kBkDNvOdO0ctxzV/RJfDiKlGs+eDtFRm7OcnaGHHtque4kicqg8hqOkooPxo7Ch
Yap+oYObyWnqUKF2Jr/96rgD+YpI+m54oQiATkPd6Wo/lw==
-----END CERTIFICATE-----
