Certificate:
    Data:
        Version: 3 (0x2)
        Serial Number:
            fb:ad:27:2e:e1:da:2c:32
    Signature Algorithm: sha512WithRSAEncryption
        Issuer: C=CH, ST=Zug, L=Zug, O=Perfect Privacy, CN=Perfect Privacy/emailAddress=admin@perfect-privacy.com
        Validity
            Not Before: Jul 26 00:00:00 2023 GMT
            Not After : Mar 22 00:00:00 2025 GMT
        Subject: C=CH, ST=Zug, O=Perfect Privacy, CN=Client_vienna.perfect-privacy.com/emailAddress=admin@perfect-privacy.com
        Subject Public Key Info:
            Public Key Algorithm: rsaEncryption
                Public-Key: (4096 bit)
                Modulus:
                    00:a6:c3:42:f7:fe:a4:94:14:d5:ab:76:43:c6:b6:
                    33:ca:7d:18:e5:e1:3b:94:c5:ee:95:01:b6:7e:d3:
                    6e:61:b7:b0:b9:0c:f1:84:90:85:36:4d:38:c3:a0:
                    9f:55:fc:aa:a9:d4:4d:8e:64:9e:ff:c6:8b:ff:e3:
                    73:b6:73:06:c7:fb:ed:e7:55:58:fe:b8:a2:7a:8c:
                    9b:67:60:0c:f0:33:2c:3f:18:10:c6:f8:22:7a:e3:
                    58:d6:67:78:f4:80:4b:5a:57:53:dc:92:f7:75:5b:
                    7b:81:9e:e9:18:b4:a1:fa:36:6b:90:66:78:33:b7:
                    36:e9:f0:22:ee:12:02:c8:41:01:dc:c0:7d:e5:d0:
                    5b:aa:3e:b5:bd:56:44:26:5b:f2:80:32:d2:d6:4f:
                    7a:04:83:fd:0c:56:b1:88:68:14:34:93:e9:fa:39:
                    78:06:2b:01:c4:e0:6a:6e:ae:db:b9:2f:9c:2a:4e:
                    a1:b6:f8:f0:20:47:02:1d:bb:f2:f2:d2:d3:3b:30:
                    c0:d3:69:d4:c4:b1:88:e6:f5:3f:d7:de:9b:fe:41:
                    20:5a:32:92:f9:70:92:f8:5b:6b:e1:99:7f:12:6c:
                    06:d2:2f:cc:d3:23:63:0c:24:96:25:14:40:67:ab:
                    b3:7a:9e:9a:a2:d9:35:59:2b:c7:33:ae:7c:0d:9b:
                    52:64:69:db:e7:ea:3f:9a:1c:27:99:03:c1:fe:d9:
                    61:2b:63:ae:d7:f4:86:69:00:ed:50:ea:09:53:5e:
                    22:6c:47:b3:0c:4d:0d:58:cf:1c:95:fc:f2:f2:c8:
                    4f:65:03:0f:42:91:91:14:1a:5d:c2:d0:c4:15:7c:
                    ab:af:1d:a3:56:e6:f4:bd:ef:d7:f9:7b:41:de:00:
                    dc:13:88:9c:58:ac:3d:2a:f8:6a:a9:a4:a5:b2:d1:
                    0e:5c:a3:40:25:81:0c:fd:7f:76:16:8f:de:39:da:
                    37:cf:14:52:52:01:80:8b:e7:9d:61:92:a1:6b:ff:
                    a8:33:b3:7f:95:28:1a:3c:34:9c:63:d3:8b:0a:39:
                    1f:ae:8d:f0:9c:a8:de:e2:c8:5d:92:2f:0f:ef:10:
                    74:d0:f6:9f:e1:fd:bd:08:2b:8c:59:44:88:9f:26:
                    0a:c8:7b:61:7a:7d:03:52:46:d4:1d:a1:a1:79:12:
                    b8:9c:76:17:61:74:13:65:27:03:20:04:07:40:8b:
                    2e:73:78:23:fc:d0:8a:dc:aa:a4:6b:5a:5c:33:3b:
                    3a:42:f9:2f:ee:34:71:fa:fa:02:b9:b5:1c:27:b2:
                    1c:21:e5:5f:02:6a:93:53:84:69:8c:3a:c8:0b:3e:
                    20:70:b6:28:d1:62:b0:91:1c:5b:30:e1:2d:d3:bd:
                    e9:93:43
                Exponent: 65537 (0x10001)
        X509v3 extensions:
            X509v3 Basic Constraints: 
                CA:FALSE
            Netscape Comment: 
                VPN User Certificate
            Netscape Cert Type: 
                SSL Client
            X509v3 Key Usage: 
                Digital Signature
            X509v3 Extended Key Usage: 
                TLS Web Client Authentication
            X509v3 Subject Key Identifier: 
                AB:B3:DA:D3:CC:CD:FF:37:93:01:93:97:18:4A:31:79:DF:4A:EF:AB
            X509v3 Authority Key Identifier: 
                keyid:86:4F:B8:6D:18:2A:1B:3C:8F:27:34:29:F0:81:9F:BA:6E:61:0E:E1
                DirName:/C=CH/ST=Zug/L=Zug/O=Perfect Privacy/CN=Perfect Privacy/emailAddress=admin@perfect-privacy.com
                serial:FA:11:B5:C4:AA:69:AF:69

    Signature Algorithm: sha512WithRSAEncryption
         6b:ae:b0:be:dc:83:bc:2d:fe:fb:28:0e:eb:9e:f6:98:67:a7:
         14:08:54:64:6e:b1:c7:ff:fa:36:bb:8f:80:9a:b7:ff:ce:29:
         97:a6:3e:ea:2a:46:0a:e5:44:62:58:4c:46:18:a3:e7:aa:f9:
         08:1c:ca:f2:8d:86:da:ce:d3:d5:ef:46:ad:ab:f3:61:7e:30:
         93:85:68:8a:a8:8f:14:c0:38:e5:9a:e1:16:ff:49:a1:93:fc:
         a1:7b:28:17:3e:ad:3a:88:a6:66:7d:10:d7:51:e0:a5:db:2b:
         36:c7:2c:97:d8:8f:0d:91:76:d7:80:d7:69:a4:cf:b8:af:cd:
         fb:9a:28:18:6b:76:29:91:0f:87:4c:32:f9:40:12:b1:7b:d6:
         e8:62:22:2d:e1:9f:cd:62:6a:45:5e:c0:86:8e:84:50:4f:f3:
         1e:a2:0a:90:3e:80:a6:b8:f7:ea:38:13:fd:6d:12:ed:03:7c:
         03:4f:34:60:dd:51:f5:4e:7e:98:46:de:c3:90:20:25:95:15:
         9a:05:93:4a:f8:db:44:5e:fe:5e:b1:20:1f:54:f3:1e:d0:7a:
         fd:ca:4a:aa:ee:62:b6:d9:1d:00:c4:9a:98:ff:05:5c:7f:dd:
         d3:70:23:57:dc:15:f3:23:dc:8b:2c:3d:de:16:8c:6f:95:bb:
         a9:c2:32:d7:c4:a8:83:ea:4b:43:a4:62:57:43:e7:46:8f:32:
         19:e5:55:be:89:f0:c8:18:0a:35:a9:bc:ba:18:92:35:a0:77:
         4e:d8:bb:10:6b:f1:75:46:d7:5e:34:89:e5:72:84:0c:3c:a4:
         f0:77:9a:03:58:bc:23:fc:79:5f:f6:e7:49:95:1f:e2:fa:70:
         7a:de:08:28:9d:fe:46:db:28:83:61:ba:9f:c7:da:ff:24:2d:
         cb:97:6b:b9:8b:e7:b4:9d:7e:ae:d1:7f:55:43:3f:e9:32:f8:
         60:9c:c3:39:19:52:81:7d:67:d3:eb:7c:eb:0c:40:0f:78:d3:
         3b:e9:36:8f:4b:c8:5d:48:13:eb:3e:2d:7e:ef:92:b7:5b:2f:
         22:1e:1a:cc:96:ac:45:30:7a:45:33:62:11:2f:b7:5b:e2:d4:
         cc:e0:a1:a8:7c:a3:54:b2:74:84:ea:05:37:32:43:ca:b3:d5:
         e9:f6:23:70:ae:06:c0:49:81:33:ed:a1:d9:1f:7c:09:70:4b:
         54:40:14:12:5f:89:d2:bb:fa:bd:a1:22:ef:8f:27:0d:9d:7a:
         5a:2e:74:fd:77:53:b1:f9:96:22:10:89:62:35:c2:3f:31:b2:
         10:eb:75:39:93:51:54:17:18:35:8f:cd:10:69:3c:1e:d4:cc:
         3d:4a:44:05:57:2d:07:76
-----BEGIN CERTIFICATE-----
MIIG4DCCBMigAwIBAgIJAPutJy7h2iwyMA0GCSqGSIb3DQEBDQUAMIGHMQswCQYD
VQQGEwJDSDEMMAoGA1UECBMDWnVnMQwwCgYDVQQHEwNadWcxGDAWBgNVBAoTD1Bl
cmZlY3QgUHJpdmFjeTEYMBYGA1UEAxMPUGVyZmVjdCBQcml2YWN5MSgwJgYJKoZI
hvcNAQkBFhlhZG1pbkBwZXJmZWN0LXByaXZhY3kuY29tMB4XDTIzMDcyNjAwMDAw
MFoXDTI1MDMyMjAwMDAwMFowgYsxCzAJBgNVBAYTAkNIMQwwCgYDVQQIEwNadWcx
GDAWBgNVBAoTD1BlcmZlY3QgUHJpdmFjeTEqMCgGA1UEAxQhQ2xpZW50X3ZpZW5u
YS5wZXJmZWN0LXByaXZhY3kuY29tMSgwJgYJKoZIhvcNAQkBFhlhZG1pbkBwZXJm
ZWN0LXByaXZhY3kuY29tMIICIjANBgkqhkiG9w0BAQEFAAOCAg8AMIICCgKCAgEA
psNC9/6klBTVq3ZDxrYzyn0Y5eE7lMXulQG2ftNuYbewuQzxhJCFNk04w6CfVfyq
qdRNjmSe/8aL/+NztnMGx/vt51VY/riieoybZ2AM8DMsPxgQxvgieuNY1md49IBL
WldT3JL3dVt7gZ7pGLSh+jZrkGZ4M7c26fAi7hICyEEB3MB95dBbqj61vVZEJlvy
gDLS1k96BIP9DFaxiGgUNJPp+jl4BisBxOBqbq7buS+cKk6htvjwIEcCHbvy8tLT
OzDA02nUxLGI5vU/196b/kEgWjKS+XCS+Ftr4Zl/EmwG0i/M0yNjDCSWJRRAZ6uz
ep6aotk1WSvHM658DZtSZGnb5+o/mhwnmQPB/tlhK2Ou1/SGaQDtUOoJU14ibEez
DE0NWM8clfzy8shPZQMPQpGRFBpdwtDEFXyrrx2jVub0ve/X+XtB3gDcE4icWKw9
KvhqqaSlstEOXKNAJYEM/X92Fo/eOdo3zxRSUgGAi+edYZKha/+oM7N/lSgaPDSc
Y9OLCjkfro3wnKje4shdki8P7xB00Paf4f29CCuMWUSInyYKyHthen0DUkbUHaGh
eRK4nHYXYXQTZScDIAQHQIsuc3gj/NCK3Kqka1pcMzs6Qvkv7jRx+voCubUcJ7Ic
IeVfAmqTU4RpjDrICz4gcLYo0WKwkRxbMOEt073pk0MCAwEAAaOCAUcwggFDMAkG
A1UdEwQCMAAwIwYJYIZIAYb4QgENBBYWFFZQTiBVc2VyIENlcnRpZmljYXRlMBEG
CWCGSAGG+EIBAQQEAwIHgDALBgNVHQ8EBAMCB4AwEwYDVR0lBAwwCgYIKwYBBQUH
AwIwHQYDVR0OBBYEFKuz2tPMzf83kwGTlxhKMXnfSu+rMIG8BgNVHSMEgbQwgbGA
FIZPuG0YKhs8jyc0KfCBn7puYQ7hoYGNpIGKMIGHMQswCQYDVQQGEwJDSDEMMAoG
A1UECBMDWnVnMQwwCgYDVQQHEwNadWcxGDAWBgNVBAoTD1BlcmZlY3QgUHJpdmFj
eTEYMBYGA1UEAxMPUGVyZmVjdCBQcml2YWN5MSgwJgYJKoZIhvcNAQkBFhlhZG1p
bkBwZXJmZWN0LXByaXZhY3kuY29tggkA+hG1xKppr2kwDQYJKoZIhvcNAQENBQAD
ggIBAGuusL7cg7wt/vsoDuue9phnpxQIVGRuscf/+ja7j4Cat//OKZemPuoqRgrl
RGJYTEYYo+eq+QgcyvKNhtrO09XvRq2r82F+MJOFaIqojxTAOOWa4Rb/SaGT/KF7
KBc+rTqIpmZ9ENdR4KXbKzbHLJfYjw2RdteA12mkz7ivzfuaKBhrdimRD4dMMvlA
ErF71uhiIi3hn81iakVewIaOhFBP8x6iCpA+gKa49+o4E/1tEu0DfANPNGDdUfVO
fphG3sOQICWVFZoFk0r420Re/l6xIB9U8x7Qev3KSqruYrbZHQDEmpj/BVx/3dNw
I1fcFfMj3IssPd4WjG+Vu6nCMtfEqIPqS0OkYldD50aPMhnlVb6J8MgYCjWpvLoY
kjWgd07YuxBr8XVG1140ieVyhAw8pPB3mgNYvCP8eV/250mVH+L6cHreCCid/kbb
KINhup/H2v8kLcuXa7mL57Sdfq7Rf1VDP+ky+GCcwzkZUoF9Z9PrfOsMQA940zvp
No9LyF1IE+s+LX7vkrdbLyIeGsyWrEUwekUzYhEvt1vi1Mzgoah8o1SydITqBTcy
Q8qz1en2I3CuBsBJgTPtodkffAlwS1RAFBJfidK7+r2hIu+PJw2deloudP13U7H5
liIQiWI1wj8xshDrdTmTUVQXGDWPzRBpPB7UzD1KRAVXLQd2
-----END CERTIFICATE-----
