Certificate:
    Data:
        Version: 3 (0x2)
        Serial Number: 4922993281868182732 (0x4451fc4e856334cc)
    Signature Algorithm: sha512WithRSAEncryption
        Issuer: C=CH, ST=Zug, L=Zug, O=Perfect Privacy, CN=Perfect Privacy/emailAddress=admin@perfect-privacy.com
        Validity
            Not Before: Jun 16 00:00:00 2024 GMT
            Not After : Feb 11 00:00:00 2026 GMT
        Subject: C=CH, ST=Zug, O=Perfect Privacy, CN=Client_vienna.perfect-privacy.com/emailAddress=admin@perfect-privacy.com
        Subject Public Key Info:
            Public Key Algorithm: rsaEncryption
                Public-Key: (4096 bit)
                Modulus:
                    00:bf:1d:e8:ae:17:2b:b0:28:e5:6b:3c:06:32:4d:
                    96:d2:f2:58:78:96:60:56:4b:da:0b:3f:c8:cd:28:
                    7d:58:ca:80:26:2a:e5:91:91:15:ca:34:ec:62:1f:
                    be:d5:e1:be:32:63:a9:1e:34:7e:07:50:a0:2e:51:
                    ac:85:9e:98:b4:93:8c:0f:ba:72:0e:89:82:63:65:
                    aa:8f:eb:c6:b5:1a:cc:c3:b2:b0:18:04:31:68:65:
                    67:00:c9:54:0a:cb:79:c8:56:f4:5d:2f:6b:a7:ef:
                    61:32:e9:73:bb:41:1e:a4:dd:65:68:df:41:5c:f9:
                    90:9c:8f:28:aa:2a:19:14:b4:2a:be:3a:e5:c5:83:
                    14:f0:76:94:23:49:cf:ca:e5:70:99:70:7d:27:fb:
                    6b:3b:bf:0e:14:0b:a6:76:4f:15:1e:21:e3:8f:60:
                    67:0e:0f:e6:e5:d0:70:5e:0d:03:44:74:dd:a4:d8:
                    e3:18:ba:50:d6:f6:32:ef:aa:63:94:85:f2:70:d6:
                    b1:00:54:aa:91:d5:02:59:c6:1b:f4:2e:23:0e:17:
                    a9:07:92:e7:a2:e4:3c:f1:2f:3a:9b:2d:36:00:ce:
                    16:0c:81:dc:75:2a:eb:ee:79:25:e2:3c:be:dc:a8:
                    56:5f:62:35:ab:b1:73:2f:f8:3c:80:47:01:84:4e:
                    51:d1:64:38:9f:36:63:35:e0:bf:5d:2d:78:ab:1b:
                    57:fa:27:63:45:2f:94:f9:48:f2:d0:88:9d:e0:76:
                    a8:5d:e9:a9:39:83:93:64:f8:3d:86:ce:07:10:fb:
                    9b:ba:50:05:63:8e:73:20:82:75:5e:ef:c4:f9:bf:
                    93:12:a4:d8:56:18:63:17:02:54:04:e1:e9:7e:59:
                    a7:48:53:b4:84:99:83:bf:9a:26:3b:22:70:56:62:
                    a7:63:48:55:f7:dc:2e:a0:15:0c:4c:5b:c4:70:38:
                    6d:3d:b1:97:1f:82:77:d9:c3:5c:91:99:bc:6d:34:
                    6d:74:c0:27:5d:41:e4:a1:ff:94:2b:76:ca:55:51:
                    ad:f6:f0:76:4a:72:f1:a7:bc:03:2d:90:94:51:a5:
                    96:3a:d9:78:fb:1d:3b:61:ed:fc:ba:7f:0b:50:bb:
                    7a:ed:a6:86:4f:21:c6:0c:ff:df:d5:e1:3e:b4:cb:
                    a4:22:fd:23:1f:8c:53:90:bc:6b:f7:18:90:92:6d:
                    6e:4f:36:aa:88:a5:36:6b:f2:00:c0:a9:2c:74:6b:
                    2f:27:ce:23:6a:88:bd:4d:14:50:d2:9f:50:17:6b:
                    57:75:b5:87:05:5f:3b:71:6b:18:12:f4:c3:e3:91:
                    fa:6c:55:25:a4:de:00:d4:00:e6:65:61:95:20:1c:
                    f3:a7:21
                Exponent: 65537 (0x10001)
        X509v3 extensions:
            X509v3 Basic Constraints: 
                CA:FALSE
            Netscape Comment: 
                VPN User Certificate
            Netscape Cert Type: 
                SSL Client
            X509v3 Key Usage: 
                Digital Signature
            X509v3 Extended Key Usage: 
                TLS Web Client Authentication
            X509v3 Subject Key Identifier: 
                ED:7F:18:5B:0F:AF:15:85:A7:CA:13:D1:77:A4:BD:5C:4C:67:AA:EE
            X509v3 Authority Key Identifier: 
                keyid:86:4F:B8:6D:18:2A:1B:3C:8F:27:34:29:F0:81:9F:BA:6E:61:0E:E1
                DirName:/C=CH/ST=Zug/L=Zug/O=Perfect Privacy/CN=Perfect Privacy/emailAddress=admin@perfect-privacy.com
                serial:FA:11:B5:C4:AA:69:AF:69

    Signature Algorithm: sha512WithRSAEncryption
         8a:23:08:fe:6d:c9:ff:0a:8e:c4:a5:c4:bc:83:f3:67:38:88:
         8c:ea:24:b4:1e:dd:df:76:ff:a6:88:ea:7a:fe:05:2f:6f:9a:
         ad:7b:aa:b6:70:0c:78:9d:9c:ac:b4:b9:27:e4:6a:37:3c:69:
         de:52:bb:b5:d8:e3:67:fb:bb:b6:f1:47:02:64:ed:c1:8e:7d:
         bd:bb:af:82:c0:24:25:1a:1f:47:e9:de:c4:10:48:f3:bb:e2:
         9f:23:18:b7:c0:83:2e:60:ed:36:bf:3e:d6:6a:ee:c5:ab:c0:
         17:cc:0e:cb:5e:a5:57:aa:92:ca:17:94:b3:a8:ed:16:b8:35:
         79:11:b9:2d:53:f0:66:4b:24:f0:6d:96:20:2c:63:00:bd:9d:
         55:80:37:26:10:70:56:f1:19:2c:1f:cb:0e:1f:2c:93:4d:14:
         3f:3d:bf:ee:b1:69:57:bf:39:ff:13:e8:89:bc:3b:f1:46:38:
         25:15:6b:d4:e4:28:66:f4:37:bd:56:19:da:bf:f0:d0:97:02:
         8d:7a:fe:1e:6f:4d:66:70:c6:52:f6:3e:93:a3:02:83:a3:78:
         09:12:d0:fa:4e:7b:67:58:26:fd:01:38:bf:c6:a9:17:b4:c6:
         b3:2c:c1:c8:79:3f:6f:7e:f7:60:6d:9d:f5:f0:8a:96:11:b5:
         61:0c:93:51:a2:46:ad:03:36:00:89:32:f6:83:b0:40:24:d1:
         f3:37:40:c8:db:c5:28:8c:49:b2:1f:21:f5:15:29:b8:04:7e:
         e9:ea:b8:a5:60:cd:b7:36:9b:87:0a:6f:5b:32:87:5a:f3:11:
         ea:99:b7:60:83:11:e5:72:c6:7a:1d:ed:a0:2f:f5:7c:64:a3:
         0b:8c:89:3c:c5:3e:c0:f3:fd:11:51:54:ba:71:dd:4d:3a:ff:
         ec:c0:fa:63:6e:09:9e:bf:c7:fb:ce:95:e0:08:34:09:76:92:
         5b:8d:78:f2:e7:ba:2c:4f:76:c9:1b:33:88:ec:89:62:cb:78:
         2f:66:9c:9d:9f:f0:71:7a:88:64:61:dd:e1:a1:34:2e:15:93:
         e9:17:fa:62:b9:a6:32:60:b5:9a:98:ff:5b:de:16:ac:16:18:
         e1:b7:b8:41:5e:22:a4:20:ac:c2:0b:44:bc:2f:85:c5:f7:57:
         32:a7:53:b3:83:47:f8:bf:f3:71:fa:c0:a4:f9:3c:2e:e8:0b:
         6d:db:ce:bf:90:81:19:49:95:6c:f2:d9:a0:86:46:d8:9b:3b:
         91:71:c5:ad:3b:9b:98:be:71:c1:66:f6:91:56:8d:a5:ce:91:
         e6:4b:2a:6e:30:91:91:f2:0b:7f:6a:a1:aa:76:c5:07:5d:21:
         e6:32:b7:a8:22:0a:f3:8e
-----BEGIN CERTIFICATE-----
MIIG3zCCBMegAwIBAgIIRFH8ToVjNMwwDQYJKoZIhvcNAQENBQAwgYcxCzAJBgNV
BAYTAkNIMQwwCgYDVQQIEwNadWcxDDAKBgNVBAcTA1p1ZzEYMBYGA1UEChMPUGVy
ZmVjdCBQcml2YWN5MRgwFgYDVQQDEw9QZXJmZWN0IFByaXZhY3kxKDAmBgkqhkiG
9w0BCQEWGWFkbWluQHBlcmZlY3QtcHJpdmFjeS5jb20wHhcNMjQwNjE2MDAwMDAw
WhcNMjYwMjExMDAwMDAwWjCBizELMAkGA1UEBhMCQ0gxDDAKBgNVBAgTA1p1ZzEY
MBYGA1UEChMPUGVyZmVjdCBQcml2YWN5MSowKAYDVQQDFCFDbGllbnRfdmllbm5h
LnBlcmZlY3QtcHJpdmFjeS5jb20xKDAmBgkqhkiG9w0BCQEWGWFkbWluQHBlcmZl
Y3QtcHJpdmFjeS5jb20wggIiMA0GCSqGSIb3DQEBAQUAA4ICDwAwggIKAoICAQC/
HeiuFyuwKOVrPAYyTZbS8lh4lmBWS9oLP8jNKH1YyoAmKuWRkRXKNOxiH77V4b4y
Y6keNH4HUKAuUayFnpi0k4wPunIOiYJjZaqP68a1GszDsrAYBDFoZWcAyVQKy3nI
VvRdL2un72Ey6XO7QR6k3WVo30Fc+ZCcjyiqKhkUtCq+OuXFgxTwdpQjSc/K5XCZ
cH0n+2s7vw4UC6Z2TxUeIeOPYGcOD+bl0HBeDQNEdN2k2OMYulDW9jLvqmOUhfJw
1rEAVKqR1QJZxhv0LiMOF6kHkuei5DzxLzqbLTYAzhYMgdx1KuvueSXiPL7cqFZf
YjWrsXMv+DyARwGETlHRZDifNmM14L9dLXirG1f6J2NFL5T5SPLQiJ3gdqhd6ak5
g5Nk+D2GzgcQ+5u6UAVjjnMggnVe78T5v5MSpNhWGGMXAlQE4el+WadIU7SEmYO/
miY7InBWYqdjSFX33C6gFQxMW8RwOG09sZcfgnfZw1yRmbxtNG10wCddQeSh/5Qr
dspVUa328HZKcvGnvAMtkJRRpZY62Xj7HTth7fy6fwtQu3rtpoZPIcYM/9/V4T60
y6Qi/SMfjFOQvGv3GJCSbW5PNqqIpTZr8gDAqSx0ay8nziNqiL1NFFDSn1AXa1d1
tYcFXztxaxgS9MPjkfpsVSWk3gDUAOZlYZUgHPOnIQIDAQABo4IBRzCCAUMwCQYD
VR0TBAIwADAjBglghkgBhvhCAQ0EFhYUVlBOIFVzZXIgQ2VydGlmaWNhdGUwEQYJ
YIZIAYb4QgEBBAQDAgeAMAsGA1UdDwQEAwIHgDATBgNVHSUEDDAKBggrBgEFBQcD
AjAdBgNVHQ4EFgQU7X8YWw+vFYWnyhPRd6S9XExnqu4wgbwGA1UdIwSBtDCBsYAU
hk+4bRgqGzyPJzQp8IGfum5hDuGhgY2kgYowgYcxCzAJBgNVBAYTAkNIMQwwCgYD
VQQIEwNadWcxDDAKBgNVBAcTA1p1ZzEYMBYGA1UEChMPUGVyZmVjdCBQcml2YWN5
MRgwFgYDVQQDEw9QZXJmZWN0IFByaXZhY3kxKDAmBgkqhkiG9w0BCQEWGWFkbWlu
QHBlcmZlY3QtcHJpdmFjeS5jb22CCQD6EbXEqmmvaTANBgkqhkiG9w0BAQ0FAAOC
AgEAiiMI/m3J/wqOxKXEvIPzZziIjOoktB7d33b/pojqev4FL2+arXuqtnAMeJ2c
rLS5J+RqNzxp3lK7tdjjZ/u7tvFHAmTtwY59vbuvgsAkJRofR+nexBBI87vinyMY
t8CDLmDtNr8+1mruxavAF8wOy16lV6qSyheUs6jtFrg1eRG5LVPwZksk8G2WICxj
AL2dVYA3JhBwVvEZLB/LDh8sk00UPz2/7rFpV785/xPoibw78UY4JRVr1OQoZvQ3
vVYZ2r/w0JcCjXr+Hm9NZnDGUvY+k6MCg6N4CRLQ+k57Z1gm/QE4v8apF7TGsyzB
yHk/b373YG2d9fCKlhG1YQyTUaJGrQM2AIky9oOwQCTR8zdAyNvFKIxJsh8h9RUp
uAR+6eq4pWDNtzabhwpvWzKHWvMR6pm3YIMR5XLGeh3toC/1fGSjC4yJPMU+wPP9
EVFUunHdTTr/7MD6Y24Jnr/H+86V4Ag0CXaSW4148ue6LE92yRsziOyJYst4L2ac
nZ/wcXqIZGHd4aE0LhWT6Rf6YrmmMmC1mpj/W94WrBYY4be4QV4ipCCswgtEvC+F
xfdXMqdTs4NH+L/zcfrApPk8LugLbdvOv5CBGUmVbPLZoIZG2Js7kXHFrTubmL5x
wWb2kVaNpc6R5ksqbjCRkfILf2qhqnbFB10h5jK3qCIK844=
-----END CERTIFICATE-----
