Certificate:
    Data:
        Version: 3 (0x2)
        Serial Number:
            cf:c0:8b:31:4d:00:a7:8a
    Signature Algorithm: sha512WithRSAEncryption
        Issuer: C=CH, ST=Zug, L=Zug, O=Perfect Privacy, CN=Perfect Privacy/emailAddress=admin@perfect-privacy.com
        Validity
            Not Before: Jan 19 00:00:00 2023 GMT
            Not After : Sep 15 00:00:00 2024 GMT
        Subject: C=CH, ST=Zug, O=Perfect Privacy, CN=Client_vienna.perfect-privacy.com/emailAddress=admin@perfect-privacy.com
        Subject Public Key Info:
            Public Key Algorithm: rsaEncryption
                Public-Key: (4096 bit)
                Modulus:
                    00:f1:6b:84:fb:69:00:d8:c9:60:c9:af:d7:1d:b9:
                    ba:ef:f8:87:c8:2f:31:53:9a:29:63:4e:40:92:a1:
                    51:af:3b:72:47:f3:39:fd:5e:0c:9b:9f:63:5d:b5:
                    a6:c0:cc:b2:65:ed:c3:02:0f:2a:29:20:fe:54:d1:
                    a3:85:cc:eb:39:3a:51:e2:f8:4c:f8:05:02:eb:7f:
                    6c:66:ef:37:3d:f0:93:45:56:e6:93:da:09:fd:fc:
                    49:28:c3:2a:1b:67:d7:42:1d:3c:84:4c:01:49:a5:
                    fd:c4:22:cc:5e:dc:5b:40:b9:3e:c6:90:67:27:c5:
                    2e:75:c7:41:61:d4:40:f8:d3:63:3a:43:a7:c4:2b:
                    ba:71:67:fb:6a:73:2d:ee:fa:de:6d:48:1c:48:bb:
                    50:2d:1e:5a:98:49:b6:34:54:68:c0:e4:a5:2d:05:
                    f9:c1:55:26:06:42:88:90:c3:b8:3b:70:ee:f3:42:
                    03:50:56:67:6f:18:4c:24:56:ce:45:ac:68:a1:6a:
                    8e:5a:a7:68:99:99:84:ae:e8:a6:9f:d9:a5:45:0e:
                    cf:f2:a2:06:ca:5d:e0:02:9a:3f:1d:0d:01:1f:b8:
                    ac:77:4f:40:ff:26:b9:fb:14:81:e4:fa:40:b9:0e:
                    6b:8b:9d:a5:43:9b:6c:27:5f:7c:e9:c9:47:93:8c:
                    b3:ff:84:1f:d0:1d:f8:37:b4:b6:39:59:41:b6:28:
                    03:18:8b:7d:69:1e:38:31:8a:39:14:dd:99:18:a2:
                    ac:67:1d:38:c0:22:94:02:45:9c:4b:81:1d:1b:a4:
                    11:53:b8:5d:22:1d:8c:b4:8d:45:d0:86:dd:ad:69:
                    2d:2b:c5:89:3b:f9:49:ca:b6:6b:c1:0e:08:f1:da:
                    a7:7d:32:f7:af:68:c5:ee:14:2e:ee:98:68:5d:fa:
                    1a:35:d8:c4:e9:8e:05:a4:cc:a2:bd:29:b5:ce:d2:
                    3d:12:17:df:db:6c:cb:5a:bc:86:5a:96:a7:a0:53:
                    2c:d4:43:38:d7:a5:db:23:fa:e2:00:e1:c4:4a:23:
                    02:7e:78:42:da:de:95:04:81:bb:00:47:e8:c6:5e:
                    b5:3f:81:df:48:ec:c7:72:7f:70:21:f4:46:16:12:
                    6c:9d:62:4d:77:7a:ae:ea:6b:4a:ff:bc:a0:d0:f3:
                    a2:be:09:71:74:63:77:99:69:af:3c:fa:b1:26:ce:
                    5c:0c:1c:e6:31:1d:de:2b:ed:3b:f5:74:56:19:3c:
                    72:37:16:d1:e6:0f:4c:83:88:26:7d:bf:9d:59:e0:
                    a6:d6:40:58:17:d9:10:57:32:67:e1:c4:d5:94:b0:
                    58:8f:8d:cf:10:e9:fd:d1:c8:d8:b2:23:57:b7:3a:
                    03:d3:d7
                Exponent: 65537 (0x10001)
        X509v3 extensions:
            X509v3 Basic Constraints: 
                CA:FALSE
            Netscape Comment: 
                VPN User Certificate
            Netscape Cert Type: 
                SSL Client
            X509v3 Key Usage: 
                Digital Signature
            X509v3 Extended Key Usage: 
                TLS Web Client Authentication
            X509v3 Subject Key Identifier: 
                26:DB:B8:C3:A3:88:4A:7F:7C:C7:BD:4C:CC:A5:8B:41:6A:DC:58:BE
            X509v3 Authority Key Identifier: 
                keyid:86:4F:B8:6D:18:2A:1B:3C:8F:27:34:29:F0:81:9F:BA:6E:61:0E:E1
                DirName:/C=CH/ST=Zug/L=Zug/O=Perfect Privacy/CN=Perfect Privacy/emailAddress=admin@perfect-privacy.com
                serial:FA:11:B5:C4:AA:69:AF:69

    Signature Algorithm: sha512WithRSAEncryption
         5a:a6:87:34:5e:2b:71:f1:e7:ae:7f:ab:56:06:82:88:6a:12:
         da:bf:ef:79:f5:a2:72:df:06:2b:d1:82:09:a4:ef:ae:1d:db:
         f3:21:82:cd:58:96:f5:6f:b3:ce:20:c6:d5:2a:cf:25:37:88:
         a4:08:e0:d0:d5:5c:05:34:a3:f9:72:bd:a6:8d:5e:f7:84:e1:
         bf:05:1d:2c:7a:d9:fa:aa:33:ca:cc:18:d2:5d:d4:1e:91:1f:
         cf:d4:6b:87:9a:1b:fa:08:a1:09:77:6d:fb:9c:13:1b:54:46:
         97:90:35:3c:ea:b6:22:db:7c:bb:da:7e:15:b6:b0:ed:ea:75:
         28:f2:be:23:90:57:7a:f6:67:70:ac:9b:a9:01:b1:74:8f:ab:
         a8:84:fe:bb:e7:fd:ed:a8:ab:d1:c2:ed:3d:8a:6c:40:55:f9:
         e4:20:e9:98:89:d6:8c:19:33:9d:31:d5:92:f3:5b:54:87:58:
         7e:68:2e:34:54:fd:ed:84:2b:ec:9e:29:8f:0f:bd:e6:34:39:
         bb:9e:8a:f5:f5:f8:40:68:a9:32:35:f6:b7:56:b2:4c:32:9d:
         47:10:c1:58:5e:07:52:69:11:23:26:0f:58:b8:9e:3b:c2:13:
         6a:8d:c5:e4:84:86:da:51:af:00:dd:28:93:39:92:61:cf:d6:
         fe:19:a3:e6:13:4e:6d:18:58:cd:0a:54:6a:a8:dc:73:d5:a7:
         6e:3f:fb:fc:e8:a4:56:e1:5c:09:4e:13:4b:1a:17:d3:48:fc:
         43:21:ac:d9:8e:14:21:0c:2b:91:b2:c0:ce:64:0b:b5:28:f9:
         85:62:7a:6d:0d:54:80:58:5f:f3:7b:1c:2b:c0:ee:27:02:38:
         65:a9:bb:3c:87:f5:14:6f:e8:7f:b2:29:56:c2:39:0a:0e:6b:
         f1:25:40:fa:dd:03:dc:8f:e7:74:97:ae:db:64:25:e3:3c:fd:
         cc:eb:ab:04:51:82:36:10:25:bc:8a:b1:ad:b6:c2:0e:f0:fa:
         23:b5:b8:57:7a:a5:b0:f9:ec:05:64:12:ea:6b:08:b7:d2:86:
         8f:ef:81:62:7d:2d:18:7b:6c:5c:31:8a:05:26:a6:5a:5a:3e:
         36:50:b7:43:1d:40:ca:a3:22:9f:04:b1:9d:cc:59:12:04:b2:
         66:11:79:70:3c:61:6f:60:85:db:42:8d:eb:05:34:81:a8:50:
         56:3b:fd:c5:b0:05:ee:fe:a2:bc:39:6d:f2:07:88:4b:77:e8:
         05:0e:76:c1:83:d1:62:e3:20:6a:0d:b1:d8:26:ac:5c:78:c8:
         b6:08:be:b4:28:9e:39:16:24:8d:42:19:f6:70:1a:7e:2e:0f:
         b4:7e:68:f4:09:47:49:76
-----BEGIN CERTIFICATE-----
MIIG4DCCBMigAwIBAgIJAM/AizFNAKeKMA0GCSqGSIb3DQEBDQUAMIGHMQswCQYD
VQQGEwJDSDEMMAoGA1UECBMDWnVnMQwwCgYDVQQHEwNadWcxGDAWBgNVBAoTD1Bl
cmZlY3QgUHJpdmFjeTEYMBYGA1UEAxMPUGVyZmVjdCBQcml2YWN5MSgwJgYJKoZI
hvcNAQkBFhlhZG1pbkBwZXJmZWN0LXByaXZhY3kuY29tMB4XDTIzMDExOTAwMDAw
MFoXDTI0MDkxNTAwMDAwMFowgYsxCzAJBgNVBAYTAkNIMQwwCgYDVQQIEwNadWcx
GDAWBgNVBAoTD1BlcmZlY3QgUHJpdmFjeTEqMCgGA1UEAxQhQ2xpZW50X3ZpZW5u
YS5wZXJmZWN0LXByaXZhY3kuY29tMSgwJgYJKoZIhvcNAQkBFhlhZG1pbkBwZXJm
ZWN0LXByaXZhY3kuY29tMIICIjANBgkqhkiG9w0BAQEFAAOCAg8AMIICCgKCAgEA
8WuE+2kA2Mlgya/XHbm67/iHyC8xU5opY05AkqFRrztyR/M5/V4Mm59jXbWmwMyy
Ze3DAg8qKSD+VNGjhczrOTpR4vhM+AUC639sZu83PfCTRVbmk9oJ/fxJKMMqG2fX
Qh08hEwBSaX9xCLMXtxbQLk+xpBnJ8UudcdBYdRA+NNjOkOnxCu6cWf7anMt7vre
bUgcSLtQLR5amEm2NFRowOSlLQX5wVUmBkKIkMO4O3Du80IDUFZnbxhMJFbORaxo
oWqOWqdomZmEruimn9mlRQ7P8qIGyl3gApo/HQ0BH7isd09A/ya5+xSB5PpAuQ5r
i52lQ5tsJ1986clHk4yz/4Qf0B34N7S2OVlBtigDGIt9aR44MYo5FN2ZGKKsZx04
wCKUAkWcS4EdG6QRU7hdIh2MtI1F0IbdrWktK8WJO/lJyrZrwQ4I8dqnfTL3r2jF
7hQu7phoXfoaNdjE6Y4FpMyivSm1ztI9Ehff22zLWryGWpanoFMs1EM416XbI/ri
AOHESiMCfnhC2t6VBIG7AEfoxl61P4HfSOzHcn9wIfRGFhJsnWJNd3qu6mtK/7yg
0POivglxdGN3mWmvPPqxJs5cDBzmMR3eK+079XRWGTxyNxbR5g9Mg4gmfb+dWeCm
1kBYF9kQVzJn4cTVlLBYj43PEOn90cjYsiNXtzoD09cCAwEAAaOCAUcwggFDMAkG
A1UdEwQCMAAwIwYJYIZIAYb4QgENBBYWFFZQTiBVc2VyIENlcnRpZmljYXRlMBEG
CWCGSAGG+EIBAQQEAwIHgDALBgNVHQ8EBAMCB4AwEwYDVR0lBAwwCgYIKwYBBQUH
AwIwHQYDVR0OBBYEFCbbuMOjiEp/fMe9TMyli0Fq3Fi+MIG8BgNVHSMEgbQwgbGA
FIZPuG0YKhs8jyc0KfCBn7puYQ7hoYGNpIGKMIGHMQswCQYDVQQGEwJDSDEMMAoG
A1UECBMDWnVnMQwwCgYDVQQHEwNadWcxGDAWBgNVBAoTD1BlcmZlY3QgUHJpdmFj
eTEYMBYGA1UEAxMPUGVyZmVjdCBQcml2YWN5MSgwJgYJKoZIhvcNAQkBFhlhZG1p
bkBwZXJmZWN0LXByaXZhY3kuY29tggkA+hG1xKppr2kwDQYJKoZIhvcNAQENBQAD
ggIBAFqmhzReK3Hx565/q1YGgohqEtq/73n1onLfBivRggmk764d2/Mhgs1YlvVv
s84gxtUqzyU3iKQI4NDVXAU0o/lyvaaNXveE4b8FHSx62fqqM8rMGNJd1B6RH8/U
a4eaG/oIoQl3bfucExtURpeQNTzqtiLbfLvafhW2sO3qdSjyviOQV3r2Z3Csm6kB
sXSPq6iE/rvn/e2oq9HC7T2KbEBV+eQg6ZiJ1owZM50x1ZLzW1SHWH5oLjRU/e2E
K+yeKY8PveY0ObueivX1+EBoqTI19rdWskwynUcQwVheB1JpESMmD1i4njvCE2qN
xeSEhtpRrwDdKJM5kmHP1v4Zo+YTTm0YWM0KVGqo3HPVp24/+/zopFbhXAlOE0sa
F9NI/EMhrNmOFCEMK5GywM5kC7Uo+YViem0NVIBYX/N7HCvA7icCOGWpuzyH9RRv
6H+yKVbCOQoOa/ElQPrdA9yP53SXrttkJeM8/czrqwRRgjYQJbyKsa22wg7w+iO1
uFd6pbD57AVkEuprCLfSho/vgWJ9LRh7bFwxigUmplpaPjZQt0MdQMqjIp8EsZ3M
WRIEsmYReXA8YW9ghdtCjesFNIGoUFY7/cWwBe7+orw5bfIHiEt36AUOdsGD0WLj
IGoNsdgmrFx4yLYIvrQonjkWJI1CGfZwGn4uD7R+aPQJR0l2
-----END CERTIFICATE-----
