Certificate:
    Data:
        Version: 3 (0x2)
        Serial Number: 3066204683379475137 (0x2a8d58ea017902c1)
    Signature Algorithm: sha512WithRSAEncryption
        Issuer: C=CH, ST=Zug, L=Zug, O=Perfect Privacy, CN=Perfect Privacy/emailAddress=admin@perfect-privacy.com
        Validity
            Not Before: Jul 28 00:00:00 2023 GMT
            Not After : Mar 24 00:00:00 2025 GMT
        Subject: C=CH, ST=Zug, O=Perfect Privacy, CN=Client_warsaw.perfect-privacy.com/emailAddress=admin@perfect-privacy.com
        Subject Public Key Info:
            Public Key Algorithm: rsaEncryption
                Public-Key: (4096 bit)
                Modulus:
                    00:d5:24:48:54:73:d6:7e:ad:57:e0:ff:60:ba:20:
                    6a:c8:fb:cd:b6:93:1a:f1:00:f5:00:b9:00:0b:e8:
                    43:a9:de:a5:5c:d4:33:25:95:7c:fe:8e:3e:cc:fc:
                    5f:0f:b9:25:da:57:db:13:bb:20:98:3e:ba:00:6a:
                    60:33:f6:bd:ce:06:35:3f:7c:90:12:43:7d:7a:18:
                    4a:c9:b2:68:d9:f1:2b:a9:21:19:95:79:74:3e:01:
                    30:93:29:88:a9:ca:37:98:1a:f5:48:c8:a2:5a:6c:
                    03:e3:5f:e1:4c:4f:d8:16:78:0a:c7:f9:be:0a:5d:
                    f2:f0:9b:a3:e3:6a:36:28:88:22:69:d0:60:e2:fd:
                    29:2a:e9:64:1d:53:00:f9:6f:02:1c:79:54:f3:8a:
                    65:b9:7b:2c:74:c9:5d:3f:ba:94:45:e1:4f:0b:1d:
                    bd:66:8c:d8:62:36:1b:c7:ab:11:41:59:3c:f7:0b:
                    9d:0a:c4:a0:07:18:23:b1:a0:d4:f4:8c:68:dd:93:
                    79:44:43:44:53:0b:6a:86:1a:93:bd:5f:0e:04:e8:
                    95:b4:bb:fc:1f:92:07:b9:ae:9b:75:94:d2:97:bf:
                    ae:37:39:2f:e9:e4:b8:5f:61:be:49:51:ed:79:58:
                    bb:14:cd:b9:f2:44:d3:7d:d6:44:e1:e6:c5:10:c7:
                    52:bb:e7:ed:94:0c:5b:b1:07:55:69:12:46:88:2b:
                    13:6e:89:9f:de:d3:ec:f1:24:70:98:97:5b:d7:c8:
                    a7:fc:5c:52:f5:5e:01:10:4a:81:e7:b5:8e:3c:d2:
                    c3:6a:52:a1:73:7f:ff:16:ba:61:07:7e:88:ac:a0:
                    c0:4d:d8:a5:d2:10:0c:57:d1:15:c8:90:f3:25:95:
                    15:da:01:e1:ff:b4:a5:17:e7:dd:42:49:2c:b8:39:
                    63:6d:82:08:fa:0c:67:1c:ca:cc:42:9e:da:32:b9:
                    13:fd:8a:2c:fc:96:a4:45:d2:fd:2d:5f:5f:bc:cc:
                    11:54:32:5f:c9:f2:29:d4:8f:f2:8f:d8:95:b6:78:
                    9d:82:65:a3:71:ad:5e:0c:1c:4d:98:61:e0:92:91:
                    95:56:22:33:06:7a:45:a9:1a:73:9b:de:9b:38:1c:
                    e6:ef:2a:e8:d9:c0:1f:b9:d5:45:ba:28:82:40:42:
                    0e:36:ff:76:3d:fb:0c:0e:3b:67:7f:81:28:b7:5a:
                    4f:79:eb:1c:7c:c3:1c:b9:11:de:ce:66:46:82:41:
                    27:d9:33:e1:45:2f:65:f8:ad:9b:77:e8:f9:69:93:
                    69:51:0e:71:5a:c3:ee:92:f4:c4:2d:65:b9:84:ec:
                    60:de:ab:9c:61:1d:c0:b8:dd:40:da:28:cd:23:89:
                    8a:3a:bf
                Exponent: 65537 (0x10001)
        X509v3 extensions:
            X509v3 Basic Constraints: 
                CA:FALSE
            Netscape Comment: 
                VPN User Certificate
            Netscape Cert Type: 
                SSL Client
            X509v3 Key Usage: 
                Digital Signature
            X509v3 Extended Key Usage: 
                TLS Web Client Authentication
            X509v3 Subject Key Identifier: 
                4B:77:61:9A:62:91:69:C6:3B:17:F6:F1:78:1D:51:0B:C8:B5:23:5E
            X509v3 Authority Key Identifier: 
                keyid:86:4F:B8:6D:18:2A:1B:3C:8F:27:34:29:F0:81:9F:BA:6E:61:0E:E1
                DirName:/C=CH/ST=Zug/L=Zug/O=Perfect Privacy/CN=Perfect Privacy/emailAddress=admin@perfect-privacy.com
                serial:FA:11:B5:C4:AA:69:AF:69

    Signature Algorithm: sha512WithRSAEncryption
         5c:53:32:9c:00:b5:07:e0:d4:77:56:17:5b:37:4b:7b:4b:8b:
         73:a6:af:93:32:fe:a4:12:1e:e5:a2:95:e7:1a:70:52:0e:5b:
         ee:36:cc:78:a8:5d:2e:a9:c4:c2:99:c7:8f:da:5e:d4:7b:e7:
         35:f3:20:30:88:79:45:47:1c:48:59:1f:69:f9:ff:ee:87:ff:
         f4:b5:fc:42:e8:2a:43:b7:5d:ba:f3:14:2f:b3:b5:68:b8:7b:
         cc:e9:57:7d:f9:84:aa:6d:24:7b:81:fa:d7:05:21:7b:85:b0:
         82:7c:c7:e7:7e:a2:c3:42:d5:64:57:3f:c8:97:ef:92:5f:5e:
         62:dd:4e:33:5d:f8:61:bb:5f:36:71:74:a2:97:75:71:ea:1a:
         0f:1e:fb:02:72:dd:52:23:34:ed:b6:85:f7:81:6a:f8:9a:20:
         34:49:d0:4c:04:43:f8:27:43:ec:0f:4b:58:4b:c2:86:d1:04:
         2a:4a:49:d9:87:27:34:26:a0:79:80:13:db:89:55:bf:eb:83:
         8c:5e:2c:ff:2e:f8:2d:e3:fc:5b:40:67:96:12:ba:c0:a8:45:
         6b:1f:0d:a6:2e:40:2b:70:b4:53:39:96:a8:ce:d2:86:4d:c6:
         13:88:05:5d:e6:ba:45:4a:52:36:ab:24:03:f0:42:2f:cb:f3:
         8d:1b:6d:b5:6b:de:4d:3a:81:b0:df:6e:71:06:b3:d4:27:48:
         78:d8:b4:87:82:a8:07:11:27:62:53:7d:bc:5c:d1:28:c7:a7:
         23:91:ff:22:0a:78:f3:25:4b:31:29:f0:7d:4d:0e:e2:e3:be:
         0f:f2:5b:6b:fe:bb:d5:a1:2c:20:52:fb:ba:09:3b:6e:43:40:
         9e:b2:e1:0a:e8:d6:26:48:9b:be:47:13:8d:3b:e4:8f:42:38:
         8c:79:f5:87:a1:7d:2b:15:b0:78:8c:9c:1b:64:c9:16:76:87:
         e7:4b:1b:d5:50:6a:f4:64:b2:da:e7:bd:98:f9:38:68:e4:ef:
         7a:78:19:18:58:f5:43:7b:c2:b8:63:e2:4a:eb:6c:b9:ea:39:
         bd:e6:2d:a9:0f:0b:e6:63:b3:bf:46:10:2a:98:7e:45:74:2f:
         d6:6c:8a:53:51:40:3d:ce:85:f9:da:b0:c7:ee:fe:79:35:7f:
         d4:15:3f:f2:be:55:a8:2c:fd:a6:df:76:6a:88:ce:ea:ed:e9:
         78:25:51:0f:8b:77:d5:b8:c8:66:21:10:6e:2e:ed:7b:dc:e1:
         5a:17:4b:da:f0:f4:7a:72:2e:8c:1b:c3:3c:7a:a4:bf:e2:33:
         37:e7:5e:e3:21:41:cf:e2:53:ee:bb:da:14:56:63:2a:b6:00:
         6b:c3:1f:c6:64:61:4a:3c
-----BEGIN CERTIFICATE-----
MIIG3zCCBMegAwIBAgIIKo1Y6gF5AsEwDQYJKoZIhvcNAQENBQAwgYcxCzAJBgNV
BAYTAkNIMQwwCgYDVQQIEwNadWcxDDAKBgNVBAcTA1p1ZzEYMBYGA1UEChMPUGVy
ZmVjdCBQcml2YWN5MRgwFgYDVQQDEw9QZXJmZWN0IFByaXZhY3kxKDAmBgkqhkiG
9w0BCQEWGWFkbWluQHBlcmZlY3QtcHJpdmFjeS5jb20wHhcNMjMwNzI4MDAwMDAw
WhcNMjUwMzI0MDAwMDAwWjCBizELMAkGA1UEBhMCQ0gxDDAKBgNVBAgTA1p1ZzEY
MBYGA1UEChMPUGVyZmVjdCBQcml2YWN5MSowKAYDVQQDFCFDbGllbnRfd2Fyc2F3
LnBlcmZlY3QtcHJpdmFjeS5jb20xKDAmBgkqhkiG9w0BCQEWGWFkbWluQHBlcmZl
Y3QtcHJpdmFjeS5jb20wggIiMA0GCSqGSIb3DQEBAQUAA4ICDwAwggIKAoICAQDV
JEhUc9Z+rVfg/2C6IGrI+822kxrxAPUAuQAL6EOp3qVc1DMllXz+jj7M/F8PuSXa
V9sTuyCYProAamAz9r3OBjU/fJASQ316GErJsmjZ8SupIRmVeXQ+ATCTKYipyjeY
GvVIyKJabAPjX+FMT9gWeArH+b4KXfLwm6PjajYoiCJp0GDi/Skq6WQdUwD5bwIc
eVTzimW5eyx0yV0/upRF4U8LHb1mjNhiNhvHqxFBWTz3C50KxKAHGCOxoNT0jGjd
k3lEQ0RTC2qGGpO9Xw4E6JW0u/wfkge5rpt1lNKXv643OS/p5LhfYb5JUe15WLsU
zbnyRNN91kTh5sUQx1K75+2UDFuxB1VpEkaIKxNuiZ/e0+zxJHCYl1vXyKf8XFL1
XgEQSoHntY480sNqUqFzf/8WumEHfoisoMBN2KXSEAxX0RXIkPMllRXaAeH/tKUX
591CSSy4OWNtggj6DGccysxCntoyuRP9iiz8lqRF0v0tX1+8zBFUMl/J8inUj/KP
2JW2eJ2CZaNxrV4MHE2YYeCSkZVWIjMGekWpGnOb3ps4HObvKujZwB+51UW6KIJA
Qg42/3Y9+wwOO2d/gSi3Wk956xx8wxy5Ed7OZkaCQSfZM+FFL2X4rZt36Plpk2lR
DnFaw+6S9MQtZbmE7GDeq5xhHcC43UDaKM0jiYo6vwIDAQABo4IBRzCCAUMwCQYD
VR0TBAIwADAjBglghkgBhvhCAQ0EFhYUVlBOIFVzZXIgQ2VydGlmaWNhdGUwEQYJ
YIZIAYb4QgEBBAQDAgeAMAsGA1UdDwQEAwIHgDATBgNVHSUEDDAKBggrBgEFBQcD
AjAdBgNVHQ4EFgQUS3dhmmKRacY7F/bxeB1RC8i1I14wgbwGA1UdIwSBtDCBsYAU
hk+4bRgqGzyPJzQp8IGfum5hDuGhgY2kgYowgYcxCzAJBgNVBAYTAkNIMQwwCgYD
VQQIEwNadWcxDDAKBgNVBAcTA1p1ZzEYMBYGA1UEChMPUGVyZmVjdCBQcml2YWN5
MRgwFgYDVQQDEw9QZXJmZWN0IFByaXZhY3kxKDAmBgkqhkiG9w0BCQEWGWFkbWlu
QHBlcmZlY3QtcHJpdmFjeS5jb22CCQD6EbXEqmmvaTANBgkqhkiG9w0BAQ0FAAOC
AgEAXFMynAC1B+DUd1YXWzdLe0uLc6avkzL+pBIe5aKV5xpwUg5b7jbMeKhdLqnE
wpnHj9pe1HvnNfMgMIh5RUccSFkfafn/7of/9LX8QugqQ7dduvMUL7O1aLh7zOlX
ffmEqm0ke4H61wUhe4WwgnzH536iw0LVZFc/yJfvkl9eYt1OM134YbtfNnF0opd1
ceoaDx77AnLdUiM07baF94Fq+JogNEnQTARD+CdD7A9LWEvChtEEKkpJ2YcnNCag
eYAT24lVv+uDjF4s/y74LeP8W0BnlhK6wKhFax8Npi5AK3C0UzmWqM7Shk3GE4gF
Xea6RUpSNqskA/BCL8vzjRtttWveTTqBsN9ucQaz1CdIeNi0h4KoBxEnYlN9vFzR
KMenI5H/Igp48yVLMSnwfU0O4uO+D/Jba/671aEsIFL7ugk7bkNAnrLhCujWJkib
vkcTjTvkj0I4jHn1h6F9KxWweIycG2TJFnaH50sb1VBq9GSy2ue9mPk4aOTvengZ
GFj1Q3vCuGPiSutsueo5veYtqQ8L5mOzv0YQKph+RXQv1myKU1FAPc6F+dqwx+7+
eTV/1BU/8r5VqCz9pt92aojO6u3peCVRD4t31bjIZiEQbi7te9zhWhdL2vD0enIu
jBvDPHqkv+IzN+de4yFBz+JT7rvaFFZjKrYAa8MfxmRhSjw=
-----END CERTIFICATE-----
