Certificate:
    Data:
        Version: 3 (0x2)
        Serial Number:
            9c:a7:38:5e:67:7c:18:5d
    Signature Algorithm: sha512WithRSAEncryption
        Issuer: C=CH, ST=Zug, L=Zug, O=Perfect Privacy, CN=Perfect Privacy/emailAddress=admin@perfect-privacy.com
        Validity
            Not Before: May  2 00:00:00 2024 GMT
            Not After : Dec 28 00:00:00 2025 GMT
        Subject: C=CH, ST=Zug, O=Perfect Privacy, CN=Client_warsaw.perfect-privacy.com/emailAddress=admin@perfect-privacy.com
        Subject Public Key Info:
            Public Key Algorithm: rsaEncryption
                Public-Key: (4096 bit)
                Modulus:
                    00:b8:d0:e1:84:96:21:d4:40:99:fd:75:a9:e9:2e:
                    31:8e:e6:eb:e2:5f:df:8b:ab:bc:da:98:18:11:ae:
                    ed:27:5f:47:1b:69:62:c5:5a:39:ec:d3:82:2b:59:
                    ef:4e:c4:eb:e5:fa:d7:de:c7:da:e4:cd:85:14:8b:
                    21:da:4b:55:cf:da:df:d7:ea:a1:9c:aa:ca:f5:53:
                    1f:16:23:c6:f4:65:b8:60:89:fb:b8:85:c5:4e:87:
                    62:24:67:79:d7:3c:d4:cb:b7:11:fe:38:b8:9f:c9:
                    b6:6c:3f:50:f5:d8:25:2b:7b:c0:72:0f:4c:7c:ae:
                    62:48:1a:a1:62:3d:6f:42:fa:26:1b:dd:14:78:7a:
                    4c:77:b5:1a:b2:a2:03:a3:e3:8e:1b:23:64:f1:1b:
                    b3:58:d9:da:f3:b2:14:46:3d:23:2b:70:81:98:3b:
                    ca:c9:7f:dd:22:75:04:2b:01:e1:16:c8:c0:3f:3f:
                    10:aa:99:ef:00:50:01:b0:a8:6e:33:c3:54:46:46:
                    aa:16:5d:65:51:f9:f7:7b:2a:0c:a4:3b:6d:6e:cc:
                    34:4d:8a:40:fa:bf:44:69:9a:d7:f6:f4:c1:d1:ca:
                    2f:99:5f:57:21:71:6a:ae:53:c5:c7:96:1e:ac:9d:
                    b0:d8:8b:06:70:f5:ab:c6:9a:6c:10:1a:ca:ce:45:
                    11:56:b5:49:01:e9:19:cc:79:b0:15:e5:f7:58:34:
                    47:05:d3:27:68:54:ca:17:cf:9a:0b:21:da:88:79:
                    62:c8:c8:48:c9:59:fc:9f:63:9b:75:fa:5c:41:36:
                    e2:ab:20:58:54:ac:05:46:ca:44:2f:a3:ee:bb:64:
                    93:8c:38:5c:1b:94:05:c9:3d:01:d7:69:ba:53:db:
                    45:b0:bb:98:7f:51:d2:4d:f2:f9:5f:6c:4a:15:76:
                    88:68:82:e5:0c:55:4e:df:81:89:e5:66:78:a7:d3:
                    95:ec:c6:2e:c5:1c:a3:2a:50:3a:93:2d:54:57:5b:
                    b6:54:57:56:8e:d0:92:c5:c5:28:40:54:1b:ca:6c:
                    81:e2:03:84:2a:5f:31:0c:d6:26:f4:f2:0a:a2:ce:
                    1b:0a:67:3d:b5:44:be:aa:8e:be:e7:46:f6:bb:5b:
                    cf:5e:f5:0f:13:0c:b8:ce:12:6c:c5:6b:32:96:ad:
                    92:15:2b:d1:0f:ba:8f:9f:e5:15:62:14:db:b2:8f:
                    8b:17:a8:55:48:5d:9d:eb:7f:7b:a5:e7:1b:81:2f:
                    4c:70:22:af:f8:bc:52:44:d0:cb:6c:1a:a1:2d:1b:
                    0d:6c:00:8d:fc:57:50:fd:0d:a4:91:47:f8:df:e7:
                    71:6c:35:cc:31:6c:cc:7b:41:45:11:a4:0d:3a:d8:
                    6f:dd:8d
                Exponent: 65537 (0x10001)
        X509v3 extensions:
            X509v3 Basic Constraints: 
                CA:FALSE
            Netscape Comment: 
                VPN User Certificate
            Netscape Cert Type: 
                SSL Client
            X509v3 Key Usage: 
                Digital Signature
            X509v3 Extended Key Usage: 
                TLS Web Client Authentication
            X509v3 Subject Key Identifier: 
                9F:45:51:94:4C:BB:32:47:F6:F4:6F:4A:94:68:AA:F2:54:67:92:5F
            X509v3 Authority Key Identifier: 
                keyid:86:4F:B8:6D:18:2A:1B:3C:8F:27:34:29:F0:81:9F:BA:6E:61:0E:E1
                DirName:/C=CH/ST=Zug/L=Zug/O=Perfect Privacy/CN=Perfect Privacy/emailAddress=admin@perfect-privacy.com
                serial:FA:11:B5:C4:AA:69:AF:69

    Signature Algorithm: sha512WithRSAEncryption
         0f:43:ae:a3:d9:54:44:03:cc:e4:09:3c:d9:ee:49:b3:b2:f4:
         ac:a5:27:3e:5b:0f:3e:c9:34:44:74:c2:3d:31:c1:ab:41:69:
         d2:80:8c:81:5a:fe:91:aa:78:46:5b:52:8d:16:42:52:92:11:
         58:ff:0e:b0:ed:2a:67:01:5c:f8:59:a6:f1:86:44:cf:53:ce:
         59:bd:5a:32:85:9b:7f:e2:fc:6d:dd:09:c0:b1:53:62:58:1b:
         3e:0e:e8:b6:ab:0e:63:e6:9d:4a:25:96:55:a4:24:86:22:d4:
         ff:a4:45:4e:8a:e8:06:c8:b9:2c:c5:ad:89:20:3e:db:69:a6:
         04:a6:86:e2:21:28:bf:e7:92:7d:5c:58:58:22:82:82:2d:2e:
         47:fc:0c:8d:52:b9:1d:f1:14:63:d4:67:a9:05:ba:b7:ed:55:
         9e:9b:1e:08:dd:1f:2b:a0:45:0c:5a:1c:2c:3b:b9:5b:94:4c:
         49:4d:00:1c:e4:9b:10:ee:11:96:21:80:80:89:d0:cf:c0:ec:
         73:79:16:7f:ae:64:7c:4b:4e:4f:c3:11:22:8b:9f:bd:4f:6f:
         ee:b2:24:52:4a:9a:f4:33:a1:4f:11:6c:60:f3:88:44:89:32:
         73:82:54:27:c7:13:27:e5:9b:dc:61:d6:11:90:26:65:d0:df:
         7b:b8:60:ed:cd:33:6c:f3:35:82:2f:63:d8:3a:f6:49:9b:91:
         c8:ba:72:af:b2:97:bb:cc:22:ab:99:f9:e5:5a:eb:3b:e7:62:
         16:e2:9f:88:cf:99:69:a5:0e:2b:b8:9d:95:1e:f5:2e:1f:73:
         82:00:01:11:0d:c6:ef:dd:18:4b:0e:8a:e3:16:aa:f5:a6:eb:
         7a:b6:58:72:4e:6f:3a:8a:44:19:04:44:e7:fe:9b:ba:e6:b5:
         ba:e3:e5:95:4d:b2:fd:16:ef:66:f0:45:24:36:56:f9:95:55:
         e2:72:e2:84:ff:2d:7a:df:42:03:d7:d8:72:2f:bd:57:0c:53:
         23:87:eb:df:b1:9b:67:91:ee:b6:38:64:42:1e:fc:35:a4:ba:
         b5:63:fd:b9:9a:f8:44:1f:8b:19:c6:21:f6:eb:45:ab:ee:a5:
         a2:8c:55:81:7e:14:fe:af:2f:ce:b9:1d:f6:cd:f3:f4:3b:9f:
         ce:49:ee:5f:82:57:45:0d:e0:5e:eb:71:f3:a1:31:8e:93:0f:
         7b:8d:98:91:a3:93:ee:69:2c:a8:96:bd:77:90:f5:1e:63:b7:
         5d:07:b1:46:22:be:c7:78:3c:ac:f6:f1:ca:1f:98:01:6f:20:
         c5:99:30:54:c8:64:35:50:ad:b0:18:f3:3f:83:8c:68:7e:3e:
         8d:f2:40:91:c0:b6:7b:89
-----BEGIN CERTIFICATE-----
MIIG4DCCBMigAwIBAgIJAJynOF5nfBhdMA0GCSqGSIb3DQEBDQUAMIGHMQswCQYD
VQQGEwJDSDEMMAoGA1UECBMDWnVnMQwwCgYDVQQHEwNadWcxGDAWBgNVBAoTD1Bl
cmZlY3QgUHJpdmFjeTEYMBYGA1UEAxMPUGVyZmVjdCBQcml2YWN5MSgwJgYJKoZI
hvcNAQkBFhlhZG1pbkBwZXJmZWN0LXByaXZhY3kuY29tMB4XDTI0MDUwMjAwMDAw
MFoXDTI1MTIyODAwMDAwMFowgYsxCzAJBgNVBAYTAkNIMQwwCgYDVQQIEwNadWcx
GDAWBgNVBAoTD1BlcmZlY3QgUHJpdmFjeTEqMCgGA1UEAxQhQ2xpZW50X3dhcnNh
dy5wZXJmZWN0LXByaXZhY3kuY29tMSgwJgYJKoZIhvcNAQkBFhlhZG1pbkBwZXJm
ZWN0LXByaXZhY3kuY29tMIICIjANBgkqhkiG9w0BAQEFAAOCAg8AMIICCgKCAgEA
uNDhhJYh1ECZ/XWp6S4xjubr4l/fi6u82pgYEa7tJ19HG2lixVo57NOCK1nvTsTr
5frX3sfa5M2FFIsh2ktVz9rf1+qhnKrK9VMfFiPG9GW4YIn7uIXFTodiJGd51zzU
y7cR/ji4n8m2bD9Q9dglK3vAcg9MfK5iSBqhYj1vQvomG90UeHpMd7UasqIDo+OO
GyNk8RuzWNna87IURj0jK3CBmDvKyX/dInUEKwHhFsjAPz8QqpnvAFABsKhuM8NU
RkaqFl1lUfn3eyoMpDttbsw0TYpA+r9EaZrX9vTB0covmV9XIXFqrlPFx5YerJ2w
2IsGcPWrxppsEBrKzkURVrVJAekZzHmwFeX3WDRHBdMnaFTKF8+aCyHaiHliyMhI
yVn8n2ObdfpcQTbiqyBYVKwFRspEL6Puu2STjDhcG5QFyT0B12m6U9tFsLuYf1HS
TfL5X2xKFXaIaILlDFVO34GJ5WZ4p9OV7MYuxRyjKlA6ky1UV1u2VFdWjtCSxcUo
QFQbymyB4gOEKl8xDNYm9PIKos4bCmc9tUS+qo6+50b2u1vPXvUPEwy4zhJsxWsy
lq2SFSvRD7qPn+UVYhTbso+LF6hVSF2d6397pecbgS9McCKv+LxSRNDLbBqhLRsN
bACN/FdQ/Q2kkUf43+dxbDXMMWzMe0FFEaQNOthv3Y0CAwEAAaOCAUcwggFDMAkG
A1UdEwQCMAAwIwYJYIZIAYb4QgENBBYWFFZQTiBVc2VyIENlcnRpZmljYXRlMBEG
CWCGSAGG+EIBAQQEAwIHgDALBgNVHQ8EBAMCB4AwEwYDVR0lBAwwCgYIKwYBBQUH
AwIwHQYDVR0OBBYEFJ9FUZRMuzJH9vRvSpRoqvJUZ5JfMIG8BgNVHSMEgbQwgbGA
FIZPuG0YKhs8jyc0KfCBn7puYQ7hoYGNpIGKMIGHMQswCQYDVQQGEwJDSDEMMAoG
A1UECBMDWnVnMQwwCgYDVQQHEwNadWcxGDAWBgNVBAoTD1BlcmZlY3QgUHJpdmFj
eTEYMBYGA1UEAxMPUGVyZmVjdCBQcml2YWN5MSgwJgYJKoZIhvcNAQkBFhlhZG1p
bkBwZXJmZWN0LXByaXZhY3kuY29tggkA+hG1xKppr2kwDQYJKoZIhvcNAQENBQAD
ggIBAA9DrqPZVEQDzOQJPNnuSbOy9KylJz5bDz7JNER0wj0xwatBadKAjIFa/pGq
eEZbUo0WQlKSEVj/DrDtKmcBXPhZpvGGRM9Tzlm9WjKFm3/i/G3dCcCxU2JYGz4O
6LarDmPmnUolllWkJIYi1P+kRU6K6AbIuSzFrYkgPttppgSmhuIhKL/nkn1cWFgi
goItLkf8DI1SuR3xFGPUZ6kFurftVZ6bHgjdHyugRQxaHCw7uVuUTElNABzkmxDu
EZYhgICJ0M/A7HN5Fn+uZHxLTk/DESKLn71Pb+6yJFJKmvQzoU8RbGDziESJMnOC
VCfHEyflm9xh1hGQJmXQ33u4YO3NM2zzNYIvY9g69kmbkci6cq+yl7vMIquZ+eVa
6zvnYhbin4jPmWmlDiu4nZUe9S4fc4IAARENxu/dGEsOiuMWqvWm63q2WHJObzqK
RBkEROf+m7rmtbrj5ZVNsv0W72bwRSQ2VvmVVeJy4oT/LXrfQgPX2HIvvVcMUyOH
69+xm2eR7rY4ZEIe/DWkurVj/bma+EQfixnGIfbrRavupaKMVYF+FP6vL865HfbN
8/Q7n85J7l+CV0UN4F7rcfOhMY6TD3uNmJGjk+5pLKiWvXeQ9R5jt10HsUYivsd4
PKz28cofmAFvIMWZMFTIZDVQrbAY8z+DjGh+Po3yQJHAtnuJ
-----END CERTIFICATE-----
