Certificate:
    Data:
        Version: 3 (0x2)
        Serial Number:
            d6:8d:95:e9:d6:35:d6:8a
    Signature Algorithm: sha512WithRSAEncryption
        Issuer: C=CH, ST=Zug, L=Zug, O=Perfect Privacy, CN=Perfect Privacy/emailAddress=admin@perfect-privacy.com
        Validity
            Not Before: Feb  3 00:00:00 2023 GMT
            Not After : Sep 30 00:00:00 2024 GMT
        Subject: C=CH, ST=Zug, O=Perfect Privacy, CN=Client_zurich.perfect-privacy.com/emailAddress=admin@perfect-privacy.com
        Subject Public Key Info:
            Public Key Algorithm: rsaEncryption
                Public-Key: (4096 bit)
                Modulus:
                    00:c1:9f:74:d7:b6:fa:f8:de:c9:e4:71:d4:40:ea:
                    d1:e1:ad:43:8b:25:b5:79:35:b2:21:d9:7f:bd:81:
                    54:5a:ab:66:50:3a:2f:a4:ca:b2:6c:02:9e:fa:e9:
                    02:25:f8:93:ea:b2:d0:cc:0c:08:fe:c6:4f:24:86:
                    5e:67:d7:95:60:cd:63:8f:d4:a8:6e:05:1a:63:4b:
                    12:ed:32:0b:8b:3d:3a:40:30:93:e4:b7:1c:01:5e:
                    7b:ee:9d:1c:fb:d9:23:32:54:96:4b:e4:b4:67:9a:
                    32:da:09:2b:90:4a:8f:d4:91:a3:8e:fb:e9:57:d9:
                    bc:65:7e:d5:d6:1f:da:96:0e:2d:2d:a5:37:53:50:
                    94:d7:17:09:1f:f6:c3:38:a5:c9:e5:fb:4d:bd:44:
                    e0:c9:ed:c7:c3:d1:11:15:15:f6:2d:95:bb:56:b0:
                    15:d5:6f:81:30:46:70:db:fc:a1:6a:aa:3c:3c:cf:
                    f4:2b:f7:bb:9c:41:f9:07:2c:51:b0:44:c3:14:0e:
                    0d:b3:11:30:45:1e:45:95:33:38:a6:13:05:46:d9:
                    c3:bb:ba:0f:16:fd:7d:97:fe:ad:aa:b6:4f:02:f3:
                    a6:f5:90:a6:30:53:63:98:ad:4a:50:00:39:41:a9:
                    91:5c:69:01:a4:c7:b6:e1:c7:cd:20:f9:d7:5b:2e:
                    1c:1b:17:b4:ef:75:ec:fa:32:21:ef:60:db:7e:01:
                    bd:68:c6:86:45:35:6a:2e:fa:44:c8:64:ee:f4:da:
                    95:36:99:c6:f5:7e:45:30:c0:1b:26:1e:ab:8d:0d:
                    cc:c3:a3:08:b7:c3:db:89:61:f2:1e:33:b4:3e:5c:
                    0b:82:fe:bb:5a:15:e2:4d:e2:62:19:e8:3e:d1:16:
                    8f:ba:27:7b:a3:3c:f3:15:63:f5:53:54:51:9a:ae:
                    8f:14:ca:57:de:70:c6:4d:81:4a:3c:5a:15:6a:d7:
                    36:93:d5:77:ef:dd:bc:60:e9:c1:ab:c7:da:1b:5a:
                    f8:e8:60:f0:be:69:bf:11:c9:c2:5b:72:3e:61:8a:
                    97:74:b2:d5:09:2d:74:55:db:10:8c:87:d0:35:b3:
                    c1:5e:b7:48:81:85:d8:d7:6f:60:fe:3e:38:90:32:
                    42:ea:9b:1a:ea:74:e7:3b:70:91:b0:20:a9:a7:d1:
                    9b:56:e1:97:a1:1d:3d:46:1e:af:d1:b4:b6:fe:18:
                    b1:a4:74:0a:4e:83:dd:4c:97:c5:43:d7:d8:1e:e5:
                    66:40:50:d8:d4:b9:58:54:3c:1c:48:97:00:2f:1f:
                    45:79:af:4e:47:05:36:95:96:15:fa:36:98:cc:a4:
                    63:8d:0b:ab:bc:45:de:4d:56:0e:dd:82:9a:9e:62:
                    e6:1e:43
                Exponent: 65537 (0x10001)
        X509v3 extensions:
            X509v3 Basic Constraints: 
                CA:FALSE
            Netscape Comment: 
                VPN User Certificate
            Netscape Cert Type: 
                SSL Client
            X509v3 Key Usage: 
                Digital Signature
            X509v3 Extended Key Usage: 
                TLS Web Client Authentication
            X509v3 Subject Key Identifier: 
                C5:47:27:0A:4D:03:B1:2A:0A:63:56:16:D2:44:CD:1C:43:B1:93:62
            X509v3 Authority Key Identifier: 
                keyid:86:4F:B8:6D:18:2A:1B:3C:8F:27:34:29:F0:81:9F:BA:6E:61:0E:E1
                DirName:/C=CH/ST=Zug/L=Zug/O=Perfect Privacy/CN=Perfect Privacy/emailAddress=admin@perfect-privacy.com
                serial:FA:11:B5:C4:AA:69:AF:69

    Signature Algorithm: sha512WithRSAEncryption
         42:7f:1b:68:05:6c:40:ad:7c:7d:2c:5f:23:cc:a7:2f:7f:60:
         9f:6d:ef:a1:3f:4f:6a:2d:3d:9b:bb:0e:a2:9b:a4:9c:e6:3e:
         77:5c:3c:be:76:c2:f0:7b:60:c2:e0:de:b2:71:cf:67:fe:74:
         d3:04:87:f5:6e:9f:25:65:bf:89:5b:55:a7:ed:45:d1:fd:69:
         14:e0:11:91:0a:af:5d:c5:53:01:c2:ba:5b:f7:57:5c:64:3d:
         51:87:33:ce:3b:8f:20:f9:35:01:5b:e5:4f:23:8d:cc:3b:8c:
         32:62:d6:31:8c:f6:f1:11:ec:4f:d4:d4:8a:96:08:00:61:b7:
         a2:36:c0:b2:4d:02:f4:54:88:64:f5:68:87:d6:d5:5b:bb:72:
         d4:1a:ce:7d:d5:a0:a0:88:2d:be:89:e1:6c:bb:4b:0a:4c:20:
         ca:ef:db:00:f1:1c:0f:fb:c5:a7:bc:fe:ac:ee:d4:7d:a3:13:
         60:ae:e8:ee:6f:d5:88:b0:69:48:21:cc:ce:8a:cd:99:db:e1:
         da:12:c2:06:08:c9:5c:13:ed:82:14:80:8c:95:f1:31:17:68:
         b0:87:8b:e6:3b:e5:a4:24:1b:ad:a9:fa:c3:d3:88:fe:a2:5a:
         aa:6d:70:09:19:e7:0e:4f:bb:37:1a:a7:14:36:33:a2:13:2c:
         8a:a7:2c:c8:5f:37:51:9c:d9:a0:8e:38:44:e3:88:01:76:dc:
         83:60:fb:cf:74:23:3a:c6:e5:d6:f7:b8:37:49:fc:22:86:67:
         0a:f7:e7:2c:b5:d3:e4:8c:fd:6b:38:e7:06:9b:d2:43:70:5b:
         ca:62:89:4d:0a:61:66:4a:6c:5a:bf:71:21:6c:2c:f0:4a:eb:
         c5:14:19:7c:02:bb:fd:bc:f6:e2:78:68:e0:a7:f8:8d:11:68:
         5f:39:ab:83:4d:96:ef:7e:c9:ad:a7:7c:6c:31:2a:a1:d5:1e:
         15:96:a5:11:b5:e7:e1:00:dc:37:1c:cb:84:21:b8:ce:7b:6c:
         2f:7b:83:3b:c9:e8:8e:9d:9d:83:fd:38:d8:89:81:f7:64:82:
         85:6f:1c:48:11:e9:c3:ea:9a:a9:28:c5:91:e7:ee:b1:c5:4b:
         a8:58:26:05:4b:d5:81:26:ed:f4:fb:ed:85:ba:0f:4c:e2:62:
         68:4e:22:d4:64:0e:58:03:71:ec:d0:cd:d9:69:18:c4:4d:fa:
         6f:5c:f4:62:f6:83:bf:a4:d1:e8:6e:b6:63:f3:35:38:a6:24:
         40:2b:e0:06:32:1f:cc:37:8c:86:85:23:55:20:d1:76:90:44:
         a4:4d:db:2d:ab:f6:11:c4:db:21:cd:61:9e:89:96:60:43:2b:
         65:60:ba:3f:3d:f9:ee:50
-----BEGIN CERTIFICATE-----
MIIG4DCCBMigAwIBAgIJANaNlenWNdaKMA0GCSqGSIb3DQEBDQUAMIGHMQswCQYD
VQQGEwJDSDEMMAoGA1UECBMDWnVnMQwwCgYDVQQHEwNadWcxGDAWBgNVBAoTD1Bl
cmZlY3QgUHJpdmFjeTEYMBYGA1UEAxMPUGVyZmVjdCBQcml2YWN5MSgwJgYJKoZI
hvcNAQkBFhlhZG1pbkBwZXJmZWN0LXByaXZhY3kuY29tMB4XDTIzMDIwMzAwMDAw
MFoXDTI0MDkzMDAwMDAwMFowgYsxCzAJBgNVBAYTAkNIMQwwCgYDVQQIEwNadWcx
GDAWBgNVBAoTD1BlcmZlY3QgUHJpdmFjeTEqMCgGA1UEAxQhQ2xpZW50X3p1cmlj
aC5wZXJmZWN0LXByaXZhY3kuY29tMSgwJgYJKoZIhvcNAQkBFhlhZG1pbkBwZXJm
ZWN0LXByaXZhY3kuY29tMIICIjANBgkqhkiG9w0BAQEFAAOCAg8AMIICCgKCAgEA
wZ9017b6+N7J5HHUQOrR4a1DiyW1eTWyIdl/vYFUWqtmUDovpMqybAKe+ukCJfiT
6rLQzAwI/sZPJIZeZ9eVYM1jj9SobgUaY0sS7TILiz06QDCT5LccAV577p0c+9kj
MlSWS+S0Z5oy2gkrkEqP1JGjjvvpV9m8ZX7V1h/alg4tLaU3U1CU1xcJH/bDOKXJ
5ftNvUTgye3Hw9ERFRX2LZW7VrAV1W+BMEZw2/yhaqo8PM/0K/e7nEH5ByxRsETD
FA4NsxEwRR5FlTM4phMFRtnDu7oPFv19l/6tqrZPAvOm9ZCmMFNjmK1KUAA5QamR
XGkBpMe24cfNIPnXWy4cGxe073Xs+jIh72DbfgG9aMaGRTVqLvpEyGTu9NqVNpnG
9X5FMMAbJh6rjQ3Mw6MIt8PbiWHyHjO0PlwLgv67WhXiTeJiGeg+0RaPuid7ozzz
FWP1U1RRmq6PFMpX3nDGTYFKPFoVatc2k9V37928YOnBq8faG1r46GDwvmm/EcnC
W3I+YYqXdLLVCS10VdsQjIfQNbPBXrdIgYXY129g/j44kDJC6psa6nTnO3CRsCCp
p9GbVuGXoR09Rh6v0bS2/hixpHQKToPdTJfFQ9fYHuVmQFDY1LlYVDwcSJcALx9F
ea9ORwU2lZYV+jaYzKRjjQurvEXeTVYO3YKanmLmHkMCAwEAAaOCAUcwggFDMAkG
A1UdEwQCMAAwIwYJYIZIAYb4QgENBBYWFFZQTiBVc2VyIENlcnRpZmljYXRlMBEG
CWCGSAGG+EIBAQQEAwIHgDALBgNVHQ8EBAMCB4AwEwYDVR0lBAwwCgYIKwYBBQUH
AwIwHQYDVR0OBBYEFMVHJwpNA7EqCmNWFtJEzRxDsZNiMIG8BgNVHSMEgbQwgbGA
FIZPuG0YKhs8jyc0KfCBn7puYQ7hoYGNpIGKMIGHMQswCQYDVQQGEwJDSDEMMAoG
A1UECBMDWnVnMQwwCgYDVQQHEwNadWcxGDAWBgNVBAoTD1BlcmZlY3QgUHJpdmFj
eTEYMBYGA1UEAxMPUGVyZmVjdCBQcml2YWN5MSgwJgYJKoZIhvcNAQkBFhlhZG1p
bkBwZXJmZWN0LXByaXZhY3kuY29tggkA+hG1xKppr2kwDQYJKoZIhvcNAQENBQAD
ggIBAEJ/G2gFbECtfH0sXyPMpy9/YJ9t76E/T2otPZu7DqKbpJzmPndcPL52wvB7
YMLg3rJxz2f+dNMEh/VunyVlv4lbVaftRdH9aRTgEZEKr13FUwHCulv3V1xkPVGH
M847jyD5NQFb5U8jjcw7jDJi1jGM9vER7E/U1IqWCABht6I2wLJNAvRUiGT1aIfW
1Vu7ctQazn3VoKCILb6J4Wy7SwpMIMrv2wDxHA/7xae8/qzu1H2jE2Cu6O5v1Yiw
aUghzM6KzZnb4doSwgYIyVwT7YIUgIyV8TEXaLCHi+Y75aQkG62p+sPTiP6iWqpt
cAkZ5w5PuzcapxQ2M6ITLIqnLMhfN1Gc2aCOOETjiAF23INg+890IzrG5db3uDdJ
/CKGZwr35yy10+SM/Ws45wab0kNwW8piiU0KYWZKbFq/cSFsLPBK68UUGXwCu/28
9uJ4aOCn+I0RaF85q4NNlu9+ya2nfGwxKqHVHhWWpRG15+EA3Dccy4QhuM57bC97
gzvJ6I6dnYP9ONiJgfdkgoVvHEgR6cPqmqkoxZHn7rHFS6hYJgVL1YEm7fT77YW6
D0ziYmhOItRkDlgDcezQzdlpGMRN+m9c9GL2g7+k0ehutmPzNTimJEAr4AYyH8w3
jIaFI1Ug0XaQRKRN2y2r9hHE2yHNYZ6JlmBDK2Vguj89+e5Q
-----END CERTIFICATE-----
