Certificate:
    Data:
        Version: 3 (0x2)
        Serial Number:
            a2:b5:38:6a:f2:d3:0c:ec
    Signature Algorithm: sha512WithRSAEncryption
        Issuer: C=CH, ST=Zug, L=Zug, O=Perfect Privacy, CN=Perfect Privacy/emailAddress=admin@perfect-privacy.com
        Validity
            Not Before: Jul 24 00:00:00 2023 GMT
            Not After : Mar 20 00:00:00 2025 GMT
        Subject: C=CH, ST=Zug, O=Perfect Privacy, CN=Client_zurich.perfect-privacy.com/emailAddress=admin@perfect-privacy.com
        Subject Public Key Info:
            Public Key Algorithm: rsaEncryption
                Public-Key: (4096 bit)
                Modulus:
                    00:ac:fb:55:6e:cc:21:3a:de:5e:e3:21:db:30:c6:
                    fb:4f:9c:15:a5:91:9e:34:31:70:5b:9d:51:41:51:
                    65:ca:ca:36:db:d1:7e:3f:4d:2a:7c:af:dc:40:01:
                    2a:4b:06:5f:b8:c4:69:c1:f9:bd:86:5c:9d:5e:ee:
                    65:4f:4c:39:ac:35:e0:3a:3b:51:6a:89:f1:89:ee:
                    2c:70:41:9a:76:e6:57:92:2d:fd:0d:60:51:17:6e:
                    be:d7:85:65:17:88:57:e1:9e:c2:17:4b:f6:3a:24:
                    85:c5:ef:11:75:9b:6c:92:b0:7e:8f:41:28:dd:cb:
                    d8:7a:ad:53:19:01:bd:e2:af:88:72:c9:bf:51:66:
                    d1:76:35:07:dc:27:71:1e:49:4c:fd:ea:00:63:b4:
                    fa:89:0d:07:96:b1:e5:6d:ad:7b:0c:45:58:33:19:
                    d5:a5:b6:a2:5c:3b:72:90:f9:d4:18:55:08:b9:29:
                    de:26:90:15:fc:24:e8:90:83:99:3e:2f:6c:3e:7b:
                    97:49:3a:ad:8f:d8:3d:e1:d9:4f:07:a8:e9:d9:86:
                    20:81:72:0c:8e:3a:dc:db:ad:c6:96:1a:99:4a:ae:
                    20:40:74:9d:02:f2:1b:b7:83:a0:d0:71:11:ad:4c:
                    fa:e5:00:ea:f7:43:22:d1:f3:dd:14:6f:d7:7c:1a:
                    7e:59:f8:8c:1c:e3:a6:6e:4f:3e:1a:3f:a9:da:6a:
                    c0:34:c6:e4:ca:5f:2c:f7:fa:bb:2b:9c:23:e9:d2:
                    24:68:24:0f:01:d2:6f:33:40:df:ea:64:4e:28:7a:
                    31:8c:5a:ed:de:e0:36:b0:1e:cf:e6:af:7c:cb:97:
                    7f:56:dc:b7:19:9c:a6:d0:35:16:0f:5b:08:8b:88:
                    51:59:06:77:5b:92:d3:2f:c9:ea:1d:96:f9:3f:e5:
                    b2:60:42:00:70:8d:f4:94:dd:f7:09:40:c4:34:24:
                    12:eb:41:ff:ea:02:36:53:76:fe:ac:15:ec:4d:85:
                    0d:ef:0f:d1:c5:91:1f:4d:6f:47:cd:7e:e6:3b:28:
                    c8:c1:aa:82:3c:34:cf:02:f5:9e:4f:33:80:5f:c7:
                    74:c5:65:22:09:9e:eb:e9:74:b5:56:65:ef:fe:8e:
                    3d:3e:01:0f:df:0e:86:89:b5:8e:f2:e4:ed:18:04:
                    0f:2d:d2:a6:b8:af:9d:d0:88:4e:ed:8e:a1:e2:25:
                    40:1c:8c:bb:05:29:0b:e1:2d:7f:9f:bb:dd:e3:b0:
                    89:88:0a:0e:c8:bd:3c:41:d6:b2:cf:a9:da:29:33:
                    9f:d7:9f:cc:fd:72:73:59:cf:09:9b:3c:32:c8:9a:
                    b1:c5:29:38:24:93:ca:5d:12:f9:d2:51:15:fa:3d:
                    e6:ec:db
                Exponent: 65537 (0x10001)
        X509v3 extensions:
            X509v3 Basic Constraints: 
                CA:FALSE
            Netscape Comment: 
                VPN User Certificate
            Netscape Cert Type: 
                SSL Client
            X509v3 Key Usage: 
                Digital Signature
            X509v3 Extended Key Usage: 
                TLS Web Client Authentication
            X509v3 Subject Key Identifier: 
                11:08:00:3C:80:84:9E:DB:14:D4:E8:04:C8:2D:09:32:6A:40:A9:B8
            X509v3 Authority Key Identifier: 
                keyid:86:4F:B8:6D:18:2A:1B:3C:8F:27:34:29:F0:81:9F:BA:6E:61:0E:E1
                DirName:/C=CH/ST=Zug/L=Zug/O=Perfect Privacy/CN=Perfect Privacy/emailAddress=admin@perfect-privacy.com
                serial:FA:11:B5:C4:AA:69:AF:69

    Signature Algorithm: sha512WithRSAEncryption
         16:a8:a0:fb:ed:eb:3e:e8:83:7d:51:10:60:df:40:06:a9:f3:
         98:f5:22:e9:7f:4c:e9:38:6a:59:7e:02:66:17:94:8d:44:ab:
         5e:ee:75:1a:58:46:fe:af:53:28:6c:6f:e2:f5:7f:6b:50:c3:
         56:02:86:24:d4:3a:a9:1e:5e:ea:b4:13:4d:7e:c8:72:cf:f9:
         c8:c9:42:cb:2d:d3:04:bb:4b:3a:c4:83:4f:d8:7e:73:ff:1b:
         21:14:fb:ac:aa:1e:12:8b:d5:4c:75:5c:fe:b4:21:63:6d:14:
         05:4e:d0:be:4d:50:88:e7:3f:f0:ab:76:ed:1e:1f:5f:c1:2a:
         e4:41:80:45:2a:c5:7d:b4:80:e7:a6:e6:e8:a7:15:c2:95:7d:
         e0:df:13:18:48:0c:9f:b7:46:f6:8a:03:bb:62:77:1b:be:ba:
         e7:3b:3c:e9:61:47:f5:9f:8c:41:d3:f3:33:ed:55:8c:51:62:
         89:b4:81:a5:06:42:72:3f:e0:9d:5f:dc:75:10:49:7d:ac:59:
         00:c4:49:26:a6:b8:91:5d:4b:c0:87:b0:be:d5:43:96:6d:1d:
         25:d9:70:6a:5f:1f:0a:ca:16:52:84:c4:6c:17:ab:6c:c2:61:
         be:a6:0e:25:ea:68:9b:fd:db:0c:21:e2:a2:f6:bf:26:04:e4:
         b5:e4:61:90:74:89:7b:c8:48:31:12:94:b5:66:0b:34:1a:41:
         1d:29:76:7a:97:f8:c1:8f:e4:e0:9a:9b:6a:79:f8:14:de:6c:
         f7:b9:3c:6b:52:51:fc:82:f7:f4:6b:9f:06:16:c9:f8:b4:14:
         e0:4b:be:a4:8f:e2:eb:d1:37:a8:95:34:d9:eb:c7:4e:8f:f5:
         15:e3:5d:e0:33:70:54:63:45:1d:44:57:9f:e7:47:2e:84:4b:
         5b:44:2f:8c:d3:52:ae:d3:db:7b:40:46:27:82:11:cf:1f:50:
         3e:62:70:65:80:c5:ca:9e:1a:c1:40:da:31:63:d4:da:af:31:
         93:ef:c8:7b:e8:f2:5f:cc:5a:fd:36:05:26:17:e9:29:1d:ac:
         74:cd:e7:16:87:8f:09:06:a3:9f:f7:c8:8b:eb:04:3d:f5:84:
         f3:56:ce:9b:93:9c:c5:4e:ee:e5:11:77:f9:fa:78:09:6d:67:
         86:92:a4:03:61:70:7e:23:99:ed:23:d2:b8:4d:ca:a1:2e:c6:
         4f:cb:0c:47:39:d1:e9:83:fd:8c:4d:8a:f1:53:54:c8:ab:d3:
         14:db:a9:71:25:be:1f:6c:dc:d9:9d:d5:a1:ad:f1:87:0c:19:
         41:b0:37:f3:49:b5:65:c8:48:12:0e:cd:39:64:65:a1:b7:f8:
         cb:b3:aa:89:a5:bf:66:70
-----BEGIN CERTIFICATE-----
MIIG4DCCBMigAwIBAgIJAKK1OGry0wzsMA0GCSqGSIb3DQEBDQUAMIGHMQswCQYD
VQQGEwJDSDEMMAoGA1UECBMDWnVnMQwwCgYDVQQHEwNadWcxGDAWBgNVBAoTD1Bl
cmZlY3QgUHJpdmFjeTEYMBYGA1UEAxMPUGVyZmVjdCBQcml2YWN5MSgwJgYJKoZI
hvcNAQkBFhlhZG1pbkBwZXJmZWN0LXByaXZhY3kuY29tMB4XDTIzMDcyNDAwMDAw
MFoXDTI1MDMyMDAwMDAwMFowgYsxCzAJBgNVBAYTAkNIMQwwCgYDVQQIEwNadWcx
GDAWBgNVBAoTD1BlcmZlY3QgUHJpdmFjeTEqMCgGA1UEAxQhQ2xpZW50X3p1cmlj
aC5wZXJmZWN0LXByaXZhY3kuY29tMSgwJgYJKoZIhvcNAQkBFhlhZG1pbkBwZXJm
ZWN0LXByaXZhY3kuY29tMIICIjANBgkqhkiG9w0BAQEFAAOCAg8AMIICCgKCAgEA
rPtVbswhOt5e4yHbMMb7T5wVpZGeNDFwW51RQVFlyso229F+P00qfK/cQAEqSwZf
uMRpwfm9hlydXu5lT0w5rDXgOjtRaonxie4scEGaduZXki39DWBRF26+14VlF4hX
4Z7CF0v2OiSFxe8RdZtskrB+j0Eo3cvYeq1TGQG94q+Icsm/UWbRdjUH3CdxHklM
/eoAY7T6iQ0HlrHlba17DEVYMxnVpbaiXDtykPnUGFUIuSneJpAV/CTokIOZPi9s
PnuXSTqtj9g94dlPB6jp2YYggXIMjjrc263GlhqZSq4gQHSdAvIbt4Og0HERrUz6
5QDq90Mi0fPdFG/XfBp+WfiMHOOmbk8+Gj+p2mrANMbkyl8s9/q7K5wj6dIkaCQP
AdJvM0Df6mROKHoxjFrt3uA2sB7P5q98y5d/Vty3GZym0DUWD1sIi4hRWQZ3W5LT
L8nqHZb5P+WyYEIAcI30lN33CUDENCQS60H/6gI2U3b+rBXsTYUN7w/RxZEfTW9H
zX7mOyjIwaqCPDTPAvWeTzOAX8d0xWUiCZ7r6XS1VmXv/o49PgEP3w6GibWO8uTt
GAQPLdKmuK+d0IhO7Y6h4iVAHIy7BSkL4S1/n7vd47CJiAoOyL08Qdayz6naKTOf
15/M/XJzWc8JmzwyyJqxxSk4JJPKXRL50lEV+j3m7NsCAwEAAaOCAUcwggFDMAkG
A1UdEwQCMAAwIwYJYIZIAYb4QgENBBYWFFZQTiBVc2VyIENlcnRpZmljYXRlMBEG
CWCGSAGG+EIBAQQEAwIHgDALBgNVHQ8EBAMCB4AwEwYDVR0lBAwwCgYIKwYBBQUH
AwIwHQYDVR0OBBYEFBEIADyAhJ7bFNToBMgtCTJqQKm4MIG8BgNVHSMEgbQwgbGA
FIZPuG0YKhs8jyc0KfCBn7puYQ7hoYGNpIGKMIGHMQswCQYDVQQGEwJDSDEMMAoG
A1UECBMDWnVnMQwwCgYDVQQHEwNadWcxGDAWBgNVBAoTD1BlcmZlY3QgUHJpdmFj
eTEYMBYGA1UEAxMPUGVyZmVjdCBQcml2YWN5MSgwJgYJKoZIhvcNAQkBFhlhZG1p
bkBwZXJmZWN0LXByaXZhY3kuY29tggkA+hG1xKppr2kwDQYJKoZIhvcNAQENBQAD
ggIBABaooPvt6z7og31REGDfQAap85j1Iul/TOk4all+AmYXlI1Eq17udRpYRv6v
Uyhsb+L1f2tQw1YChiTUOqkeXuq0E01+yHLP+cjJQsst0wS7SzrEg0/YfnP/GyEU
+6yqHhKL1Ux1XP60IWNtFAVO0L5NUIjnP/Crdu0eH1/BKuRBgEUqxX20gOem5uin
FcKVfeDfExhIDJ+3RvaKA7tidxu+uuc7POlhR/WfjEHT8zPtVYxRYom0gaUGQnI/
4J1f3HUQSX2sWQDESSamuJFdS8CHsL7VQ5ZtHSXZcGpfHwrKFlKExGwXq2zCYb6m
DiXqaJv92wwh4qL2vyYE5LXkYZB0iXvISDESlLVmCzQaQR0pdnqX+MGP5OCam2p5
+BTebPe5PGtSUfyC9/RrnwYWyfi0FOBLvqSP4uvRN6iVNNnrx06P9RXjXeAzcFRj
RR1EV5/nRy6ES1tEL4zTUq7T23tARieCEc8fUD5icGWAxcqeGsFA2jFj1NqvMZPv
yHvo8l/MWv02BSYX6SkdrHTN5xaHjwkGo5/3yIvrBD31hPNWzpuTnMVO7uURd/n6
eAltZ4aSpANhcH4jme0j0rhNyqEuxk/LDEc50emD/YxNivFTVMir0xTbqXElvh9s
3Nmd1aGt8YcMGUGwN/NJtWXISBIOzTlkZaG3+Muzqomlv2Zw
-----END CERTIFICATE-----
