Certificate:
    Data:
        Version: 3 (0x2)
        Serial Number: 8949189634165174702 (0x7c31e88eb405f1ae)
    Signature Algorithm: sha512WithRSAEncryption
        Issuer: C=CH, ST=Zug, L=Zug, O=Perfect Privacy, CN=Perfect Privacy/emailAddress=admin@perfect-privacy.com
        Validity
            Not Before: Dec  7 00:00:00 2022 GMT
            Not After : Aug  3 00:00:00 2024 GMT
        Subject: C=CH, ST=Zug, O=Perfect Privacy, CN=Client_zurich.perfect-privacy.com/emailAddress=admin@perfect-privacy.com
        Subject Public Key Info:
            Public Key Algorithm: rsaEncryption
                Public-Key: (4096 bit)
                Modulus:
                    00:bc:10:40:51:26:ee:e2:e7:77:7c:ee:da:c0:8d:
                    1b:a1:b2:31:2a:00:87:28:b7:c8:7c:89:23:85:27:
                    00:3a:e5:fc:f8:fb:cb:af:04:f8:90:e2:7e:37:0f:
                    3c:86:44:18:82:bf:76:66:f0:4e:bf:7d:f3:88:c5:
                    43:77:ee:2d:7d:a5:71:69:1b:28:83:3f:45:62:37:
                    f6:5d:26:88:ba:63:39:12:af:8c:a7:dd:3c:af:39:
                    0a:d8:0f:4f:4e:f5:55:7b:56:77:69:99:77:a9:4e:
                    60:56:00:70:e0:60:f9:3d:c9:62:a0:96:c1:56:37:
                    91:41:fe:8f:d1:c8:98:c0:71:06:02:41:26:5b:13:
                    d1:4c:62:b8:ef:12:d3:fc:02:db:94:f0:49:a7:8a:
                    6f:11:ae:61:97:19:d6:18:3b:48:0b:68:09:c3:69:
                    6a:28:76:c5:96:f9:32:d4:19:80:49:b1:59:1d:08:
                    46:d3:62:6c:91:2a:5b:b7:41:87:37:9e:ad:2c:2f:
                    ee:cc:08:e7:07:dd:be:64:97:64:d9:a6:dd:59:4f:
                    f2:a7:15:81:b8:59:d0:44:02:77:68:b6:65:44:cb:
                    5a:73:70:fd:e2:0d:c7:92:09:f5:40:22:ef:ea:1f:
                    01:be:54:f0:8e:b4:bf:1d:71:a8:51:a3:5b:60:1f:
                    b4:62:ce:bd:01:f7:2b:c7:40:8c:d7:52:04:79:60:
                    2d:7b:5c:2c:46:a0:ed:c2:94:01:b7:08:85:58:0b:
                    87:00:52:1b:fa:d8:d2:c1:16:33:4c:fe:d5:62:19:
                    09:aa:ca:70:1d:98:ed:ab:77:50:21:f9:3f:bc:e2:
                    94:d7:e3:81:f4:66:15:09:32:98:40:fe:f0:18:95:
                    51:af:78:8d:0c:fb:be:d9:fb:7b:a1:18:1c:40:4a:
                    ae:30:8e:e4:3e:08:e3:2b:81:cf:df:32:39:dd:0e:
                    be:45:ca:72:66:60:ec:90:0a:81:49:8f:db:b1:cd:
                    4d:9f:85:2a:8b:e7:99:ef:35:4c:f3:fb:0e:15:86:
                    09:89:11:9d:18:27:24:4d:3d:aa:8d:39:64:f4:86:
                    9f:96:55:0d:3b:2a:a1:7c:07:a4:d1:a2:b0:06:79:
                    25:7b:e0:5c:95:7f:65:8e:fa:72:8f:e3:46:c9:8a:
                    ea:74:cc:bd:77:ae:46:2a:a0:72:07:fa:69:09:ba:
                    93:e9:b1:6d:93:8f:7a:36:b9:9b:a5:d7:d3:81:b2:
                    40:73:7b:e3:02:1f:2a:f8:51:7d:3a:4d:c2:a8:21:
                    0a:1d:2d:f4:38:cc:ff:18:66:ce:ee:43:c6:58:fd:
                    a3:fd:b3:23:63:7a:bb:31:8e:98:5d:74:72:46:24:
                    b8:00:df
                Exponent: 65537 (0x10001)
        X509v3 extensions:
            X509v3 Basic Constraints: 
                CA:FALSE
            Netscape Comment: 
                VPN User Certificate
            Netscape Cert Type: 
                SSL Client
            X509v3 Key Usage: 
                Digital Signature
            X509v3 Extended Key Usage: 
                TLS Web Client Authentication
            X509v3 Subject Key Identifier: 
                8B:0C:2A:90:EB:A1:6C:DE:B6:BB:7C:C3:77:21:D8:02:BF:29:C5:B8
            X509v3 Authority Key Identifier: 
                keyid:86:4F:B8:6D:18:2A:1B:3C:8F:27:34:29:F0:81:9F:BA:6E:61:0E:E1
                DirName:/C=CH/ST=Zug/L=Zug/O=Perfect Privacy/CN=Perfect Privacy/emailAddress=admin@perfect-privacy.com
                serial:FA:11:B5:C4:AA:69:AF:69

    Signature Algorithm: sha512WithRSAEncryption
         13:7a:60:c4:e4:d6:16:45:4e:6d:5d:ab:87:22:db:1f:34:8a:
         88:f2:1a:53:33:d6:58:85:03:35:bd:0a:d6:c2:e3:78:dc:5d:
         be:5a:30:55:18:0d:a1:bb:17:88:47:3b:4e:69:63:ef:94:fa:
         9b:89:b0:f1:92:4f:d6:51:ff:93:cf:81:2e:68:93:63:d4:dd:
         40:4b:91:00:69:59:06:f2:3a:e2:8b:9a:e8:db:dd:2a:34:1a:
         df:bc:1a:f4:ab:7f:0a:62:ae:a7:b7:19:79:d6:ce:00:6a:3f:
         1c:dd:85:b4:fb:9e:c3:4d:ee:cd:f1:5f:c6:64:e7:9b:9e:9e:
         62:f1:0a:22:0e:14:20:0a:8c:38:ac:48:8b:3e:cf:0b:10:0c:
         f5:19:87:78:ed:67:d4:a4:77:aa:c3:01:8f:a7:e3:f5:26:d7:
         01:bf:f3:88:e2:4f:b5:d6:9c:1d:42:0a:17:2e:9f:87:4c:4d:
         16:ba:aa:76:aa:9f:59:c8:6e:1b:2c:98:5b:f8:c0:a8:d9:5f:
         70:b0:e8:00:51:d7:20:29:d0:fe:d5:2d:86:e9:51:de:6c:29:
         f6:44:bc:f5:6b:9d:cc:c3:4d:a3:62:10:62:58:65:7c:a6:a2:
         eb:15:87:51:d8:d2:f2:f9:c5:e3:c8:1e:a6:94:77:e9:83:89:
         28:2d:2c:59:df:12:5f:5f:53:2a:7f:f3:3b:a6:1e:76:5d:da:
         10:0f:57:4f:86:d9:85:f4:8e:4f:81:fe:6e:35:4b:bd:95:06:
         90:aa:2e:9d:1e:18:37:04:5d:a9:8a:a5:5a:fa:6e:8b:da:f9:
         1b:a3:19:33:63:7b:37:0c:18:27:2c:fd:08:44:ec:8c:a9:68:
         0a:5c:a7:1b:81:34:93:fc:6f:90:2d:d4:8e:d6:cf:78:86:a0:
         5f:f7:73:87:64:18:08:55:cd:41:17:3c:cd:db:7c:30:54:7a:
         58:8f:ac:58:8a:d0:e2:94:22:63:96:39:79:31:97:f3:b2:0d:
         49:96:d4:ad:74:23:3b:9e:a9:30:86:13:44:bf:c4:63:d0:9a:
         44:ff:bc:41:97:80:75:c4:72:7c:86:d0:55:a1:95:20:d4:c6:
         dd:84:6e:06:2e:98:e9:b7:81:f4:fd:32:68:9d:2d:8e:fb:91:
         bf:25:2e:0d:47:ac:bf:81:af:0c:2c:69:d5:5b:ca:62:63:92:
         bd:7c:c0:0a:3e:a2:2b:30:b5:63:6f:ae:f2:60:d6:19:6a:c3:
         a0:d3:4d:3d:b4:53:1d:69:dc:2c:a5:01:ba:7c:bf:94:a8:42:
         b3:43:7b:9f:43:d2:5f:52:d2:68:63:49:14:84:ab:9b:04:63:
         cf:8a:68:3c:f5:9f:1a:4f
-----BEGIN CERTIFICATE-----
MIIG3zCCBMegAwIBAgIIfDHojrQF8a4wDQYJKoZIhvcNAQENBQAwgYcxCzAJBgNV
BAYTAkNIMQwwCgYDVQQIEwNadWcxDDAKBgNVBAcTA1p1ZzEYMBYGA1UEChMPUGVy
ZmVjdCBQcml2YWN5MRgwFgYDVQQDEw9QZXJmZWN0IFByaXZhY3kxKDAmBgkqhkiG
9w0BCQEWGWFkbWluQHBlcmZlY3QtcHJpdmFjeS5jb20wHhcNMjIxMjA3MDAwMDAw
WhcNMjQwODAzMDAwMDAwWjCBizELMAkGA1UEBhMCQ0gxDDAKBgNVBAgTA1p1ZzEY
MBYGA1UEChMPUGVyZmVjdCBQcml2YWN5MSowKAYDVQQDFCFDbGllbnRfenVyaWNo
LnBlcmZlY3QtcHJpdmFjeS5jb20xKDAmBgkqhkiG9w0BCQEWGWFkbWluQHBlcmZl
Y3QtcHJpdmFjeS5jb20wggIiMA0GCSqGSIb3DQEBAQUAA4ICDwAwggIKAoICAQC8
EEBRJu7i53d87trAjRuhsjEqAIcot8h8iSOFJwA65fz4+8uvBPiQ4n43DzyGRBiC
v3Zm8E6/ffOIxUN37i19pXFpGyiDP0ViN/ZdJoi6YzkSr4yn3TyvOQrYD09O9VV7
VndpmXepTmBWAHDgYPk9yWKglsFWN5FB/o/RyJjAcQYCQSZbE9FMYrjvEtP8AtuU
8Emnim8RrmGXGdYYO0gLaAnDaWoodsWW+TLUGYBJsVkdCEbTYmyRKlu3QYc3nq0s
L+7MCOcH3b5kl2TZpt1ZT/KnFYG4WdBEAndotmVEy1pzcP3iDceSCfVAIu/qHwG+
VPCOtL8dcahRo1tgH7Rizr0B9yvHQIzXUgR5YC17XCxGoO3ClAG3CIVYC4cAUhv6
2NLBFjNM/tViGQmqynAdmO2rd1Ah+T+84pTX44H0ZhUJMphA/vAYlVGveI0M+77Z
+3uhGBxASq4wjuQ+COMrgc/fMjndDr5FynJmYOyQCoFJj9uxzU2fhSqL55nvNUzz
+w4VhgmJEZ0YJyRNPaqNOWT0hp+WVQ07KqF8B6TRorAGeSV74FyVf2WO+nKP40bJ
iup0zL13rkYqoHIH+mkJupPpsW2Tj3o2uZul19OBskBze+MCHyr4UX06TcKoIQod
LfQ4zP8YZs7uQ8ZY/aP9syNjersxjphddHJGJLgA3wIDAQABo4IBRzCCAUMwCQYD
VR0TBAIwADAjBglghkgBhvhCAQ0EFhYUVlBOIFVzZXIgQ2VydGlmaWNhdGUwEQYJ
YIZIAYb4QgEBBAQDAgeAMAsGA1UdDwQEAwIHgDATBgNVHSUEDDAKBggrBgEFBQcD
AjAdBgNVHQ4EFgQUiwwqkOuhbN62u3zDdyHYAr8pxbgwgbwGA1UdIwSBtDCBsYAU
hk+4bRgqGzyPJzQp8IGfum5hDuGhgY2kgYowgYcxCzAJBgNVBAYTAkNIMQwwCgYD
VQQIEwNadWcxDDAKBgNVBAcTA1p1ZzEYMBYGA1UEChMPUGVyZmVjdCBQcml2YWN5
MRgwFgYDVQQDEw9QZXJmZWN0IFByaXZhY3kxKDAmBgkqhkiG9w0BCQEWGWFkbWlu
QHBlcmZlY3QtcHJpdmFjeS5jb22CCQD6EbXEqmmvaTANBgkqhkiG9w0BAQ0FAAOC
AgEAE3pgxOTWFkVObV2rhyLbHzSKiPIaUzPWWIUDNb0K1sLjeNxdvlowVRgNobsX
iEc7Tmlj75T6m4mw8ZJP1lH/k8+BLmiTY9TdQEuRAGlZBvI64oua6NvdKjQa37wa
9Kt/CmKup7cZedbOAGo/HN2FtPuew03uzfFfxmTnm56eYvEKIg4UIAqMOKxIiz7P
CxAM9RmHeO1n1KR3qsMBj6fj9SbXAb/ziOJPtdacHUIKFy6fh0xNFrqqdqqfWchu
GyyYW/jAqNlfcLDoAFHXICnQ/tUthulR3mwp9kS89WudzMNNo2IQYlhlfKai6xWH
UdjS8vnF48geppR36YOJKC0sWd8SX19TKn/zO6Yedl3aEA9XT4bZhfSOT4H+bjVL
vZUGkKounR4YNwRdqYqlWvpui9r5G6MZM2N7NwwYJyz9CETsjKloClynG4E0k/xv
kC3UjtbPeIagX/dzh2QYCFXNQRc8zdt8MFR6WI+sWIrQ4pQiY5Y5eTGX87INSZbU
rXQjO56pMIYTRL/EY9CaRP+8QZeAdcRyfIbQVaGVINTG3YRuBi6Y6beB9P0yaJ0t
jvuRvyUuDUesv4GvDCxp1VvKYmOSvXzACj6iKzC1Y2+u8mDWGWrDoNNNPbRTHWnc
LKUBuny/lKhCs0N7n0PSX1LSaGNJFISrmwRjz4poPPWfGk8=
-----END CERTIFICATE-----
