Certificate:
    Data:
        Version: 3 (0x2)
        Serial Number: 8593145937607452865 (0x7740fcb3aa2ee8c1)
    Signature Algorithm: sha512WithRSAEncryption
        Issuer: C=CH, ST=Zug, L=Zug, O=Perfect Privacy, CN=Perfect Privacy/emailAddress=admin@perfect-privacy.com
        Validity
            Not Before: May 29 00:00:00 2024 GMT
            Not After : Jan 24 00:00:00 2026 GMT
        Subject: C=CH, ST=Zug, O=Perfect Privacy, CN=Client_zurich.perfect-privacy.com/emailAddress=admin@perfect-privacy.com
        Subject Public Key Info:
            Public Key Algorithm: rsaEncryption
                Public-Key: (4096 bit)
                Modulus:
                    00:dc:52:b3:63:3c:f7:36:1f:20:9d:20:53:8e:b5:
                    c0:f8:9c:64:6e:e5:ef:15:8a:73:de:a4:f3:bb:81:
                    fd:ba:47:27:21:50:cd:3d:b4:61:f2:d5:06:0a:73:
                    f3:67:1b:d6:77:91:45:e2:40:65:cc:6a:e3:92:c2:
                    c5:54:ef:a6:93:02:f0:4a:76:84:5d:24:aa:91:3d:
                    68:be:92:26:f6:b7:bd:b0:2e:6f:ba:05:31:65:d3:
                    e0:52:de:8e:7f:0a:a9:5b:21:4a:e1:8f:9a:59:b9:
                    89:a8:0b:96:71:7c:68:24:50:32:32:d6:6b:ff:0c:
                    7c:c5:f6:b1:32:65:6a:f9:37:2f:1d:49:53:9a:bc:
                    f7:53:25:0e:8d:98:b1:2f:f3:81:88:78:3f:3c:be:
                    f4:69:53:a0:26:8c:4e:15:41:af:c1:ac:54:f0:08:
                    dd:1e:d2:f2:be:4a:e3:33:52:4c:98:20:77:4a:a7:
                    bd:4a:57:18:65:38:f6:6f:09:3f:fd:ca:76:47:db:
                    fc:72:58:dd:f6:7f:6f:5a:cb:a3:6c:0b:90:a4:04:
                    d0:7f:c1:2b:02:a8:84:3c:a6:fb:34:ee:6e:34:dd:
                    4c:71:f9:7e:38:07:9c:f7:69:a1:d9:61:5c:30:6d:
                    91:c2:8b:d7:15:bc:30:b4:5f:2f:6a:b7:3c:a6:66:
                    b1:99:62:1e:4a:43:9b:4d:f9:36:59:fc:71:73:f7:
                    04:8f:2b:a0:50:8c:5c:11:5a:c6:22:18:7e:0d:12:
                    ea:93:6e:5d:b5:34:78:a6:03:02:20:8c:6f:a6:e9:
                    ab:14:21:c6:95:68:73:51:90:04:18:d0:b5:dc:1d:
                    ac:e5:18:a2:b3:65:94:29:8d:54:52:40:eb:74:d7:
                    b8:6f:d5:87:a7:6a:e1:52:e7:63:24:83:bc:2c:01:
                    b1:51:a3:5f:fa:f1:62:b7:c9:6a:a3:ef:b0:8e:c4:
                    0f:57:4f:cf:01:07:93:22:f1:06:d2:9c:4e:f7:d5:
                    85:7b:9c:f0:d7:05:08:98:43:af:c9:05:e7:c4:ca:
                    b4:7a:8f:c6:f8:54:9f:7c:c8:2f:6a:fa:cd:f7:58:
                    5f:18:58:62:4b:3f:d7:c7:4d:4e:a1:49:92:8f:2f:
                    59:e9:49:5c:b3:88:ed:a0:4a:2c:aa:fa:5f:e2:78:
                    cc:1a:8f:ed:11:41:8e:d4:53:9e:1b:47:6f:f3:3b:
                    70:c2:89:ae:96:2c:dc:d0:7c:06:31:af:e2:f9:04:
                    3a:ad:79:2c:95:d5:0b:b4:e8:26:6b:36:b0:ed:2e:
                    03:52:79:01:58:7d:c6:77:a8:bf:bf:c9:07:a5:ba:
                    b6:a6:05:88:6f:0c:f9:a8:6c:a9:b5:f6:72:38:b0:
                    82:74:c1
                Exponent: 65537 (0x10001)
        X509v3 extensions:
            X509v3 Basic Constraints: 
                CA:FALSE
            Netscape Comment: 
                VPN User Certificate
            Netscape Cert Type: 
                SSL Client
            X509v3 Key Usage: 
                Digital Signature
            X509v3 Extended Key Usage: 
                TLS Web Client Authentication
            X509v3 Subject Key Identifier: 
                1A:8C:72:5F:BD:6D:7A:4A:7F:C2:AD:7D:E9:45:7B:58:4F:A6:EA:AD
            X509v3 Authority Key Identifier: 
                keyid:86:4F:B8:6D:18:2A:1B:3C:8F:27:34:29:F0:81:9F:BA:6E:61:0E:E1
                DirName:/C=CH/ST=Zug/L=Zug/O=Perfect Privacy/CN=Perfect Privacy/emailAddress=admin@perfect-privacy.com
                serial:FA:11:B5:C4:AA:69:AF:69

    Signature Algorithm: sha512WithRSAEncryption
         70:de:8b:73:25:e7:b5:36:f9:f3:2e:d7:df:56:ff:59:34:ad:
         89:71:6c:90:ea:4f:03:c5:ce:75:da:01:72:ad:ca:be:35:6e:
         33:0a:5a:c0:9c:67:3b:83:62:89:46:3b:58:85:dc:29:77:40:
         ef:6c:1e:01:7b:55:83:ae:c0:b1:cd:6c:85:73:f1:ef:64:c3:
         c2:c5:51:ae:4b:53:75:e4:d8:8c:62:bd:a7:e7:60:08:ef:6e:
         e4:de:5a:67:b9:a3:cf:49:0e:c8:63:64:83:c6:ba:83:19:bc:
         5f:e5:99:51:19:6c:11:1b:b2:7f:79:a4:f1:b0:01:53:30:2c:
         6f:d0:6c:fc:6e:98:94:ff:ea:6b:81:6d:c2:dc:f4:e9:96:da:
         d0:2c:ed:17:e4:48:6c:94:70:c8:6a:34:65:c8:71:04:53:2b:
         50:5b:db:e7:b1:13:5a:51:c4:d9:98:3b:c2:cc:3c:96:71:bc:
         0d:24:09:a9:3b:d2:08:ab:f6:71:5c:6a:17:92:d3:1b:4a:8f:
         9f:03:16:60:eb:91:8d:02:c9:d3:70:f9:78:45:53:0a:b3:be:
         bf:95:3e:5b:17:6e:b8:1b:76:2c:d1:7d:5a:63:9c:a5:44:42:
         a4:93:30:59:38:a8:d7:05:69:5f:35:12:05:a6:68:b8:d0:36:
         1e:11:5c:55:75:57:83:93:b6:e8:96:7b:7c:91:b9:5d:01:2a:
         8e:6d:10:a7:9a:4d:33:0b:19:f2:40:a2:b4:bf:62:62:4b:1f:
         3b:9d:9a:d1:20:f7:2a:90:d3:d8:aa:b5:a7:19:08:48:31:77:
         43:b1:ab:4b:4a:19:b5:23:55:89:1e:59:52:b4:be:da:80:a7:
         40:9e:1b:6a:16:d3:dc:53:7b:da:1f:86:cb:41:62:35:bc:02:
         6d:36:0b:c8:20:dd:20:dd:f1:b0:79:7c:78:2c:12:d9:d1:f0:
         b2:dc:96:99:77:b0:1a:83:bb:ea:70:4c:9b:8a:be:29:a1:e6:
         7e:cc:a8:96:7a:5a:05:9c:02:80:b0:d2:d8:73:94:1f:7a:3d:
         1d:a5:46:ef:cf:51:3c:15:bb:12:94:ad:51:1a:b9:b3:36:3c:
         f9:de:17:e4:d3:2d:3f:30:08:b1:0b:c5:11:96:1a:e6:fc:00:
         03:12:28:8a:23:5c:a2:93:14:26:4f:c9:db:d7:ec:b3:c1:06:
         a5:f7:17:27:c1:30:d6:4c:95:35:f8:ee:69:ef:2a:13:57:5d:
         9f:7f:e4:b0:81:c5:f2:71:63:f5:a4:34:20:84:0b:23:88:3a:
         ca:5d:a3:94:9b:69:5c:55:ff:b8:ce:68:0e:77:4f:21:ea:e0:
         fa:38:86:d0:5e:b8:67:56
-----BEGIN CERTIFICATE-----
MIIG3zCCBMegAwIBAgIId0D8s6ou6MEwDQYJKoZIhvcNAQENBQAwgYcxCzAJBgNV
BAYTAkNIMQwwCgYDVQQIEwNadWcxDDAKBgNVBAcTA1p1ZzEYMBYGA1UEChMPUGVy
ZmVjdCBQcml2YWN5MRgwFgYDVQQDEw9QZXJmZWN0IFByaXZhY3kxKDAmBgkqhkiG
9w0BCQEWGWFkbWluQHBlcmZlY3QtcHJpdmFjeS5jb20wHhcNMjQwNTI5MDAwMDAw
WhcNMjYwMTI0MDAwMDAwWjCBizELMAkGA1UEBhMCQ0gxDDAKBgNVBAgTA1p1ZzEY
MBYGA1UEChMPUGVyZmVjdCBQcml2YWN5MSowKAYDVQQDFCFDbGllbnRfenVyaWNo
LnBlcmZlY3QtcHJpdmFjeS5jb20xKDAmBgkqhkiG9w0BCQEWGWFkbWluQHBlcmZl
Y3QtcHJpdmFjeS5jb20wggIiMA0GCSqGSIb3DQEBAQUAA4ICDwAwggIKAoICAQDc
UrNjPPc2HyCdIFOOtcD4nGRu5e8VinPepPO7gf26RychUM09tGHy1QYKc/NnG9Z3
kUXiQGXMauOSwsVU76aTAvBKdoRdJKqRPWi+kib2t72wLm+6BTFl0+BS3o5/Cqlb
IUrhj5pZuYmoC5ZxfGgkUDIy1mv/DHzF9rEyZWr5Ny8dSVOavPdTJQ6NmLEv84GI
eD88vvRpU6AmjE4VQa/BrFTwCN0e0vK+SuMzUkyYIHdKp71KVxhlOPZvCT/9ynZH
2/xyWN32f29ay6NsC5CkBNB/wSsCqIQ8pvs07m403Uxx+X44B5z3aaHZYVwwbZHC
i9cVvDC0Xy9qtzymZrGZYh5KQ5tN+TZZ/HFz9wSPK6BQjFwRWsYiGH4NEuqTbl21
NHimAwIgjG+m6asUIcaVaHNRkAQY0LXcHazlGKKzZZQpjVRSQOt017hv1YenauFS
52Mkg7wsAbFRo1/68WK3yWqj77COxA9XT88BB5Mi8QbSnE731YV7nPDXBQiYQ6/J
BefEyrR6j8b4VJ98yC9q+s33WF8YWGJLP9fHTU6hSZKPL1npSVyziO2gSiyq+l/i
eMwaj+0RQY7UU54bR2/zO3DCia6WLNzQfAYxr+L5BDqteSyV1Qu06CZrNrDtLgNS
eQFYfcZ3qL+/yQeluramBYhvDPmobKm19nI4sIJ0wQIDAQABo4IBRzCCAUMwCQYD
VR0TBAIwADAjBglghkgBhvhCAQ0EFhYUVlBOIFVzZXIgQ2VydGlmaWNhdGUwEQYJ
YIZIAYb4QgEBBAQDAgeAMAsGA1UdDwQEAwIHgDATBgNVHSUEDDAKBggrBgEFBQcD
AjAdBgNVHQ4EFgQUGoxyX71tekp/wq196UV7WE+m6q0wgbwGA1UdIwSBtDCBsYAU
hk+4bRgqGzyPJzQp8IGfum5hDuGhgY2kgYowgYcxCzAJBgNVBAYTAkNIMQwwCgYD
VQQIEwNadWcxDDAKBgNVBAcTA1p1ZzEYMBYGA1UEChMPUGVyZmVjdCBQcml2YWN5
MRgwFgYDVQQDEw9QZXJmZWN0IFByaXZhY3kxKDAmBgkqhkiG9w0BCQEWGWFkbWlu
QHBlcmZlY3QtcHJpdmFjeS5jb22CCQD6EbXEqmmvaTANBgkqhkiG9w0BAQ0FAAOC
AgEAcN6LcyXntTb58y7X31b/WTStiXFskOpPA8XOddoBcq3KvjVuMwpawJxnO4Ni
iUY7WIXcKXdA72weAXtVg67Asc1shXPx72TDwsVRrktTdeTYjGK9p+dgCO9u5N5a
Z7mjz0kOyGNkg8a6gxm8X+WZURlsERuyf3mk8bABUzAsb9Bs/G6YlP/qa4Ftwtz0
6Zba0CztF+RIbJRwyGo0ZchxBFMrUFvb57ETWlHE2Zg7wsw8lnG8DSQJqTvSCKv2
cVxqF5LTG0qPnwMWYOuRjQLJ03D5eEVTCrO+v5U+WxduuBt2LNF9WmOcpURCpJMw
WTio1wVpXzUSBaZouNA2HhFcVXVXg5O26JZ7fJG5XQEqjm0Qp5pNMwsZ8kCitL9i
YksfO52a0SD3KpDT2Kq1pxkISDF3Q7GrS0oZtSNViR5ZUrS+2oCnQJ4bahbT3FN7
2h+Gy0FiNbwCbTYLyCDdIN3xsHl8eCwS2dHwstyWmXewGoO76nBMm4q+KaHmfsyo
lnpaBZwCgLDS2HOUH3o9HaVG789RPBW7EpStURq5szY8+d4X5NMtPzAIsQvFEZYa
5vwAAxIoiiNcopMUJk/J29fss8EGpfcXJ8Ew1kyVNfjuae8qE1ddn3/ksIHF8nFj
9aQ0IIQLI4g6yl2jlJtpXFX/uM5oDndPIerg+jiG0F64Z1Y=
-----END CERTIFICATE-----
